(dp0
I1
(lp1
I26
aI33
aI35
aI36
aI37
aI38
aI39
aI40
aI58
aI63
aI66
aI72
asI2
(lp2
I30
aI31
aI32
aI77
aI93
aI94
asI4
(lp3
I17
aI18
aI19
aI33
aI44
aI63
aI64
aI69
aI73
asI5
(lp4
I0
aI2
aI3
aI5
aI24
aI25
aI33
aI58
aI63
aI66
aI72
asI7
(lp5
I6
aI7
aI9
aI10
aI12
aI42
aI63
aI65
asI8
(lp6
I0
aI1
aI2
aI3
aI4
aI5
aI25
aI33
aI66
aI72
aI91
aI94
asI9
(lp7
I27
aI28
aI29
aI59
aI63
aI76
asI10
(lp8
I54
aI55
aI56
aI57
aI63
aI96
aI111
asI11
(lp9
I83
aI84
aI85
aI86
aI94
aI109
asI13
(lp10
I6
aI7
aI8
aI11
aI42
aI63
aI64
asI14
(lp11
I6
aI7
aI8
aI9
aI10
aI11
aI12
aI20
aI21
aI22
aI23
aI64
aI65
aI82
aI94
asI15
(lp12
I6
aI7
aI9
aI10
aI12
aI65
aI79
aI94
asI16
(lp13
I6
aI7
aI8
aI9
aI10
aI11
aI12
aI20
aI21
aI22
aI23
aI45
aI63
aI64
aI65
asI17
(lp14
I33
aI51
aI52
aI53
aI63
aI70
asI19
(lp15
I71
asI20
(lp16
I60
aI61
aI62
aI63
aI97
aI99
aI100
aI101
asI21
(lp17
I26
aI33
aI35
aI37
aI40
aI58
aI63
aI66
aI72
asI22
(lp18
I75
asI23
(lp19
I17
aI18
aI19
aI33
aI64
aI69
aI73
aI81
aI94
asI24
(lp20
I26
aI33
aI35
aI37
aI40
aI66
aI72
aI91
aI94
asI25
(lp21
I0
aI2
aI5
aI25
aI33
aI58
aI63
aI66
aI72
asI26
(lp22
I41
aI63
asI27
(lp23
I13
aI14
aI15
aI16
aI43
aI63
aI64
aI68
asI28
(lp24
I46
aI47
aI48
aI49
aI50
aI63
aI95
aI112
asI29
(lp25
I6
aI7
aI9
aI10
aI12
aI42
aI63
aI65
aI98
aI102
aI103
aI104
aI105
aI106
aI107
aI108
asI30
(lp26
I24
aI26
aI33
aI34
aI35
aI37
aI40
aI66
aI72
aI91
aI94
asI31
(lp27
I87
aI88
aI89
aI90
aI94
aI110
asI32
(lp28
I24
aI26
aI33
aI34
aI35
aI37
aI40
aI58
aI63
aI66
aI72
asI33
(lp29
I6
aI7
aI8
aI11
aI64
aI79
aI94
asI34
(lp30
I0
aI2
aI3
aI5
aI24
aI25
aI33
aI66
aI72
aI91
aI94
asI35
(lp31
I67
asI36
(lp32
I13
aI14
aI15
aI16
aI64
aI68
aI80
aI94
asI37
(lp33
I74
asI38
(lp34
I27
aI28
aI29
aI76
aI92
aI94
asI39
(lp35
I26
aI33
aI35
aI36
aI37
aI38
aI39
aI40
aI66
aI72
aI91
aI94
asI40
(lp36
I78
aI94
as.