(dp0
I1
(lp1
I196
aI197
aI198
aI201
aI203
aI212
aI216
aI217
aI222
aI228
aI247
asI2
(lp2
I196
aI197
aI201
aI203
aI204
aI206
aI210
aI212
aI216
aI217
aI218
aI219
aI220
aI221
aI222
aI223
aI230
asI3
(lp3
I0
aI1
aI4
aI7
aI8
aI12
aI15
aI16
aI18
aI19
aI20
aI21
aI22
aI23
aI25
aI26
aI27
aI28
aI29
aI30
aI31
aI32
aI35
aI36
aI37
aI38
aI41
aI42
aI43
aI44
aI49
aI79
aI86
aI163
aI164
aI165
aI167
aI168
aI169
aI170
aI172
aI173
aI174
aI175
aI176
aI178
aI196
aI197
aI198
aI199
aI200
aI201
aI203
aI208
aI212
aI213
aI214
aI215
aI216
aI217
aI218
aI219
aI220
aI221
aI222
aI223
aI230
aI246
aI247
aI248
aI286
aI287
asI4
(lp4
I38
aI41
aI42
aI43
aI44
aI49
aI82
aI163
aI164
aI165
aI167
aI168
aI170
aI172
aI173
aI174
aI175
aI176
aI178
aI196
aI197
aI198
aI199
aI200
aI201
aI203
aI208
aI212
aI246
aI248
aI292
aI293
asI5
(lp5
I38
aI41
aI42
aI43
aI44
aI45
aI49
aI179
aI180
aI181
aI182
aI183
aI184
aI185
aI186
aI188
aI195
aI196
aI197
aI198
aI201
aI203
aI204
aI206
aI210
aI212
aI246
asI6
(lp6
I2
aI3
aI5
aI8
aI9
aI10
aI11
aI12
aI13
aI14
aI15
aI16
aI18
aI19
aI20
aI21
aI22
aI23
aI24
aI25
aI26
aI27
aI31
aI32
aI34
aI36
aI37
aI196
aI197
aI198
aI199
aI200
aI201
aI203
aI208
aI212
aI213
aI214
aI215
aI216
aI217
aI218
aI219
aI220
aI221
aI222
aI223
aI230
aI247
aI248
asI7
(lp7
I38
aI41
aI42
aI43
aI44
aI49
aI84
aI163
aI164
aI165
aI167
aI168
aI172
aI173
aI196
aI197
aI198
aI199
aI200
aI201
aI203
aI208
aI212
aI246
aI248
aI292
aI293
asI8
(lp8
I38
aI41
aI42
aI43
aI44
aI45
aI49
aI50
aI56
aI67
aI119
aI121
aI122
aI124
aI128
aI133
aI134
aI135
aI136
aI137
aI179
aI180
aI185
aI186
aI188
aI193
aI194
aI195
aI196
aI197
aI198
aI201
aI203
aI204
aI206
aI210
aI212
aI216
aI217
aI223
aI224
aI230
aI246
aI247
asI9
(lp9
I196
aI197
aI198
aI201
aI203
aI212
aI216
aI217
aI219
aI227
aI247
asI10
(lp10
I38
aI41
aI42
aI43
aI44
aI49
aI50
aI51
aI52
aI54
aI55
aI63
aI67
aI74
aI196
aI197
aI198
aI201
aI203
aI212
aI216
aI217
aI218
aI219
aI220
aI221
aI222
aI223
aI230
aI246
aI251
aI252
aI253
aI254
aI255
aI257
aI266
aI267
aI268
aI308
aI309
asI11
(lp11
I38
aI41
aI42
aI43
aI44
aI46
aI49
aI67
aI74
aI88
aI90
aI91
aI92
aI93
aI94
aI95
aI96
aI97
aI98
aI99
aI100
aI101
aI102
aI103
aI104
aI105
aI106
aI107
aI108
aI109
aI110
aI111
aI112
aI113
aI114
aI115
aI116
aI117
aI145
aI146
aI147
aI148
aI151
aI152
aI155
aI156
aI157
aI158
aI159
aI160
aI196
aI197
aI198
aI201
aI203
aI204
aI206
aI211
aI212
aI216
aI217
aI218
aI219
aI220
aI221
aI222
aI223
aI225
aI230
aI234
aI246
aI247
aI318
asI12
(lp12
I38
aI41
aI42
aI43
aI44
aI49
aI50
aI51
aI52
aI61
aI196
aI197
aI198
aI201
aI203
aI212
aI246
aI251
aI252
aI253
aI254
aI255
aI257
aI266
aI267
aI268
aI314
aI315
asI13
(lp13
I38
aI41
aI42
aI43
aI44
aI45
aI49
aI179
aI180
aI185
aI186
aI188
aI194
aI195
aI196
aI197
aI198
aI201
aI203
aI204
aI206
aI210
aI212
aI246
asI14
(lp14
I196
aI197
aI201
aI203
aI204
aI206
aI210
aI212
aI216
aI217
aI218
aI219
aI220
aI221
aI222
aI223
aI230
asI15
(lp15
I38
aI40
aI41
aI42
aI43
aI44
aI45
aI49
aI179
aI183
aI185
aI186
aI187
aI194
aI195
aI196
aI197
aI198
aI201
aI203
aI204
aI206
aI210
aI212
aI216
aI217
aI223
aI230
aI246
asI16
(lp16
I38
aI39
aI41
aI45
aI49
aI179
aI180
aI185
aI186
aI188
aI194
aI195
aI196
aI197
aI198
aI201
aI203
aI204
aI205
aI206
aI210
aI212
aI246
asI17
(lp17
I38
aI39
aI41
aI42
aI43
aI44
aI45
aI49
aI119
aI121
aI122
aI124
aI128
aI133
aI134
aI136
aI179
aI183
aI185
aI186
aI188
aI194
aI195
aI196
aI197
aI198
aI201
aI203
aI204
aI205
aI206
aI210
aI212
aI216
aI217
aI218
aI219
aI220
aI221
aI222
aI223
aI224
aI230
aI246
aI247
asI18
(lp18
I38
aI41
aI42
aI43
aI44
aI45
aI49
aI124
aI127
aI138
aI139
aI144
aI179
aI183
aI186
aI188
aI189
aI190
aI191
aI192
aI195
aI196
aI197
aI198
aI201
aI203
aI204
aI206
aI210
aI212
aI216
aI217
aI218
aI219
aI220
aI221
aI222
aI223
aI224
aI230
aI246
aI247
asI19
(lp19
I38
aI41
aI42
aI43
aI44
aI45
aI49
aI179
aI183
aI185
aI186
aI188
aI194
aI195
aI196
aI197
aI198
aI201
aI203
aI204
aI206
aI210
aI212
aI246
asI20
(lp20
I38
aI41
aI42
aI43
aI44
aI49
aI83
aI163
aI164
aI165
aI167
aI168
aI172
aI173
aI196
aI197
aI198
aI199
aI200
aI201
aI203
aI208
aI212
aI246
aI248
aI294
aI295
asI21
(lp21
I38
aI41
aI42
aI47
aI196
aI197
aI198
aI201
aI203
aI212
aI246
aI276
aI277
aI278
aI279
aI280
asI22
(lp22
I196
aI197
aI198
aI201
aI203
aI209
aI212
aI216
aI217
aI218
aI219
aI220
aI221
aI222
aI223
aI229
aI230
aI247
aI319
asI23
(lp23
I38
aI41
aI42
aI43
aI44
aI49
aI50
aI56
aI66
aI196
aI197
aI198
aI201
aI203
aI212
aI246
aI251
aI252
aI253
aI254
aI255
aI257
aI271
aI272
aI273
aI306
aI307
asI24
(lp24
I38
aI41
aI42
aI43
aI44
aI49
aI50
aI56
aI57
aI65
aI196
aI197
aI198
aI201
aI203
aI212
aI246
aI251
aI252
aI253
aI254
aI255
aI257
aI271
aI272
aI273
aI310
aI311
asI26
(lp25
I196
aI197
aI198
aI201
aI203
aI209
aI212
aI216
aI217
aI218
aI219
aI220
aI221
aI222
aI223
aI229
aI230
aI247
aI319
asI27
(lp26
I38
aI41
aI42
aI43
aI44
aI46
aI49
aI67
aI74
aI88
aI89
aI90
aI91
aI93
aI94
aI95
aI96
aI97
aI98
aI99
aI100
aI103
aI104
aI105
aI110
aI114
aI115
aI117
aI146
aI148
aI152
aI156
aI157
aI158
aI161
aI196
aI197
aI198
aI201
aI203
aI204
aI211
aI212
aI216
aI217
aI218
aI219
aI220
aI221
aI222
aI223
aI225
aI230
aI232
aI233
aI234
aI246
aI247
aI318
asI28
(lp27
I196
aI197
aI201
aI203
aI204
aI206
aI210
aI212
aI216
aI217
aI218
aI219
aI220
aI221
aI222
aI223
aI230
aI245
aI249
aI259
aI260
aI281
aI282
aI283
aI284
aI285
asI29
(lp28
I196
aI197
aI201
aI203
aI212
aI216
aI217
aI218
aI219
aI220
aI221
aI222
aI223
aI230
asI30
(lp29
I119
aI120
aI121
aI122
aI124
aI128
aI133
aI134
aI136
aI196
aI197
aI198
aI201
aI203
aI204
aI206
aI210
aI212
aI216
aI217
aI218
aI219
aI220
aI221
aI222
aI223
aI224
aI230
aI247
asI31
(lp30
I38
aI41
aI42
aI43
aI44
aI49
aI68
aI73
aI196
aI197
aI198
aI201
aI203
aI212
aI235
aI236
aI237
aI238
aI239
aI240
aI241
aI242
aI246
aI261
aI262
aI263
aI264
aI265
aI300
aI301
asI32
(lp31
I196
aI197
aI201
aI203
aI204
aI206
aI210
aI212
aI216
aI217
aI218
aI219
aI220
aI221
aI222
aI223
aI230
asI33
(lp32
I38
aI41
aI42
aI43
aI44
aI49
aI50
aI51
aI52
aI53
aI60
aI87
aI196
aI197
aI198
aI201
aI203
aI212
aI246
aI251
aI252
aI253
aI254
aI255
aI257
aI266
aI267
aI268
aI296
aI297
asI34
(lp33
I38
aI41
aI42
aI43
aI44
aI49
aI50
aI57
aI58
aI196
aI197
aI198
aI201
aI203
aI212
aI251
aI252
aI253
aI254
aI255
aI257
aI271
aI272
aI273
aI306
aI307
asI35
(lp34
I38
aI39
aI41
aI42
aI43
aI44
aI45
aI49
aI179
aI180
aI183
aI185
aI186
aI187
aI188
aI194
aI195
aI196
aI197
aI198
aI201
aI203
aI204
aI205
aI206
aI210
aI212
aI246
asI36
(lp35
I5
aI6
aI8
aI9
aI11
aI16
aI18
aI19
aI20
aI21
aI22
aI23
aI25
aI31
aI32
aI36
aI37
aI38
aI41
aI42
aI43
aI44
aI49
aI67
aI74
aI196
aI197
aI198
aI199
aI200
aI201
aI203
aI208
aI212
aI213
aI214
aI215
aI216
aI217
aI223
aI230
aI247
aI248
asI37
(lp36
I250
asI38
(lp37
I124
aI127
aI129
aI130
aI133
aI135
aI137
aI144
aI196
aI197
aI198
aI201
aI202
aI203
aI204
aI206
aI207
aI210
aI212
aI216
aI217
aI218
aI219
aI220
aI221
aI222
aI223
aI224
aI230
aI243
aI245
aI247
aI248
asI39
(lp38
I9
aI12
aI15
aI16
aI17
aI37
aI196
aI197
aI198
aI199
aI200
aI201
aI203
aI208
aI212
aI213
aI214
aI215
aI216
aI217
aI218
aI219
aI220
aI221
aI222
aI223
aI230
aI247
aI248
asI40
(lp39
I196
aI197
aI198
aI201
aI203
aI209
aI212
aI216
aI217
aI218
aI219
aI220
aI221
aI222
aI223
aI229
aI230
aI247
aI319
asI41
(lp40
I5
aI6
aI8
aI9
aI11
aI16
aI18
aI19
aI20
aI21
aI22
aI23
aI25
aI26
aI27
aI31
aI32
aI33
aI36
aI37
aI196
aI197
aI198
aI199
aI200
aI201
aI203
aI208
aI212
aI213
aI214
aI215
aI247
aI248
asI42
(lp41
I38
aI41
aI42
aI43
aI44
aI49
aI50
aI57
aI58
aI196
aI197
aI198
aI201
aI203
aI212
aI251
aI252
aI253
aI254
aI255
aI257
aI271
aI272
aI273
aI298
aI299
asI43
(lp42
I118
aI123
aI124
aI125
aI126
aI128
aI196
aI197
aI198
aI201
aI203
aI204
aI205
aI206
aI210
aI212
aI216
aI217
aI218
aI219
aI220
aI221
aI222
aI223
aI224
aI230
aI244
aI247
aI250
asI44
(lp43
I38
aI41
aI42
aI43
aI44
aI46
aI49
aI88
aI90
aI91
aI92
aI93
aI94
aI95
aI96
aI97
aI98
aI99
aI100
aI101
aI102
aI103
aI104
aI105
aI106
aI107
aI108
aI109
aI110
aI111
aI112
aI114
aI115
aI116
aI117
aI145
aI147
aI149
aI150
aI152
aI153
aI154
aI156
aI159
aI160
aI196
aI197
aI198
aI201
aI203
aI204
aI206
aI211
aI212
aI216
aI217
aI218
aI219
aI220
aI221
aI222
aI223
aI225
aI230
aI234
aI246
aI247
aI318
asI45
(lp44
I38
aI41
aI42
aI43
aI44
aI49
aI50
aI59
aI196
aI197
aI198
aI201
aI203
aI212
aI246
aI251
aI252
aI253
aI254
aI255
aI257
aI266
aI267
aI268
aI304
aI305
asI46
(lp45
I317
asI48
(lp46
I38
aI41
aI42
aI43
aI44
aI48
aI196
aI197
aI198
aI201
aI203
aI212
aI246
aI316
asI49
(lp47
I197
aI198
aI201
aI202
aI203
aI204
aI206
aI207
aI210
aI248
asI50
(lp48
I119
aI120
aI121
aI122
aI124
aI128
aI131
aI132
aI133
aI134
aI136
aI140
aI141
aI142
aI143
aI144
aI196
aI197
aI198
aI201
aI203
aI204
aI206
aI210
aI212
aI216
aI217
aI218
aI219
aI220
aI221
aI222
aI223
aI224
aI230
aI244
aI245
aI247
aI250
asI51
(lp49
I38
aI41
aI42
aI43
aI44
aI46
aI49
aI67
aI74
aI88
aI90
aI91
aI92
aI93
aI94
aI95
aI96
aI97
aI98
aI99
aI100
aI101
aI102
aI103
aI104
aI105
aI110
aI114
aI115
aI116
aI117
aI145
aI146
aI147
aI148
aI151
aI152
aI155
aI156
aI157
aI158
aI159
aI160
aI196
aI197
aI198
aI201
aI203
aI204
aI206
aI211
aI212
aI216
aI217
aI218
aI219
aI220
aI221
aI222
aI223
aI225
aI230
aI232
aI233
aI234
aI246
aI247
aI318
asI52
(lp50
I124
aI127
aI133
aI135
aI137
aI144
aI196
aI197
aI198
aI201
aI203
aI204
aI206
aI210
aI212
aI216
aI217
aI218
aI219
aI220
aI221
aI222
aI223
aI224
aI230
aI247
asI53
(lp51
I38
aI41
aI42
aI43
aI44
aI49
aI68
aI69
aI71
aI196
aI197
aI198
aI201
aI203
aI212
aI235
aI236
aI237
aI238
aI239
aI240
aI242
aI246
aI261
aI262
aI263
aI264
aI312
aI313
asI54
(lp52
I38
aI41
aI42
aI43
aI44
aI49
aI50
aI51
aI52
aI54
aI63
aI196
aI197
aI198
aI201
aI203
aI212
aI246
aI251
aI252
aI253
aI254
aI255
aI257
aI266
aI267
aI268
aI308
aI309
asI55
(lp53
I38
aI40
aI41
aI42
aI43
aI44
aI45
aI49
aI179
aI183
aI185
aI186
aI187
aI194
aI195
aI196
aI197
aI198
aI201
aI203
aI204
aI206
aI210
aI212
aI216
aI217
aI223
aI230
aI246
asI56
(lp54
I38
aI41
aI42
aI43
aI44
aI49
aI50
aI51
aI52
aI54
aI55
aI62
aI87
aI196
aI197
aI198
aI201
aI203
aI212
aI246
aI251
aI252
aI253
aI254
aI255
aI257
aI266
aI267
aI268
aI288
aI289
asI57
(lp55
I231
aI232
aI234
aI318
asI58
(lp56
I0
aI4
aI5
aI6
aI7
aI8
aI9
aI11
aI16
aI18
aI19
aI20
aI21
aI22
aI23
aI25
aI26
aI27
aI28
aI29
aI31
aI32
aI34
aI36
aI37
aI38
aI41
aI42
aI43
aI44
aI49
aI79
aI83
aI85
aI86
aI163
aI164
aI165
aI167
aI168
aI170
aI171
aI172
aI173
aI177
aI196
aI197
aI198
aI199
aI200
aI201
aI203
aI208
aI212
aI213
aI214
aI215
aI216
aI217
aI218
aI219
aI220
aI221
aI222
aI223
aI230
aI246
aI247
aI248
aI286
aI287
aI294
aI295
asI59
(lp57
I38
aI39
aI41
aI42
aI43
aI44
aI45
aI49
aI179
aI180
aI183
aI185
aI186
aI187
aI188
aI194
aI195
aI196
aI197
aI198
aI201
aI203
aI204
aI205
aI206
aI210
aI212
aI246
asI61
(lp58
I119
aI120
aI121
aI122
aI124
aI127
aI128
aI133
aI134
aI136
aI144
aI196
aI197
aI198
aI201
aI203
aI204
aI206
aI210
aI212
aI216
aI217
aI218
aI219
aI220
aI221
aI222
aI223
aI224
aI230
aI247
asI62
(lp59
I38
aI41
aI42
aI43
aI44
aI49
aI68
aI69
aI70
aI72
aI196
aI197
aI198
aI201
aI203
aI212
aI235
aI236
aI237
aI238
aI239
aI240
aI242
aI246
aI261
aI262
aI263
aI264
aI302
aI303
asI63
(lp60
I124
aI128
aI133
aI135
aI137
aI196
aI197
aI198
aI201
aI203
aI210
aI216
aI224
aI247
asI64
(lp61
I0
aI4
aI5
aI6
aI7
aI8
aI9
aI11
aI16
aI18
aI19
aI20
aI21
aI22
aI23
aI25
aI26
aI27
aI28
aI29
aI31
aI32
aI34
aI36
aI37
aI38
aI41
aI42
aI43
aI44
aI49
aI85
aI162
aI163
aI164
aI165
aI166
aI167
aI168
aI172
aI173
aI196
aI197
aI198
aI199
aI200
aI201
aI203
aI208
aI212
aI213
aI214
aI215
aI216
aI217
aI223
aI230
aI246
aI247
aI248
aI294
aI295
asI65
(lp62
I38
aI41
aI42
aI43
aI44
aI49
aI50
aI51
aI52
aI54
aI63
aI196
aI197
aI198
aI201
aI203
aI212
aI246
aI251
aI252
aI253
aI254
aI255
aI256
aI258
aI269
aI270
aI308
aI309
asI66
(lp63
I38
aI41
aI42
aI43
aI44
aI49
aI76
aI77
aI81
aI163
aI164
aI165
aI167
aI168
aI170
aI171
aI173
aI177
aI196
aI197
aI198
aI199
aI200
aI201
aI203
aI208
aI212
aI246
aI248
aI286
aI287
asI67
(lp64
I38
aI41
aI42
aI43
aI44
aI49
aI50
aI56
aI57
aI64
aI196
aI197
aI198
aI201
aI203
aI212
aI246
aI251
aI252
aI253
aI254
aI255
aI257
aI271
aI272
aI273
aI310
aI311
asI68
(lp65
I38
aI41
aI42
aI43
aI44
aI49
aI67
aI68
aI72
aI74
aI196
aI197
aI198
aI201
aI203
aI212
aI216
aI217
aI218
aI219
aI220
aI221
aI222
aI223
aI230
aI236
aI237
aI238
aI239
aI240
aI241
aI242
aI246
aI261
aI263
aI264
aI302
aI303
asI70
(lp66
I38
aI39
aI40
aI41
aI42
aI43
aI44
aI45
aI49
aI119
aI121
aI122
aI124
aI128
aI133
aI134
aI136
aI179
aI183
aI186
aI187
aI188
aI195
aI196
aI197
aI198
aI201
aI203
aI204
aI205
aI206
aI210
aI212
aI216
aI217
aI218
aI219
aI220
aI221
aI222
aI223
aI224
aI230
aI246
aI247
asI72
(lp67
I196
aI197
aI198
aI201
aI203
aI212
aI216
aI217
aI218
aI219
aI220
aI221
aI222
aI223
aI229
aI230
aI247
aI319
asI73
(lp68
I38
aI41
aI42
aI43
aI44
aI49
aI75
aI78
aI82
aI163
aI164
aI165
aI167
aI168
aI170
aI172
aI173
aI174
aI175
aI176
aI178
aI196
aI197
aI198
aI199
aI200
aI201
aI203
aI208
aI212
aI246
aI248
aI292
aI293
asI74
(lp69
I38
aI41
aI42
aI43
aI44
aI49
aI80
aI163
aI164
aI165
aI167
aI168
aI172
aI173
aI196
aI197
aI198
aI199
aI200
aI201
aI203
aI208
aI212
aI246
aI248
aI290
aI291
asI75
(lp70
I38
aI40
aI41
aI42
aI43
aI44
aI45
aI49
aI179
aI183
aI185
aI186
aI187
aI194
aI195
aI196
aI197
aI198
aI201
aI203
aI204
aI206
aI210
aI212
aI216
aI217
aI223
aI230
aI246
asI76
(lp71
I124
aI127
aI133
aI136
aI144
aI196
aI197
aI198
aI201
aI203
aI204
aI206
aI210
aI212
aI216
aI217
aI218
aI219
aI220
aI221
aI222
aI223
aI224
aI230
aI247
asI77
(lp72
I38
aI41
aI45
aI49
aI180
aI185
aI186
aI193
aI195
aI196
aI197
aI198
aI201
aI203
aI204
aI206
aI210
aI212
aI246
asI78
(lp73
I196
aI197
aI198
aI201
aI203
aI212
aI216
aI217
aI218
aI226
aI247
asI79
(lp74
I119
aI121
aI122
aI124
aI128
aI133
aI134
aI136
aI196
aI197
aI198
aI201
aI203
aI210
aI212
aI216
aI217
aI223
aI224
aI230
aI247
asI80
(lp75
I38
aI41
aI42
aI43
aI44
aI49
aI50
aI56
aI66
aI196
aI197
aI198
aI201
aI203
aI212
aI246
aI251
aI252
aI253
aI254
aI255
aI256
aI258
aI274
aI275
aI306
aI307
as.