(dp0
I1
(lp1
I69
aI70
aI71
aI72
aI73
aI74
aI75
aI76
aI77
aI78
aI79
aI80
aI81
aI82
aI83
aI85
aI86
aI87
aI88
aI89
aI90
aI91
aI93
aI104
aI111
aI113
aI114
aI115
aI116
aI117
aI119
aI120
aI121
aI122
aI123
aI124
aI126
aI128
aI129
aI130
aI131
aI133
aI134
aI135
aI136
aI143
aI148
aI153
aI154
aI164
aI169
aI170
aI171
aI172
aI176
aI220
aI222
aI223
aI224
aI225
aI226
aI227
aI229
aI233
aI234
aI235
aI244
aI245
aI246
aI247
aI248
aI249
aI250
aI252
aI253
aI254
aI255
aI256
aI257
aI258
aI259
aI260
aI261
aI263
aI264
aI265
aI276
aI277
aI278
aI279
aI281
aI282
aI283
aI284
aI285
aI286
aI287
aI289
aI290
aI292
aI293
aI294
aI295
aI296
aI298
aI302
aI303
aI304
aI305
aI306
aI307
aI308
aI334
aI335
asI2
(lp2
I21
aI22
aI24
aI25
aI26
aI27
aI28
aI29
aI30
aI31
aI32
aI34
aI36
aI37
aI40
aI41
aI42
aI43
aI45
aI46
aI47
aI48
aI50
aI51
aI52
aI53
aI54
aI55
aI56
aI57
aI59
aI60
aI61
aI62
aI63
aI64
aI65
aI66
aI67
aI69
aI70
aI71
aI72
aI73
aI74
aI75
aI76
aI77
aI78
aI79
aI80
aI81
aI82
aI83
aI85
asI3
(lp3
I94
aI95
aI96
aI100
aI101
aI105
aI106
aI164
aI165
aI170
aI253
aI263
aI265
aI334
aI335
asI4
(lp4
I69
aI70
aI71
aI72
aI73
aI74
aI75
aI76
aI77
aI78
aI79
aI80
aI81
aI82
aI83
aI85
aI86
aI88
aI89
aI90
aI119
aI122
aI123
aI143
aI147
aI148
aI153
aI154
aI157
aI164
aI170
aI172
aI220
aI229
aI230
aI231
aI244
aI245
aI246
aI247
aI248
aI249
aI251
aI252
aI253
aI254
aI255
aI256
aI257
aI258
aI259
aI260
aI261
aI263
aI264
aI265
aI295
aI296
aI298
aI302
aI303
aI305
aI306
aI307
aI308
aI334
aI335
asI5
(lp5
I21
aI22
aI23
aI24
aI25
aI26
aI27
aI28
aI29
aI69
aI70
aI71
aI72
aI73
aI74
aI75
aI76
aI77
aI78
aI79
aI80
aI81
aI82
aI83
aI84
aI85
asI6
(lp6
I69
aI70
aI75
aI85
asI7
(lp7
I69
aI70
aI71
aI72
aI73
aI74
aI75
aI76
aI77
aI78
aI79
aI80
aI81
aI82
aI83
aI85
aI86
aI88
aI89
aI90
aI109
aI119
aI122
aI123
aI127
aI142
aI143
aI149
aI158
aI164
aI166
aI170
aI172
aI220
aI229
aI230
aI231
aI239
aI241
aI243
aI244
aI245
aI246
aI247
aI248
aI249
aI250
aI251
aI252
aI253
aI254
aI255
aI256
aI257
aI258
aI259
aI260
aI261
aI263
aI264
aI265
aI295
aI296
aI298
aI302
aI303
aI305
aI306
aI307
aI308
aI334
aI335
asI8
(lp8
I69
aI70
aI71
aI72
aI73
aI74
aI75
aI76
aI77
aI78
aI79
aI80
aI81
aI82
aI83
aI85
aI86
aI87
aI88
aI89
aI90
aI91
aI93
aI111
aI112
aI113
aI114
aI115
aI116
aI117
aI119
aI120
aI121
aI122
aI123
aI124
aI126
aI128
aI129
aI130
aI131
aI133
aI134
aI135
aI136
aI143
aI148
aI153
aI154
aI164
aI169
aI170
aI171
aI172
aI176
aI220
aI222
aI223
aI224
aI225
aI226
aI227
aI229
aI233
aI234
aI235
aI244
aI245
aI246
aI247
aI248
aI249
aI250
aI252
aI253
aI254
aI255
aI256
aI257
aI258
aI259
aI260
aI261
aI263
aI264
aI265
aI276
aI277
aI278
aI279
aI281
aI282
aI283
aI284
aI285
aI286
aI287
aI289
aI290
aI292
aI293
aI294
aI295
aI296
aI298
aI302
aI303
aI304
aI305
aI306
aI307
aI308
aI334
aI335
asI9
(lp9
I111
aI116
aI117
aI119
aI122
aI123
aI126
aI222
aI223
aI224
aI227
aI244
aI245
aI246
aI247
aI248
aI265
aI276
aI277
aI278
aI279
aI281
aI282
aI283
aI284
aI286
aI287
asI10
(lp10
I21
aI22
aI23
aI24
aI25
aI26
aI27
aI28
aI29
aI30
aI31
aI32
aI33
aI34
aI35
aI36
aI37
aI38
aI39
aI40
aI44
aI45
aI46
aI47
aI48
aI49
aI51
aI52
aI53
aI56
aI57
aI58
aI59
aI60
aI61
aI62
aI63
aI65
aI67
aI69
aI70
aI71
aI72
aI73
aI74
aI75
aI76
aI77
aI78
aI79
aI80
aI81
aI82
aI83
aI85
asI11
(lp11
I102
aI103
aI119
aI122
aI123
aI161
aI163
aI164
aI170
aI244
aI245
aI246
aI247
aI248
aI249
aI250
aI251
aI252
aI253
aI254
aI261
aI262
aI263
aI264
aI265
aI334
aI335
asI12
(lp12
I69
aI70
aI71
aI72
aI73
aI74
aI75
aI76
aI77
aI78
aI79
aI80
aI81
aI82
aI83
aI85
aI86
aI87
aI88
aI89
aI90
aI111
aI116
aI117
aI118
aI143
aI146
aI148
aI153
aI154
aI164
aI170
aI172
aI220
aI222
aI223
aI224
aI225
aI226
aI227
aI228
aI229
aI230
aI231
aI233
aI235
aI249
aI251
aI253
aI254
aI255
aI256
aI257
aI262
aI263
aI264
aI265
aI276
aI277
aI280
aI281
aI282
aI283
aI284
aI285
aI288
aI289
aI295
aI296
aI298
aI299
aI300
aI301
aI302
aI303
aI304
aI305
aI306
aI307
aI308
aI334
aI335
asI13
(lp13
I69
aI70
aI71
aI72
aI73
aI74
aI75
aI76
aI77
aI78
aI79
aI80
aI81
aI82
aI83
aI85
aI86
aI88
aI89
aI90
aI109
aI110
aI111
aI116
aI117
aI118
aI119
aI122
aI123
aI127
aI141
aI143
aI148
aI149
aI150
aI151
aI152
aI153
aI154
aI220
aI228
aI229
aI230
aI231
aI236
aI237
aI238
aI239
aI240
aI241
aI242
aI244
aI245
aI246
aI247
aI248
aI249
aI250
aI251
aI254
aI255
aI256
aI257
aI265
aI276
aI277
aI281
aI282
aI283
aI284
aI285
aI289
aI295
aI296
aI298
aI302
aI303
aI304
aI305
aI306
aI307
aI308
aI309
asI14
(lp14
I69
aI70
aI71
aI72
aI73
aI74
aI75
aI76
aI77
aI78
aI79
aI80
aI81
aI82
aI83
aI85
aI86
aI88
aI89
aI90
aI91
aI93
aI111
aI116
aI117
aI133
aI134
aI136
aI143
aI148
aI153
aI154
aI160
aI220
aI222
aI223
aI224
aI225
aI226
aI227
aI229
aI230
aI231
aI232
aI233
aI235
aI249
aI250
aI251
aI254
aI255
aI256
aI257
aI265
aI276
aI277
aI281
aI282
aI283
aI284
aI285
aI289
aI295
aI296
aI298
aI302
aI303
aI304
aI305
aI306
aI307
aI308
asI15
(lp15
I69
aI70
aI71
aI72
aI73
aI74
aI75
aI76
aI77
aI78
aI79
aI80
aI81
aI82
aI83
aI85
aI86
aI88
aI89
aI90
aI111
aI116
aI117
aI118
aI119
aI122
aI123
aI140
aI143
aI146
aI147
aI148
aI153
aI154
aI156
aI164
aI170
aI172
aI220
aI222
aI223
aI224
aI227
aI228
aI229
aI230
aI231
aI244
aI245
aI246
aI247
aI248
aI249
aI251
aI252
aI253
aI254
aI255
aI256
aI257
aI258
aI259
aI260
aI261
aI263
aI264
aI265
aI276
aI281
aI282
aI289
aI295
aI296
aI298
aI301
aI302
aI303
aI305
aI306
aI307
aI308
aI334
aI335
asI16
(lp16
I69
aI70
aI71
aI72
aI73
aI74
aI75
aI76
aI77
aI78
aI79
aI80
aI81
aI82
aI83
aI85
aI86
aI87
aI88
aI89
aI90
aI91
aI93
aI107
aI108
aI113
aI126
aI128
aI129
aI130
aI133
aI134
aI135
aI136
aI143
aI148
aI153
aI154
aI164
aI170
aI171
aI172
aI220
aI222
aI223
aI224
aI225
aI226
aI227
aI229
aI233
aI234
aI235
aI249
aI250
aI251
aI252
aI253
aI254
aI255
aI256
aI257
aI258
aI259
aI260
aI261
aI263
aI264
aI265
aI290
aI291
aI295
aI296
aI298
aI302
aI303
aI304
aI305
aI306
aI307
aI308
aI334
aI335
aI340
aI341
aI342
aI343
asI17
(lp17
I69
aI70
aI71
aI72
aI73
aI74
aI75
aI76
aI77
aI78
aI79
aI80
aI81
aI82
aI83
aI85
aI86
aI87
aI88
aI89
aI90
aI91
aI92
aI93
aI99
aI111
aI116
aI117
aI126
aI133
aI134
aI136
aI137
aI139
aI143
aI144
aI145
aI148
aI153
aI154
aI155
aI161
aI220
aI221
aI222
aI223
aI224
aI225
aI226
aI227
aI228
aI229
aI233
aI234
aI235
aI249
aI250
aI251
aI253
aI254
aI255
aI256
aI257
aI262
aI263
aI264
aI265
aI276
aI277
aI279
aI281
aI282
aI283
aI284
aI285
aI287
aI289
aI295
aI296
aI298
aI302
aI303
aI304
aI305
aI306
aI307
aI308
aI318
aI319
aI320
aI321
aI322
aI323
aI324
asI18
(lp18
I74
aI85
asI19
(lp19
I178
aI179
aI187
aI188
aI189
aI190
aI191
aI192
aI193
aI194
aI195
aI196
aI197
aI198
aI199
aI200
aI201
aI202
aI203
aI204
aI205
aI206
aI207
aI208
aI209
aI210
aI211
aI212
aI213
aI214
aI215
aI216
aI217
aI218
aI219
asI20
(lp20
I75
aI85
asI21
(lp21
I69
aI70
aI71
aI72
aI73
aI74
aI75
aI76
aI77
aI78
aI79
aI80
aI81
aI82
aI83
aI85
aI86
aI88
aI89
aI90
aI97
aI98
aI99
aI109
aI111
aI116
aI117
aI118
aI119
aI122
aI123
aI127
aI143
aI164
aI166
aI170
aI172
aI220
aI222
aI223
aI224
aI227
aI229
aI230
aI231
aI244
aI245
aI246
aI247
aI248
aI253
aI254
aI255
aI257
aI263
aI265
aI275
aI276
aI277
aI279
aI281
aI282
aI284
aI287
aI295
aI296
aI298
aI302
aI303
aI305
aI306
aI307
aI308
aI334
aI335
asI23
(lp22
I83
aI84
aI85
asI24
(lp23
I69
aI70
aI71
aI72
aI73
aI74
aI75
aI76
aI77
aI78
aI79
aI80
aI81
aI82
aI83
aI85
aI86
aI88
aI89
aI90
aI91
aI93
aI111
aI116
aI117
aI119
aI122
aI123
aI133
aI134
aI136
aI138
aI143
aI147
aI148
aI153
aI154
aI157
aI161
aI162
aI164
aI170
aI172
aI220
aI222
aI223
aI224
aI225
aI226
aI227
aI229
aI233
aI235
aI244
aI245
aI246
aI247
aI248
aI249
aI250
aI251
aI252
aI253
aI254
aI255
aI256
aI257
aI258
aI259
aI260
aI261
aI263
aI264
aI265
aI277
aI281
aI282
aI283
aI284
aI285
aI289
aI296
aI297
aI298
aI302
aI303
aI304
aI305
aI306
aI307
aI308
aI334
aI335
asI25
(lp24
I113
aI119
aI120
aI121
aI122
aI123
aI124
aI128
aI129
aI130
aI133
aI135
aI164
aI170
aI171
aI172
aI244
aI245
aI246
aI247
aI248
aI250
aI252
aI253
aI254
aI258
aI259
aI260
aI261
aI263
aI264
aI265
aI274
aI290
aI334
aI335
asI26
(lp25
I21
aI22
aI23
aI24
aI25
aI26
aI27
aI28
aI29
aI30
aI68
aI69
aI70
aI71
aI72
aI73
aI74
aI75
aI76
aI77
aI78
aI79
aI80
aI81
aI82
aI83
aI84
aI85
asI27
(lp26
I69
aI70
aI71
aI72
aI73
aI74
aI75
aI76
aI77
aI78
aI79
aI80
aI81
aI82
aI83
aI85
aI86
aI87
aI88
aI89
aI90
aI91
aI93
aI111
aI116
aI117
aI119
aI122
aI123
aI126
aI133
aI134
aI136
aI143
aI148
aI153
aI154
aI220
aI222
aI223
aI224
aI225
aI226
aI227
aI229
aI233
aI234
aI235
aI244
aI245
aI246
aI247
aI248
aI249
aI250
aI251
aI254
aI255
aI256
aI257
aI265
aI276
aI277
aI278
aI279
aI281
aI282
aI283
aI284
aI285
aI286
aI287
aI289
aI295
aI296
aI298
aI302
aI303
aI304
aI305
aI306
aI307
aI308
asI28
(lp27
I266
aI267
aI268
aI269
aI270
aI271
aI272
aI273
aI310
aI311
aI312
aI313
aI314
aI315
aI316
aI317
aI325
aI326
aI327
aI328
aI329
aI330
aI331
aI332
aI333
aI336
aI337
aI338
aI339
asI29
(lp28
I68
aI69
aI70
aI71
aI72
aI73
aI74
aI75
aI76
aI77
aI78
aI79
aI80
aI81
aI82
aI84
aI85
asI30
(lp29
I0
aI1
aI2
aI3
aI4
aI5
aI6
aI7
aI8
aI9
aI10
aI11
aI12
aI13
aI14
aI15
aI16
aI17
aI18
aI19
aI20
aI69
aI70
aI71
aI72
aI73
aI74
aI75
aI76
aI77
aI78
aI79
aI80
aI81
aI82
aI83
aI84
aI85
asI31
(lp30
I69
aI70
aI71
aI72
aI73
aI74
aI75
aI76
aI77
aI78
aI79
aI80
aI81
aI82
aI83
aI85
aI86
aI88
aI89
aI90
aI91
aI93
aI111
aI116
aI117
aI119
aI122
aI123
aI126
aI133
aI134
aI135
aI136
aI143
aI146
aI148
aI153
aI154
aI170
aI172
aI220
aI222
aI223
aI224
aI225
aI226
aI227
aI228
aI229
aI233
aI235
aI244
aI245
aI246
aI247
aI248
aI249
aI250
aI251
aI252
aI253
aI254
aI255
aI256
aI257
aI258
aI259
aI260
aI261
aI264
aI265
aI276
aI277
aI279
aI281
aI282
aI283
aI284
aI285
aI287
aI289
aI295
aI296
aI298
aI301
aI302
aI303
aI304
aI305
aI306
aI307
aI308
asI32
(lp31
I31
aI32
aI33
aI34
aI35
aI36
aI37
aI38
aI39
aI40
aI69
aI70
aI71
aI72
aI73
aI74
aI75
aI76
aI77
aI78
aI79
aI80
aI81
aI82
aI83
aI84
aI85
asI33
(lp32
I132
aI159
aI179
aI180
aI181
aI182
aI183
aI184
aI185
aI186
aI265
asI34
(lp33
I69
aI70
aI71
aI72
aI73
aI74
aI75
aI76
aI77
aI78
aI79
aI80
aI81
aI82
aI83
aI85
aI86
aI88
aI89
aI90
aI111
aI117
aI119
aI123
aI125
aI126
aI128
aI129
aI130
aI131
aI133
aI135
aI143
aI148
aI149
aI150
aI151
aI152
aI153
aI154
aI162
aI164
aI167
aI168
aI169
aI170
aI172
aI173
aI174
aI175
aI176
aI177
aI220
aI222
aI223
aI224
aI225
aI226
aI227
aI229
aI230
aI231
aI233
aI234
aI235
aI236
aI237
aI238
aI239
aI240
aI241
aI242
aI243
aI244
aI245
aI246
aI247
aI248
aI249
aI250
aI252
aI253
aI254
aI255
aI256
aI257
aI258
aI259
aI260
aI261
aI262
aI263
aI264
aI265
aI276
aI277
aI279
aI281
aI282
aI283
aI284
aI285
aI287
aI289
aI290
aI293
aI294
aI295
aI296
aI297
aI298
aI302
aI303
aI304
aI305
aI306
aI307
aI308
aI309
aI334
aI335
as.