(dp0
I1
(lp1
I346
aI356
aI485
aI498
aI749
aI751
aI753
aI754
asI2
(lp2
I378
asI3
(lp3
I446
aI448
asI4
(lp4
I425
asI5
(lp5
I296
aI306
aI307
aI317
asI6
(lp6
I608
aI609
aI610
asI7
(lp7
I634
aI635
aI636
aI637
aI639
asI8
(lp8
I386
aI444
asI9
(lp9
I346
aI356
aI396
aI397
asI10
(lp10
I162
aI163
aI203
aI215
aI228
aI230
aI239
aI256
aI257
aI258
aI259
aI260
aI267
aI268
aI282
aI290
aI291
aI294
aI295
aI556
aI558
aI743
aI745
aI746
aI820
asI11
(lp11
I572
asI12
(lp12
I697
aI698
aI699
aI702
asI13
(lp13
I817
asI14
(lp14
I162
aI163
aI203
aI215
aI239
aI282
aI556
asI15
(lp15
I296
aI306
aI307
asI16
(lp16
I296
aI306
aI307
asI17
(lp17
I806
aI807
aI820
aI827
asI18
(lp18
I414
asI19
(lp19
I296
aI301
aI306
aI307
aI525
aI541
aI542
asI20
(lp20
I346
aI356
aI463
asI21
(lp21
I819
aI820
aI830
asI22
(lp22
I420
asI23
(lp23
I296
aI301
aI305
aI306
aI307
aI309
aI310
aI312
aI506
aI525
asI24
(lp24
I387
aI389
aI390
aI391
aI392
aI397
aI403
aI404
aI405
aI409
asI25
(lp25
I397
aI440
asI26
(lp26
I417
aI418
asI27
(lp27
I572
aI821
asI28
(lp28
I346
aI356
aI489
aI502
aI712
aI713
aI714
aI715
aI718
asI29
(lp29
I179
aI183
aI184
aI185
aI186
aI188
aI189
aI190
aI191
aI192
aI203
aI204
aI208
aI209
aI210
aI212
aI233
aI235
aI236
aI239
aI252
aI253
aI254
aI255
aI259
aI260
aI267
aI268
aI290
aI291
aI294
aI295
aI523
aI524
aI666
aI667
aI668
aI669
aI670
aI671
aI672
aI673
aI676
aI710
aI711
aI820
asI30
(lp30
I625
aI631
aI632
aI633
asI31
(lp31
I346
aI356
aI487
aI500
aI677
aI678
aI679
aI681
asI32
(lp32
I638
aI639
aI640
asI33
(lp33
I387
aI389
aI390
aI392
aI403
aI404
aI405
aI410
asI34
(lp34
I301
aI305
aI306
aI307
asI35
(lp35
I393
aI394
aI412
asI36
(lp36
I296
aI306
aI307
asI37
(lp37
I346
aI356
aI491
aI504
aI609
aI611
aI612
aI613
aI616
asI38
(lp38
I296
aI297
aI304
aI305
aI306
aI307
aI308
aI525
aI543
asI39
(lp39
I346
aI356
aI461
aI819
aI820
aI831
asI40
(lp40
I296
aI297
aI302
aI306
aI307
aI308
aI309
aI310
aI312
aI313
aI327
aI333
aI506
aI525
aI526
aI544
aI682
aI683
aI684
aI685
aI686
aI687
aI688
aI689
aI690
aI691
asI41
(lp41
I296
aI304
aI305
aI306
aI307
aI321
aI594
aI595
aI596
aI597
aI598
asI42
(lp42
I576
aI577
aI578
asI43
(lp43
I296
aI297
aI301
aI304
aI305
aI306
aI307
aI308
aI525
aI526
aI529
aI530
aI531
aI543
aI545
asI44
(lp44
I346
aI356
aI480
aI493
aI634
aI635
aI637
asI45
(lp45
I806
aI807
aI820
aI822
asI46
(lp46
I296
aI301
aI306
aI307
aI316
asI47
(lp47
I816
asI48
(lp48
I296
aI306
aI307
aI324
aI326
asI49
(lp49
I806
aI807
aI820
aI823
asI50
(lp50
I625
aI631
aI632
aI633
asI51
(lp51
I346
aI356
aI473
asI52
(lp52
I301
aI306
aI307
aI529
aI530
aI531
aI545
asI53
(lp53
I439
asI54
(lp54
I296
aI306
aI307
asI55
(lp55
I546
aI547
aI548
aI549
aI550
aI551
aI552
aI553
aI554
asI56
(lp56
I572
aI808
asI57
(lp57
I776
asI58
(lp58
I767
aI768
aI769
aI770
aI771
asI59
(lp59
I346
aI356
aI483
aI496
aI735
aI737
aI810
aI811
aI819
aI820
asI60
(lp60
I608
aI609
aI610
aI761
asI61
(lp61
I617
aI762
aI763
aI764
aI765
asI62
(lp62
I416
aI800
asI63
(lp63
I346
aI356
aI467
aI666
aI667
aI668
aI669
aI670
aI671
aI672
aI673
aI674
aI675
aI676
asI64
(lp64
I170
aI182
aI183
aI184
aI185
aI186
aI188
aI189
aI190
aI191
aI192
aI203
aI208
aI210
aI215
aI239
aI252
aI253
aI254
aI255
aI286
aI524
aI617
aI666
aI667
aI668
aI669
aI670
aI671
aI672
aI673
aI676
asI65
(lp65
I663
aI664
aI665
asI66
(lp66
I395
asI67
(lp67
I296
aI304
aI305
aI306
aI307
aI328
asI68
(lp68
I296
aI306
aI307
aI319
aI320
aI325
aI774
aI775
asI69
(lp69
I625
aI631
aI632
aI633
asI70
(lp70
I368
asI71
(lp71
I296
aI306
aI307
asI72
(lp72
I572
aI791
asI73
(lp73
I170
aI179
aI181
aI182
aI193
aI195
aI203
aI208
aI210
aI212
aI215
aI233
aI235
aI236
aI239
aI256
aI259
aI260
aI267
aI268
aI286
aI290
aI291
aI294
aI295
aI523
aI524
aI617
aI710
aI711
aI766
aI820
asI74
(lp74
I296
aI301
aI304
aI305
aI306
aI307
asI75
(lp75
I296
aI306
aI307
aI338
aI339
aI340
aI341
aI342
aI343
aI344
aI346
aI347
aI356
aI357
aI358
aI359
aI360
aI368
aI369
aI372
aI373
aI567
aI592
aI644
aI645
aI646
aI647
aI648
aI649
aI650
aI651
asI76
(lp76
I572
aI812
asI77
(lp77
I296
aI304
aI305
aI306
aI307
aI311
asI78
(lp78
I441
asI79
(lp79
I375
aI387
aI388
aI389
aI403
aI406
asI80
(lp80
I419
aI420
aI421
asI81
(lp81
I306
aI307
aI545
asI82
(lp82
I346
aI356
aI481
aI494
aI656
aI659
asI83
(lp83
I306
aI307
aI540
asI84
(lp84
I152
aI153
aI174
aI175
aI176
aI177
aI178
aI179
aI180
aI193
aI194
aI195
aI196
aI203
aI205
aI208
aI209
aI210
aI211
aI212
aI213
aI214
aI216
aI220
aI222
aI224
aI225
aI233
aI235
aI236
aI239
aI246
aI247
aI248
aI249
aI256
aI259
aI260
aI261
aI262
aI267
aI268
aI285
aI289
aI290
aI291
aI292
aI293
aI294
aI295
aI521
aI522
aI523
aI524
aI587
aI588
aI589
aI692
aI695
aI696
aI711
aI732
aI814
aI819
aI820
asI85
(lp85
I346
aI356
aI452
asI86
(lp86
I346
aI356
aI478
asI87
(lp87
I800
asI88
(lp88
I0
aI1
aI2
aI3
aI4
aI5
aI6
aI7
aI8
aI9
aI10
aI11
aI12
aI13
aI14
aI15
aI16
aI17
aI18
aI19
aI20
aI21
aI22
aI23
aI24
aI25
aI26
aI27
aI28
aI29
aI30
aI31
aI32
aI33
aI34
aI35
aI36
aI37
aI38
aI39
aI40
aI41
aI42
aI43
aI44
aI45
aI46
aI47
aI48
aI49
aI50
aI51
aI52
aI53
aI54
aI55
aI56
aI57
aI58
aI59
aI60
aI61
aI62
aI63
aI64
aI65
aI66
aI67
aI68
aI69
aI70
aI71
aI72
aI73
aI74
aI75
aI76
aI77
aI78
aI79
aI80
aI81
aI82
aI83
aI84
aI85
aI86
aI87
aI88
aI89
aI90
aI91
aI92
aI93
aI94
aI95
aI96
aI97
aI98
aI99
aI100
aI101
aI102
aI103
aI104
aI105
aI106
aI107
aI108
aI109
aI110
aI111
aI112
aI113
aI114
aI115
aI116
aI117
aI118
aI119
aI120
aI121
aI122
aI123
aI124
aI125
aI126
aI127
aI128
aI129
aI130
aI131
aI132
aI133
aI134
aI135
aI136
aI137
aI138
aI139
aI140
aI141
aI142
aI782
aI783
aI784
aI785
asI89
(lp89
I806
aI807
aI820
aI825
asI90
(lp90
I572
aI818
asI91
(lp91
I386
aI443
asI92
(lp92
I346
aI356
aI466
asI93
(lp93
I777
aI778
aI779
aI780
aI781
asI94
(lp94
I677
aI678
aI679
aI681
asI95
(lp95
I296
aI297
aI301
aI306
aI307
aI308
aI314
aI329
aI525
aI594
aI595
aI597
aI599
aI600
asI96
(lp96
I346
aI356
aI455
aI484
aI497
aI546
aI550
aI554
asI97
(lp97
I619
aI620
aI621
aI622
aI623
aI624
aI626
aI627
aI628
aI629
aI630
aI631
aI632
aI633
asI98
(lp98
I296
aI306
aI307
asI99
(lp99
I601
aI602
aI603
aI604
aI605
aI606
aI607
asI100
(lp100
I168
aI169
aI170
aI198
aI203
aI208
aI210
aI239
aI256
aI257
aI258
aI259
aI260
aI267
aI268
aI269
aI272
aI273
aI276
aI277
aI278
aI279
aI290
aI291
aI294
aI295
aI524
aI660
aI661
aI662
aI793
aI794
aI819
aI820
asI101
(lp101
I568
asI102
(lp102
I393
aI394
aI427
asI103
(lp103
I346
aI356
aI468
aI778
aI780
aI781
asI104
(lp104
I564
aI565
aI566
asI105
(lp105
I296
aI306
aI307
aI832
asI106
(lp106
I387
aI389
aI390
aI391
aI392
aI397
aI403
aI406
aI407
aI411
asI107
(lp107
I296
aI297
aI301
aI306
aI307
aI308
aI314
aI329
aI594
aI595
aI597
aI599
aI600
asI108
(lp108
I422
aI423
aI424
asI109
(lp109
I654
aI655
aI656
aI657
aI658
aI659
asI110
(lp110
I296
aI298
aI304
aI305
aI306
aI307
aI322
aI535
aI539
aI540
asI111
(lp111
I430
asI112
(lp112
I296
aI299
aI303
aI306
aI307
asI113
(lp113
I663
asI114
(lp114
I574
asI115
(lp115
I374
aI375
aI398
aI437
asI116
(lp116
I365
asI117
(lp117
I721
aI722
aI723
aI725
asI118
(lp118
I346
aI356
aI486
aI499
asI119
(lp119
I346
aI356
aI450
aI451
aI453
aI456
aI457
asI120
(lp120
I155
aI156
aI157
aI158
aI159
aI160
aI161
aI203
aI216
aI217
aI218
aI219
aI220
aI221
aI222
aI223
aI224
aI239
aI259
aI260
aI261
aI262
aI264
aI267
aI268
aI727
aI728
aI729
aI730
aI731
aI732
aI733
aI810
aI811
aI819
aI820
asI121
(lp121
I152
aI170
aI171
aI172
aI173
aI179
aI182
aI183
aI184
aI185
aI186
aI188
aI189
aI190
aI191
aI192
aI193
aI194
aI195
aI196
aI203
aI208
aI210
aI212
aI215
aI231
aI232
aI233
aI234
aI235
aI236
aI237
aI239
aI246
aI247
aI248
aI249
aI251
aI252
aI253
aI254
aI255
aI259
aI260
aI261
aI262
aI264
aI267
aI268
aI290
aI291
aI294
aI295
aI521
aI523
aI524
aI587
aI588
aI589
aI617
aI618
aI666
aI667
aI668
aI669
aI670
aI671
aI672
aI673
aI676
aI680
aI681
aI710
aI711
aI819
aI820
asI122
(lp122
I570
aI571
asI123
(lp123
I399
aI400
aI401
asI124
(lp124
I193
aI194
aI195
aI203
aI239
aI257
aI258
aI264
aI267
aI268
aI819
aI820
asI125
(lp125
I296
aI299
aI300
aI306
aI307
asI126
(lp126
I413
aI414
aI415
asI127
(lp127
I346
aI356
aI374
aI375
asI128
(lp128
I296
aI306
aI307
aI309
aI310
aI312
aI313
aI315
aI333
aI506
aI525
aI538
asI129
(lp129
I652
aI653
asI130
(lp130
I162
aI163
aI165
aI167
aI203
aI215
aI239
aI256
aI259
aI260
aI267
aI268
aI282
aI284
aI290
aI291
aI294
aI295
aI555
aI556
aI752
aI753
aI754
aI820
asI131
(lp131
I143
aI144
aI145
aI146
aI147
aI148
aI149
aI150
aI151
aI156
aI157
aI158
aI160
aI161
aI183
aI184
aI185
aI186
aI188
aI189
aI190
aI191
aI192
aI216
aI218
aI220
aI221
aI222
aI223
aI239
aI246
aI247
aI248
aI249
aI251
aI252
aI253
aI254
aI255
aI259
aI260
aI261
aI262
aI263
aI264
aI265
aI266
aI267
aI268
aI269
aI272
aI273
aI276
aI277
aI278
aI279
aI280
aI281
aI283
aI290
aI291
aI294
aI295
aI639
aI641
aI642
aI643
aI666
aI667
aI668
aI669
aI670
aI671
aI672
aI673
aI676
aI728
aI730
aI731
aI732
aI793
aI794
aI798
aI799
aI811
aI820
asI132
(lp132
I296
aI305
aI306
aI307
aI525
aI543
asI133
(lp133
I183
aI184
aI185
aI186
aI187
aI188
aI189
aI190
aI191
aI192
aI203
aI239
aI250
aI251
aI252
aI253
aI254
aI255
aI287
aI288
aI666
aI667
aI668
aI669
aI670
aI671
aI672
aI673
aI675
aI676
asI134
(lp134
I579
aI580
aI581
aI582
aI583
aI584
aI585
aI587
asI135
(lp135
I747
aI748
aI749
aI750
aI751
aI753
aI754
asI136
(lp136
I586
aI587
aI759
aI760
asI137
(lp137
I611
aI612
aI613
aI614
aI615
aI616
asI138
(lp138
I447
aI449
asI139
(lp139
I346
aI356
aI465
aI823
asI140
(lp140
I666
aI667
aI668
aI669
aI670
aI671
aI672
aI673
aI674
aI675
aI676
asI141
(lp141
I569
asI142
(lp142
I346
aI356
aI490
aI503
aI507
aI511
aI512
aI513
aI514
aI520
asI143
(lp143
I445
asI144
(lp144
I162
aI163
aI170
aI182
aI183
aI184
aI185
aI186
aI188
aI189
aI190
aI191
aI192
aI203
aI208
aI210
aI215
aI239
aI252
aI253
aI254
aI255
aI282
aI286
aI290
aI291
aI294
aI295
aI524
aI556
aI557
aI617
aI666
aI667
aI668
aI669
aI670
aI671
aI672
aI673
aI676
asI145
(lp145
I182
aI198
aI206
aI207
aI215
aI226
aI227
aI228
aI229
aI230
aI239
aI264
aI267
aI268
aI269
aI272
aI273
aI276
aI277
aI278
aI289
aI290
aI291
aI292
aI293
aI294
aI295
aI719
aI720
aI743
aI744
aI745
aI746
aI793
aI820
asI146
(lp146
I346
aI356
aI479
aI813
asI147
(lp147
I143
aI144
aI145
aI146
aI147
aI148
aI149
aI150
aI151
aI156
aI157
aI158
aI160
aI161
aI183
aI184
aI185
aI186
aI188
aI189
aI190
aI191
aI192
aI203
aI216
aI218
aI220
aI221
aI222
aI223
aI239
aI246
aI247
aI248
aI249
aI251
aI252
aI253
aI254
aI255
aI259
aI260
aI261
aI262
aI263
aI264
aI265
aI266
aI267
aI268
aI269
aI272
aI273
aI276
aI277
aI278
aI279
aI280
aI281
aI283
aI290
aI291
aI294
aI295
aI639
aI641
aI642
aI643
aI666
aI667
aI668
aI669
aI670
aI671
aI672
aI673
aI676
aI728
aI730
aI731
aI732
aI793
aI794
aI798
aI799
aI811
aI820
asI148
(lp148
I296
aI306
aI307
aI525
aI543
asI149
(lp149
I346
aI356
aI469
aI787
aI789
aI790
asI150
(lp150
I393
aI394
aI402
asI151
(lp151
I346
aI356
aI477
aI768
aI769
asI152
(lp152
I346
aI356
aI377
asI153
(lp153
I296
aI301
aI306
aI307
aI318
aI320
aI525
asI154
(lp154
I819
aI820
aI831
asI155
(lp155
I697
aI698
aI699
aI700
aI701
asI156
(lp156
I573
asI157
(lp157
I296
aI297
aI301
aI306
aI307
aI308
aI314
aI329
aI594
aI595
aI597
aI599
aI600
asI158
(lp158
I296
aI305
aI306
aI307
aI525
aI543
asI159
(lp159
I346
aI356
aI450
aI451
aI453
aI454
asI160
(lp160
I346
aI356
aI462
aI815
aI819
aI820
asI161
(lp161
I786
aI787
aI788
aI789
aI790
asI162
(lp162
I346
aI356
aI482
aI495
aI601
aI602
aI603
aI606
aI607
asI163
(lp163
I792
aI793
aI794
aI819
aI820
asI164
(lp164
I296
aI297
aI301
aI302
aI306
aI307
aI308
aI330
aI331
aI332
aI525
aI526
aI530
aI536
aI537
aI543
aI545
asI165
(lp165
I346
aI356
aI459
aI580
aI581
aI582
aI587
asI166
(lp166
I346
aI356
aI474
aI726
aI732
aI733
aI819
aI820
asI167
(lp167
I734
aI735
aI736
aI737
aI810
aI811
aI819
aI820
asI168
(lp168
I819
aI820
aI828
asI169
(lp169
I296
aI304
aI305
aI306
aI307
aI314
asI170
(lp170
I573
aI821
asI171
(lp171
I170
aI182
aI183
aI184
aI185
aI186
aI188
aI189
aI190
aI191
aI192
aI203
aI208
aI210
aI215
aI239
aI252
aI253
aI254
aI255
aI286
aI524
aI617
aI666
aI667
aI668
aI669
aI670
aI671
aI672
aI673
aI676
asI172
(lp172
I337
aI346
aI356
asI173
(lp173
I296
aI306
aI307
aI525
aI527
aI528
aI532
aI534
aI545
asI174
(lp174
I346
aI356
aI471
asI175
(lp175
I346
aI356
aI488
aI501
aI692
aI693
aI694
aI696
asI176
(lp176
I697
aI698
aI699
aI700
aI701
aI703
asI177
(lp177
I296
aI306
aI307
aI309
aI310
aI312
aI313
aI327
aI333
aI506
aI525
asI178
(lp178
I296
aI306
aI307
aI804
aI805
asI179
(lp179
I301
asI180
(lp180
I721
aI722
aI723
aI725
asI181
(lp181
I296
aI301
aI306
aI307
aI318
aI319
asI182
(lp182
I346
aI356
aI460
aI809
aI810
aI811
aI819
aI820
asI183
(lp183
I589
asI184
(lp184
I345
aI346
aI356
aI376
aI379
aI380
aI381
aI382
aI383
aI384
aI431
aI432
aI433
aI434
aI435
aI436
aI451
aI454
aI590
aI591
asI185
(lp185
I396
aI397
aI426
aI440
asI186
(lp186
I296
aI297
aI301
aI304
aI305
aI306
aI307
aI308
asI187
(lp187
I442
asI188
(lp188
I162
aI163
aI164
aI165
aI166
aI167
aI203
aI215
aI228
aI230
aI239
aI256
aI257
aI258
aI259
aI260
aI267
aI268
aI282
aI284
aI290
aI291
aI294
aI295
aI555
aI556
aI558
aI743
aI745
aI746
aI752
aI753
aI754
aI820
asI189
(lp189
I755
aI756
aI757
aI758
asI190
(lp190
I296
aI306
aI307
asI191
(lp191
I200
aI201
aI202
aI203
aI239
aI252
aI253
aI254
aI255
aI259
aI260
aI261
aI262
aI267
aI268
aI290
aI291
aI294
aI295
aI801
aI802
aI803
asI192
(lp192
I346
aI356
aI470
aI800
asI193
(lp193
I346
aI356
aI458
aI796
aI798
asI194
(lp194
I704
aI705
aI706
aI707
aI708
aI709
asI195
(lp195
I296
aI306
aI307
aI535
aI540
asI196
(lp196
I507
aI508
aI509
aI510
aI511
aI512
aI513
aI514
aI515
aI516
aI517
aI518
aI519
aI520
asI197
(lp197
I375
aI437
asI198
(lp198
I806
aI807
aI820
aI826
asI199
(lp199
I198
aI199
aI203
aI239
aI269
aI270
aI271
aI272
aI273
aI274
aI275
aI276
aI277
aI278
aI279
aI793
aI794
aI819
aI820
asI200
(lp200
I346
aI356
aI475
aI819
aI820
aI829
asI201
(lp201
I346
aI356
aI464
asI202
(lp202
I400
asI203
(lp203
I385
aI386
aI428
asI204
(lp204
I809
aI810
aI811
aI819
aI820
asI205
(lp205
I306
aI307
aI323
aI334
aI335
aI336
aI338
aI339
aI340
aI341
aI342
aI343
aI344
aI346
aI347
aI348
aI349
aI350
aI351
aI352
aI353
aI354
aI355
aI356
aI357
aI358
aI359
aI360
aI361
aI362
aI363
aI364
aI365
aI366
aI367
aI368
aI369
aI370
aI371
aI372
aI373
aI592
aI593
asI206
(lp206
I198
aI199
aI203
aI239
aI269
aI270
aI271
aI272
aI273
aI274
aI275
aI276
aI277
aI278
aI279
aI793
aI794
aI819
aI820
asI207
(lp207
I692
aI693
aI694
aI696
asI208
(lp208
I607
aI759
aI760
asI209
(lp209
I296
aI297
aI304
aI305
aI306
aI307
aI308
aI525
aI543
asI210
(lp210
I168
aI169
aI170
aI183
aI184
aI185
aI186
aI188
aI189
aI190
aI191
aI192
aI203
aI208
aI210
aI239
aI251
aI252
aI253
aI254
aI255
aI256
aI259
aI260
aI267
aI268
aI290
aI291
aI294
aI295
aI524
aI660
aI661
aI662
aI666
aI667
aI668
aI669
aI670
aI671
aI672
aI673
aI676
aI819
aI820
asI211
(lp211
I346
aI356
aI476
asI212
(lp212
I721
aI722
aI723
aI724
aI725
asI213
(lp213
I726
aI732
aI733
aI819
aI820
asI214
(lp214
I152
aI154
aI156
aI157
aI158
aI160
aI161
aI170
aI171
aI172
aI173
aI179
aI182
aI183
aI184
aI185
aI186
aI188
aI189
aI190
aI191
aI192
aI193
aI194
aI195
aI196
aI203
aI208
aI210
aI212
aI215
aI231
aI232
aI233
aI234
aI235
aI236
aI237
aI238
aI239
aI246
aI247
aI248
aI249
aI251
aI252
aI253
aI254
aI255
aI259
aI260
aI261
aI262
aI264
aI267
aI268
aI290
aI291
aI294
aI295
aI521
aI523
aI524
aI586
aI587
aI588
aI589
aI617
aI618
aI666
aI667
aI668
aI669
aI670
aI671
aI672
aI673
aI676
aI680
aI681
aI710
aI711
aI759
aI760
aI772
aI773
aI811
aI819
aI820
asI215
(lp215
I438
asI216
(lp216
I815
aI819
aI820
asI217
(lp217
I296
aI306
aI307
aI309
aI310
aI312
aI313
aI327
aI333
asI218
(lp218
I423
asI219
(lp219
I813
asI220
(lp220
I296
aI297
aI304
aI305
aI306
aI307
aI308
asI221
(lp221
I296
aI297
aI306
aI307
aI308
aI525
aI527
aI528
aI532
aI533
aI534
aI543
aI545
asI222
(lp222
I738
aI739
aI740
aI741
aI742
aI743
aI744
aI745
aI746
asI223
(lp223
I561
asI224
(lp224
I306
aI307
aI535
aI540
asI225
(lp225
I806
aI807
aI820
aI824
asI226
(lp226
I795
aI796
aI797
aI798
asI227
(lp227
I575
asI228
(lp228
I375
aI387
aI388
aI389
aI403
aI404
aI408
asI229
(lp229
I369
asI230
(lp230
I346
aI356
aI492
aI505
aI704
aI705
aI706
aI709
asI231
(lp231
I346
aI356
aI472
aI792
aI793
aI794
aI819
aI820
asI232
(lp232
I562
aI563
asI233
(lp233
I196
aI197
aI203
aI239
aI240
aI241
aI242
aI243
aI244
aI245
aI246
aI247
aI248
aI249
aI819
aI820
asI234
(lp234
I819
aI820
aI829
asI235
(lp235
I559
aI560
asI236
(lp236
I296
aI304
aI305
aI306
aI307
aI539
aI540
asI237
(lp237
I296
aI301
aI306
aI307
aI330
asI238
(lp238
I713
aI714
aI715
aI716
aI717
aI718
asI239
(lp239
I385
aI386
aI429
as.