(dp0
I1
(lp1
I212
aI213
aI215
aI216
aI217
aI218
aI219
aI220
aI221
aI222
aI264
aI265
aI267
aI268
aI269
aI270
aI271
aI273
aI282
aI283
aI286
aI287
aI288
aI289
aI290
aI292
asI2
(lp2
I526
aI527
aI528
aI529
aI530
aI531
aI532
aI535
aI537
aI546
aI578
aI579
aI580
aI581
aI582
aI586
aI587
aI589
aI613
aI616
aI708
aI709
aI710
aI714
aI715
aI716
asI3
(lp3
I2
aI3
aI4
aI7
aI8
aI9
aI10
aI14
aI16
aI17
aI18
aI19
aI23
aI24
aI27
aI29
aI30
aI33
aI45
aI46
aI47
aI48
aI51
aI52
aI53
aI54
aI56
aI57
aI58
aI60
aI61
aI62
aI66
aI523
aI661
aI662
aI663
aI664
aI665
aI666
aI667
aI687
aI817
aI867
aI868
aI869
aI875
aI894
aI895
aI899
aI905
aI916
aI918
aI919
aI920
asI4
(lp4
I403
aI404
aI405
aI406
aI407
aI408
aI410
aI411
aI426
aI427
aI428
aI429
aI435
aI438
aI440
aI443
aI446
aI448
aI452
aI453
aI454
aI455
aI459
aI522
aI523
aI524
aI525
aI875
asI5
(lp5
I345
aI346
aI347
aI348
aI349
aI350
aI351
aI352
aI353
aI354
aI355
aI356
aI357
aI358
aI359
aI360
aI361
aI362
aI363
aI364
aI365
aI368
aI369
aI370
aI371
aI382
aI383
aI385
aI386
aI387
aI388
aI389
aI390
aI391
aI392
aI393
aI395
aI397
asI6
(lp6
I680
aI798
aI799
aI800
aI801
asI7
(lp7
I67
aI68
aI69
aI70
aI73
aI74
aI78
aI79
aI87
aI95
aI96
aI97
aI98
aI100
aI101
aI102
aI103
aI104
aI526
aI527
aI528
aI529
aI530
aI531
aI533
aI534
aI535
aI536
aI537
aI538
aI539
aI540
aI541
aI542
aI544
aI545
aI547
aI578
aI579
aI580
aI581
aI586
aI587
aI589
aI613
aI616
aI803
aI804
aI809
aI810
aI817
aI894
aI895
asI8
(lp8
I345
aI346
aI368
aI369
aI370
aI371
aI372
aI373
aI374
aI375
aI376
aI377
aI378
aI379
aI380
aI381
asI9
(lp9
I460
aI461
aI462
aI463
aI670
aI671
aI672
aI673
aI674
aI675
asI10
(lp10
I404
aI405
aI406
aI427
aI428
aI429
aI435
aI523
aI847
aI875
aI881
aI882
aI883
asI11
(lp11
I719
aI722
aI724
aI725
aI726
aI727
aI850
aI853
asI12
(lp12
I778
aI780
aI781
aI782
aI783
aI784
aI785
aI786
aI788
aI886
asI13
(lp13
I548
aI549
aI550
aI553
aI817
aI854
aI894
aI895
asI14
(lp14
I617
aI618
aI619
aI620
asI15
(lp15
I67
aI68
aI69
aI70
aI73
aI74
aI78
aI79
aI87
aI95
aI96
aI97
aI98
aI100
aI101
aI102
aI103
aI104
aI526
aI527
aI528
aI529
aI530
aI531
aI533
aI534
aI535
aI536
aI537
aI538
aI539
aI540
aI541
aI542
aI544
aI545
aI547
aI578
aI579
aI580
aI581
aI586
aI587
aI589
aI613
aI616
aI803
aI804
aI805
aI806
aI809
aI810
aI811
aI817
aI894
aI895
asI16
(lp16
I132
aI133
aI176
aI177
aI180
aI181
aI182
aI183
aI184
aI185
aI186
aI187
aI188
aI189
aI190
aI191
aI192
aI193
aI194
aI195
aI196
aI197
aI198
aI199
aI200
aI201
aI202
aI203
aI204
aI205
aI206
aI207
aI208
aI209
aI210
aI211
aI728
aI729
aI812
aI813
aI814
aI815
aI816
aI822
asI17
(lp17
I213
aI215
aI216
aI217
aI218
aI219
aI220
aI221
aI222
aI224
aI225
aI226
aI227
aI228
aI229
aI230
aI231
aI232
aI233
aI282
asI18
(lp18
I2
aI3
aI37
aI38
aI40
aI817
aI894
aI895
asI19
(lp19
I622
aI623
aI624
aI625
aI626
aI628
aI629
aI630
aI631
aI632
aI635
aI637
aI638
aI639
aI640
aI641
aI643
aI644
aI646
aI647
aI649
aI650
aI651
asI20
(lp20
I526
aI527
aI528
aI529
aI530
aI531
aI532
aI535
aI537
aI546
aI578
aI579
aI580
aI581
aI582
aI586
aI587
aI589
aI613
aI616
aI708
aI710
aI714
aI715
aI716
asI21
(lp21
I345
aI346
aI368
aI369
aI371
asI22
(lp22
I67
aI68
aI69
aI70
aI73
aI74
aI78
aI79
aI91
aI95
aI96
aI97
aI98
aI100
aI101
aI102
aI103
aI104
aI526
aI527
aI528
aI529
aI530
aI531
aI532
aI535
aI537
aI546
aI578
aI579
aI580
aI581
aI586
aI587
aI588
aI590
aI817
aI888
aI894
aI895
asI23
(lp23
I778
aI779
aI780
aI784
aI787
aI886
asI24
(lp24
I780
asI25
(lp25
I152
aI153
aI154
aI155
aI156
aI157
aI158
aI159
aI160
aI161
aI162
aI163
aI164
aI165
aI166
aI167
aI168
aI169
aI170
aI171
aI823
aI824
aI896
aI906
asI26
(lp26
I778
aI780
aI781
aI782
aI783
aI784
aI785
aI786
aI788
aI886
asI27
(lp27
I212
aI213
aI215
aI216
aI217
aI218
aI219
aI220
aI221
aI222
aI264
aI265
aI267
aI268
aI269
aI270
aI271
aI273
aI282
aI283
aI286
aI287
aI288
aI289
aI290
aI292
asI28
(lp28
I345
aI346
aI347
aI348
aI349
aI350
aI351
aI352
aI353
aI354
aI355
aI360
aI361
aI362
aI363
aI364
aI365
aI366
aI367
aI368
aI369
aI370
aI371
aI382
aI383
aI385
aI386
aI387
aI388
aI389
aI390
aI391
aI395
aI396
aI397
asI29
(lp29
I799
aI800
aI801
aI802
asI30
(lp30
I67
aI68
aI69
aI70
aI73
aI74
aI78
aI79
aI88
aI95
aI96
aI97
aI98
aI100
aI101
aI102
aI103
aI104
aI526
aI527
aI528
aI529
aI530
aI531
aI532
aI535
aI537
aI546
aI578
aI579
aI580
aI581
aI582
aI586
aI587
aI588
aI590
aI688
aI817
aI894
aI895
asI31
(lp31
I593
aI594
aI595
aI596
aI597
aI598
asI32
(lp32
I778
aI780
asI33
(lp33
I67
aI68
aI69
aI70
aI73
aI74
aI78
aI79
aI86
aI95
aI96
aI97
aI98
aI100
aI101
aI102
aI103
aI104
aI526
aI527
aI528
aI529
aI530
aI531
aI532
aI535
aI537
aI546
aI578
aI579
aI580
aI581
aI582
aI586
aI587
aI589
aI613
aI616
aI817
aI866
aI894
aI895
asI34
(lp34
I719
aI722
aI724
aI725
aI726
aI727
aI761
aI763
aI765
aI766
aI768
aI769
aI817
aI894
aI895
asI35
(lp35
I526
aI527
aI528
aI529
aI530
aI531
aI532
aI535
aI537
aI546
aI578
aI579
aI580
aI581
aI582
aI586
aI587
aI588
aI589
aI590
aI613
aI616
aI708
aI709
aI710
aI715
aI716
aI891
aI892
aI893
asI36
(lp36
I526
aI527
aI528
aI529
aI530
aI531
aI532
aI535
aI537
aI546
aI578
aI579
aI580
aI581
aI582
aI586
aI587
aI589
aI613
aI616
aI708
aI710
aI715
aI716
asI37
(lp37
I464
aI465
aI466
aI467
aI468
aI469
aI470
aI471
aI472
asI38
(lp38
I732
aI733
aI734
aI778
aI780
asI39
(lp39
I473
aI474
aI475
aI476
aI477
aI478
aI479
aI480
aI481
aI482
aI484
aI485
asI40
(lp40
I403
aI404
aI405
aI406
aI407
aI410
aI426
aI429
aI435
aI438
aI440
aI443
aI446
aI448
aI452
aI453
aI454
aI457
aI522
aI523
aI524
aI525
aI875
asI41
(lp41
I798
aI799
aI800
aI801
asI42
(lp42
I67
aI68
aI69
aI70
aI73
aI74
aI78
aI82
aI95
aI96
aI97
aI98
aI100
aI101
aI102
aI103
aI104
aI526
aI527
aI531
aI532
aI535
aI537
aI546
aI588
aI589
aI614
aI616
aI678
aI817
aI894
aI895
asI43
(lp43
I68
aI69
aI70
aI73
aI74
aI78
aI95
aI96
aI97
aI99
aI100
aI101
aI102
aI103
aI104
aI526
aI527
aI817
aI894
aI895
asI44
(lp44
I403
aI404
aI405
aI406
aI407
aI409
aI412
aI413
aI414
aI415
aI420
aI421
aI426
aI429
aI435
aI438
aI440
aI443
aI446
aI448
aI452
aI453
aI454
aI455
aI459
aI522
aI523
aI524
aI525
aI682
aI683
aI684
aI685
aI686
aI689
aI690
aI691
aI875
asI45
(lp45
I732
aI736
aI737
aI738
aI739
aI740
aI778
aI780
asI46
(lp46
I836
aI837
aI838
aI839
asI47
(lp47
I345
aI346
aI347
aI348
aI350
aI351
aI352
aI354
aI355
aI356
aI357
aI358
aI359
aI360
aI361
aI363
aI364
aI365
aI368
aI369
aI370
aI371
aI382
aI383
aI385
aI386
aI387
aI388
aI391
aI395
aI396
aI397
asI48
(lp48
I680
aI798
aI799
aI800
aI801
asI49
(lp49
I403
aI404
aI405
aI406
aI407
aI410
aI426
aI429
aI435
aI438
aI440
aI443
aI446
aI448
aI452
aI453
aI454
aI456
aI522
aI523
aI524
aI525
aI875
asI50
(lp50
I825
aI826
aI827
aI828
asI51
(lp51
I213
aI215
aI216
aI217
aI218
aI219
aI220
aI221
aI222
aI223
aI234
aI235
aI236
aI238
aI239
aI243
aI244
aI245
aI250
aI251
aI252
aI253
aI254
aI256
aI257
aI258
aI259
aI260
aI261
aI274
aI275
aI276
aI277
aI279
aI282
aI283
aI284
aI285
aI622
aI624
aI625
aI626
aI628
aI632
aI635
asI52
(lp52
I440
aI441
aI442
aI443
aI444
aI445
aI450
aI451
aI452
asI53
(lp53
I398
aI399
aI400
aI402
aI913
aI914
asI54
(lp54
I212
aI215
aI216
aI217
aI218
aI219
aI220
aI221
aI222
aI234
aI239
aI240
aI242
aI245
aI247
aI248
asI55
(lp55
I76
aI96
aI101
aI102
aI103
aI104
aI817
aI894
aI895
asI56
(lp56
I403
aI404
aI405
aI406
aI407
aI409
aI412
aI413
aI414
aI416
aI417
aI418
aI419
aI426
aI429
aI435
aI438
aI440
aI443
aI446
aI448
aI452
aI453
aI454
aI455
aI459
aI522
aI523
aI524
aI525
aI682
aI683
aI684
aI685
aI686
aI690
aI691
aI875
asI57
(lp57
I105
aI106
aI107
aI108
aI109
aI110
aI111
aI112
aI113
aI114
aI115
aI116
aI117
aI118
aI119
aI120
aI121
aI122
aI123
aI124
aI125
aI126
aI127
aI128
aI130
asI58
(lp58
I345
aI346
aI347
aI348
aI349
aI350
aI351
aI352
aI353
aI354
aI355
aI356
aI357
aI358
aI359
aI360
aI361
aI362
aI363
aI364
aI365
aI368
aI369
aI370
aI371
aI382
aI383
aI384
aI385
aI386
aI387
aI388
aI389
aI390
aI391
aI392
aI393
aI394
aI395
aI397
asI59
(lp59
I216
asI60
(lp60
I604
aI605
aI606
aI607
aI608
aI609
aI610
aI611
aI612
aI753
aI754
asI61
(lp61
I68
aI69
aI70
aI73
aI74
aI78
aI79
aI95
aI96
aI97
aI98
aI100
aI101
aI102
aI103
aI104
aI526
aI527
aI528
aI529
aI530
aI531
aI532
aI535
aI537
aI546
aI578
aI579
aI580
aI581
aI582
aI586
aI587
aI617
aI618
aI620
aI817
aI894
aI895
aI915
asI62
(lp62
I819
aI820
aI821
asI63
(lp63
I2
aI3
aI4
aI7
aI9
aI10
aI13
aI14
aI16
aI17
aI18
aI19
aI20
aI23
aI24
aI27
aI29
aI30
aI33
aI45
aI46
aI48
aI51
aI52
aI53
aI54
aI56
aI57
aI58
aI60
aI61
aI62
aI66
aI523
aI661
aI662
aI663
aI664
aI665
aI666
aI667
aI687
aI817
aI867
aI868
aI869
aI875
aI894
aI895
aI899
aI905
aI916
aI918
aI919
aI920
asI64
(lp64
I778
aI780
asI65
(lp65
I398
aI402
aI917
asI66
(lp66
I67
aI68
aI69
aI70
aI73
aI75
aI78
aI92
aI95
aI96
aI97
aI98
aI100
aI101
aI102
aI103
aI104
aI486
aI488
aI493
aI494
aI495
aI496
aI497
aI498
aI499
aI500
aI501
aI504
aI505
aI506
aI507
aI508
aI510
aI511
aI517
aI518
aI521
aI526
aI527
aI817
aI894
aI895
aI903
asI67
(lp67
I818
aI819
aI820
asI68
(lp68
I621
aI622
aI623
aI624
aI625
aI626
aI627
aI629
aI630
aI631
aI632
aI633
aI634
aI635
asI69
(lp69
I345
aI346
aI360
aI361
aI363
aI364
aI365
aI368
aI369
aI370
aI692
aI693
aI694
aI697
aI698
asI70
(lp70
I67
aI68
aI69
aI70
aI73
aI74
aI75
aI78
aI79
aI80
aI92
aI95
aI96
aI97
aI98
aI100
aI101
aI102
aI103
aI104
aI526
aI527
aI528
aI529
aI530
aI531
aI532
aI535
aI537
aI546
aI578
aI579
aI580
aI581
aI582
aI586
aI587
aI589
aI613
aI616
aI656
aI657
aI658
aI659
aI817
aI894
aI895
aI903
asI71
(lp71
I134
aI135
aI136
aI137
aI138
aI139
aI140
aI141
aI142
aI143
aI144
aI145
aI146
aI147
aI148
aI149
aI150
aI151
aI730
aI731
aI823
aI824
aI911
aI912
asI72
(lp72
I676
aI677
aI751
aI752
asI73
(lp73
I567
aI568
aI569
aI570
asI74
(lp74
I67
aI68
aI69
aI70
aI73
aI74
aI78
aI79
aI81
aI95
aI96
aI97
aI98
aI100
aI101
aI102
aI103
aI104
aI486
aI488
aI493
aI494
aI495
aI496
aI497
aI498
aI499
aI500
aI501
aI504
aI505
aI506
aI507
aI508
aI509
aI510
aI511
aI517
aI518
aI521
aI526
aI527
aI528
aI529
aI530
aI531
aI532
aI535
aI537
aI546
aI571
aI572
aI573
aI574
aI575
aI576
aI577
aI578
aI579
aI580
aI581
aI582
aI583
aI585
aI586
aI587
aI588
aI590
aI591
aI592
aI749
aI817
aI894
aI895
asI75
(lp75
I719
aI722
aI724
aI725
aI726
aI727
aI848
aI849
aI850
aI851
aI852
aI853
asI76
(lp76
I614
aI616
aI622
aI623
aI625
aI626
aI628
aI629
aI630
aI631
aI632
aI635
aI637
aI638
aI639
aI640
aI642
aI643
aI645
aI646
aI651
asI77
(lp77
I403
aI404
aI405
aI406
aI407
aI409
aI412
aI413
aI414
aI415
aI420
aI421
aI426
aI429
aI435
aI438
aI440
aI443
aI446
aI448
aI452
aI453
aI454
aI455
aI459
aI522
aI523
aI524
aI525
aI682
aI689
aI690
aI691
aI875
asI78
(lp78
I213
aI215
aI216
aI217
aI218
aI219
aI220
aI221
aI222
aI223
asI79
(lp79
I345
aI346
aI356
aI357
aI358
aI359
aI368
aI369
aI370
aI371
asI80
(lp80
I778
aI780
asI81
(lp81
I213
aI215
aI216
aI217
aI218
aI219
aI220
aI221
aI222
aI224
aI225
aI226
aI227
aI228
aI229
aI230
aI231
aI232
aI233
aI282
asI82
(lp82
I881
asI83
(lp83
I67
aI68
aI69
aI70
aI73
aI74
aI78
aI79
aI81
aI95
aI96
aI97
aI98
aI100
aI101
aI102
aI103
aI104
aI526
aI527
aI528
aI529
aI530
aI531
aI532
aI535
aI537
aI546
aI571
aI572
aI573
aI574
aI575
aI576
aI577
aI578
aI579
aI580
aI581
aI582
aI583
aI585
aI586
aI587
aI588
aI590
aI591
aI749
aI817
aI894
aI895
asI84
(lp84
I778
aI780
asI85
(lp85
I554
aI555
aI556
aI557
aI558
aI559
aI560
aI561
aI563
aI564
aI565
aI566
aI567
aI568
aI569
aI570
asI86
(lp86
I68
aI69
aI70
aI73
aI74
aI78
aI95
aI96
aI97
aI98
aI100
aI101
aI102
aI103
aI104
aI526
aI527
aI531
aI532
aI535
aI537
aI546
aI618
aI620
aI817
aI894
aI895
aI915
asI87
(lp87
I599
aI600
aI601
aI602
aI603
aI757
asI88
(lp88
I526
aI527
aI528
aI529
aI530
aI531
aI532
aI535
aI537
aI546
aI578
aI579
aI580
aI581
aI582
aI586
aI587
aI588
aI589
aI590
aI613
aI616
aI708
aI709
aI710
aI715
aI716
aI876
aI877
aI878
aI879
asI89
(lp89
I830
aI831
aI832
aI833
aI834
aI835
asI90
(lp90
I31
aI32
asI91
(lp91
I817
aI894
aI895
asI92
(lp92
I67
aI68
aI69
aI70
aI73
aI74
aI78
aI79
aI81
aI95
aI96
aI97
aI98
aI100
aI101
aI102
aI103
aI104
aI526
aI527
aI528
aI529
aI530
aI531
aI532
aI535
aI537
aI546
aI571
aI572
aI573
aI574
aI575
aI576
aI577
aI578
aI579
aI580
aI581
aI582
aI583
aI585
aI586
aI587
aI588
aI590
aI591
aI592
aI749
aI817
aI894
aI895
asI93
(lp93
I614
aI616
asI94
(lp94
I212
aI213
aI215
aI216
aI217
aI218
aI219
aI220
aI221
aI222
aI264
aI265
aI267
aI268
aI269
aI270
aI271
aI273
aI282
aI286
aI287
aI288
aI289
aI290
aI292
asI95
(lp95
I719
aI720
aI721
aI722
aI723
aI724
aI725
aI726
aI727
aI763
aI764
aI766
aI767
aI817
aI849
aI850
aI853
aI855
aI856
aI857
aI858
aI894
aI895
asI96
(lp96
I212
aI215
aI216
aI217
aI218
aI219
aI220
aI221
aI222
aI234
aI235
aI236
aI238
aI239
aI243
aI244
aI245
aI250
aI622
aI623
aI624
aI625
aI626
aI628
aI629
aI630
aI631
aI632
aI635
asI97
(lp97
I818
aI820
aI821
asI98
(lp98
I212
aI213
aI215
aI216
aI217
aI218
aI219
aI220
aI221
aI222
aI268
aI269
aI270
aI271
aI273
aI282
aI283
aI286
aI287
aI288
aI289
aI290
aI292
asI99
(lp99
I67
aI68
aI69
aI70
aI73
aI74
aI78
aI79
aI88
aI95
aI96
aI97
aI98
aI100
aI101
aI102
aI103
aI104
aI526
aI527
aI528
aI529
aI530
aI531
aI532
aI535
aI537
aI546
aI578
aI579
aI580
aI581
aI582
aI586
aI587
aI589
aI613
aI616
aI817
aI870
aI894
aI895
asI100
(lp100
I212
aI215
aI216
aI217
aI218
aI219
aI220
aI221
aI222
aI234
aI235
aI236
aI238
aI243
aI244
aI245
aI250
aI621
aI622
aI624
aI625
aI626
aI628
aI632
aI635
asI101
(lp101
I67
aI68
aI69
aI70
aI73
aI74
aI78
aI79
aI91
aI95
aI96
aI97
aI98
aI100
aI101
aI102
aI103
aI104
aI526
aI527
aI528
aI529
aI530
aI531
aI532
aI535
aI537
aI546
aI578
aI579
aI580
aI581
aI582
aI586
aI587
aI588
aI590
aI817
aI887
aI894
aI895
asI102
(lp102
I299
aI300
aI301
aI302
aI303
aI304
aI305
aI306
aI307
aI308
aI309
aI310
aI311
aI312
aI313
aI314
aI315
aI316
aI317
aI318
aI319
aI320
aI321
aI322
aI323
aI324
aI325
aI326
aI327
aI328
aI329
aI330
aI331
aI332
aI333
aI334
aI335
aI336
aI337
aI338
aI339
aI340
aI341
aI342
aI343
aI344
aI864
aI865
asI103
(lp103
I778
aI779
aI780
aI862
aI863
aI897
aI898
asI104
(lp104
I398
aI399
aI400
aI401
aI402
asI105
(lp105
I741
aI742
aI743
aI744
asI106
(lp106
I212
aI215
aI216
aI217
aI218
aI219
aI220
aI221
aI222
aI234
aI235
aI236
aI237
aI250
aI624
aI627
aI634
asI107
(lp107
I548
aI549
aI550
aI551
aI552
aI553
aI817
aI854
aI894
aI895
asI108
(lp108
I1
aI2
aI3
aI4
aI7
aI8
aI29
aI30
aI41
aI43
aI44
aI58
aI63
aI64
aI66
aI817
aI894
aI895
asI109
(lp109
I212
aI214
aI215
aI216
aI217
aI218
aI219
aI220
aI221
aI222
aI251
asI110
(lp110
I96
aI100
aI101
aI102
aI103
aI104
aI817
aI894
aI895
asI111
(lp111
I34
aI35
aI36
aI907
asI112
(lp112
I58
asI113
(lp113
I345
aI346
aI368
aI369
aI370
aI692
aI693
aI694
aI697
aI698
asI114
(lp114
I212
aI215
aI216
aI222
aI277
aI278
asI115
(lp115
I859
aI860
aI861
aI871
aI874
asI116
(lp116
I859
aI860
aI871
aI872
aI873
aI874
asI117
(lp117
I67
aI68
aI69
aI70
aI73
aI74
aI78
aI79
aI91
aI95
aI96
aI97
aI98
aI100
aI101
aI102
aI103
aI104
aI526
aI527
aI528
aI529
aI530
aI531
aI532
aI535
aI537
aI546
aI578
aI579
aI580
aI581
aI582
aI586
aI587
aI588
aI590
aI817
aI889
aI894
aI895
asI118
(lp118
I96
aI101
aI102
aI103
aI104
aI486
aI489
aI490
aI491
aI492
aI493
aI494
aI495
aI496
aI497
aI498
aI499
aI500
aI501
aI504
aI505
aI506
aI507
aI508
aI509
aI510
aI512
aI513
aI517
aI519
aI521
aI526
aI527
aI528
aI529
aI530
aI531
aI532
aI535
aI537
aI546
aI578
aI579
aI580
aI581
aI582
aI586
aI587
aI589
aI613
aI616
aI654
aI668
aI669
aI708
aI709
aI710
aI714
aI715
aI716
aI718
aI795
aI797
aI817
aI894
aI895
asI119
(lp119
I460
aI462
aI463
aI670
aI671
aI672
aI673
aI674
aI675
asI120
(lp120
I212
aI215
aI216
aI217
aI218
aI219
aI220
aI221
aI222
aI234
aI239
aI240
aI242
aI246
aI247
aI249
asI121
(lp121
I741
aI742
aI743
aI744
asI122
(lp122
I406
aI426
aI429
aI435
aI523
aI875
aI900
asI123
(lp123
I548
aI549
aI550
aI552
aI553
aI817
aI854
aI894
aI895
asI124
(lp124
I460
aI462
aI463
aI670
aI671
aI672
aI673
aI674
aI675
asI125
(lp125
I751
aI752
aI840
aI841
aI842
aI843
aI844
asI126
(lp126
I212
aI213
aI215
aI216
aI217
aI218
aI219
aI220
aI221
aI222
aI264
aI265
aI266
aI267
aI268
aI269
aI270
aI271
aI273
aI282
aI283
aI286
aI287
aI288
aI289
aI290
aI292
asI127
(lp127
I2
aI3
aI4
aI29
aI30
aI52
aI54
aI58
aI65
aI66
aI817
aI894
aI895
aI916
asI128
(lp128
I67
aI68
aI69
aI70
aI73
aI74
aI78
aI79
aI87
aI95
aI96
aI97
aI98
aI100
aI101
aI102
aI103
aI104
aI526
aI527
aI528
aI529
aI530
aI531
aI533
aI534
aI535
aI536
aI537
aI538
aI539
aI540
aI541
aI542
aI544
aI545
aI547
aI578
aI579
aI580
aI581
aI586
aI587
aI589
aI613
aI616
aI803
aI804
aI807
aI808
aI809
aI810
aI811
aI817
aI894
aI895
asI129
(lp129
I732
aI736
aI737
aI738
aI739
aI740
aI778
aI780
asI130
(lp130
I68
aI69
aI70
aI73
aI74
aI78
aI95
aI96
aI97
aI98
aI99
aI100
aI101
aI102
aI103
aI104
aI526
aI527
aI817
aI894
aI895
asI131
(lp131
I67
aI68
aI69
aI70
aI73
aI74
aI78
aI79
aI84
aI95
aI96
aI97
aI98
aI100
aI101
aI102
aI103
aI104
aI526
aI527
aI528
aI529
aI530
aI531
aI532
aI535
aI537
aI546
aI578
aI579
aI580
aI581
aI582
aI586
aI587
aI589
aI613
aI616
aI789
aI790
aI791
aI792
aI793
aI794
aI817
aI894
aI895
asI132
(lp132
I68
aI69
aI70
aI73
aI74
aI78
aI95
aI96
aI97
aI98
aI99
aI100
aI101
aI102
aI103
aI104
aI526
aI527
aI817
aI894
aI895
asI133
(lp133
I403
aI404
aI405
aI406
aI407
aI410
aI426
aI429
aI435
aI438
aI440
aI443
aI446
aI448
aI450
aI451
aI452
aI453
aI454
aI455
aI458
aI522
aI523
aI524
aI525
aI875
asI134
(lp134
I345
aI346
aI347
aI348
aI349
aI360
aI361
aI362
aI363
aI364
aI365
aI366
aI367
aI368
aI369
aI370
aI371
asI135
(lp135
I68
aI69
aI70
aI73
aI74
aI78
aI79
aI95
aI96
aI97
aI98
aI100
aI101
aI102
aI103
aI104
aI526
aI527
aI528
aI529
aI530
aI531
aI532
aI535
aI537
aI546
aI578
aI579
aI580
aI581
aI582
aI586
aI617
aI618
aI620
aI817
aI894
aI895
aI915
asI136
(lp136
I293
aI294
aI295
aI296
aI297
aI298
aI751
aI752
aI795
aI796
asI137
(lp137
I67
aI68
aI69
aI70
aI73
aI74
aI78
aI79
aI82
aI95
aI96
aI97
aI98
aI100
aI101
aI102
aI103
aI104
aI526
aI527
aI528
aI529
aI530
aI531
aI532
aI535
aI537
aI546
aI578
aI579
aI580
aI581
aI582
aI586
aI587
aI589
aI613
aI616
aI679
aI817
aI894
aI895
asI138
(lp138
I732
aI733
aI735
aI737
aI738
aI778
aI780
asI139
(lp139
I213
aI215
aI216
aI217
aI218
aI219
aI220
aI221
aI222
aI265
aI266
aI268
aI269
aI272
aI282
aI283
aI286
aI291
asI140
(lp140
I345
aI346
aI356
aI357
aI358
aI359
aI360
aI361
aI362
aI363
aI368
aI369
aI371
asI141
(lp141
I96
aI101
aI102
aI103
aI104
aI486
aI489
aI490
aI491
aI492
aI493
aI494
aI495
aI496
aI497
aI498
aI499
aI500
aI501
aI502
aI503
aI504
aI505
aI506
aI507
aI508
aI509
aI510
aI512
aI513
aI517
aI519
aI526
aI527
aI528
aI529
aI530
aI531
aI532
aI535
aI537
aI546
aI578
aI579
aI580
aI581
aI582
aI586
aI587
aI589
aI613
aI616
aI668
aI669
aI706
aI707
aI708
aI709
aI710
aI711
aI712
aI713
aI714
aI715
aI716
aI717
aI718
aI795
aI797
aI817
aI894
aI895
aI908
asI142
(lp142
I548
aI549
aI550
aI551
aI552
aI553
aI817
aI854
aI894
aI895
asI143
(lp143
I345
aI346
aI368
aI369
aI370
aI372
aI373
aI374
aI375
aI376
aI692
aI693
aI694
aI695
aI696
aI697
aI698
asI144
(lp144
I212
aI215
aI216
aI217
aI218
aI219
aI220
aI221
aI222
aI234
aI235
aI236
aI238
aI239
aI243
aI244
aI245
aI250
aI622
aI623
aI624
aI625
aI626
aI628
aI629
aI630
aI631
aI632
aI635
asI145
(lp145
I68
aI69
aI70
aI71
aI72
aI73
aI74
aI78
aI95
aI96
aI97
aI99
aI100
aI101
aI102
aI103
aI104
aI526
aI527
aI531
aI532
aI535
aI537
aI546
aI584
aI586
aI817
aI894
aI895
asI146
(lp146
I0
aI2
aI3
aI4
aI5
aI6
aI13
aI14
aI16
aI17
aI18
aI19
aI20
aI23
aI24
aI26
aI27
aI28
aI29
aI30
aI33
aI37
aI38
aI39
aI40
aI51
aI52
aI53
aI54
aI56
aI57
aI58
aI59
aI61
aI62
aI66
aI661
aI662
aI663
aI664
aI665
aI666
aI667
aI817
aI867
aI868
aI869
aI875
aI894
aI895
aI899
aI905
aI916
aI918
aI920
asI147
(lp147
I655
aI660
aI817
aI894
aI895
asI148
(lp148
I403
aI404
aI405
aI406
aI407
aI408
aI409
aI410
aI413
aI414
aI416
aI417
aI418
aI419
aI422
aI423
aI424
aI425
aI426
aI429
aI435
aI436
aI437
aI440
aI443
aI446
aI448
aI452
aI453
aI454
aI455
aI459
aI522
aI523
aI524
aI525
aI690
aI691
aI875
aI909
aI910
asI149
(lp149
I473
aI481
aI483
asI150
(lp150
I2
aI3
aI4
aI7
aI9
aI10
aI13
aI14
aI16
aI17
aI18
aI19
aI20
aI23
aI24
aI27
aI29
aI30
aI33
aI45
aI46
aI48
aI51
aI52
aI53
aI54
aI56
aI57
aI58
aI60
aI61
aI62
aI66
aI523
aI661
aI662
aI663
aI664
aI665
aI666
aI667
aI687
aI817
aI867
aI868
aI869
aI875
aI894
aI895
aI899
aI905
aI916
aI918
aI919
aI920
asI151
(lp151
I67
aI68
aI69
aI70
aI73
aI74
aI78
aI79
aI93
aI95
aI96
aI97
aI98
aI100
aI101
aI102
aI103
aI104
aI526
aI527
aI528
aI529
aI530
aI531
aI533
aI534
aI535
aI536
aI537
aI538
aI540
aI541
aI542
aI543
aI544
aI545
aI547
aI562
aI578
aI579
aI580
aI581
aI582
aI586
aI587
aI589
aI613
aI616
aI817
aI894
aI895
asI152
(lp152
I68
aI69
aI70
aI73
aI74
aI78
aI95
aI96
aI97
aI99
aI100
aI101
aI102
aI103
aI104
aI526
aI527
aI817
aI894
aI895
asI153
(lp153
I67
aI68
aI69
aI70
aI73
aI74
aI78
aI79
aI94
aI95
aI96
aI97
aI98
aI100
aI101
aI102
aI103
aI104
aI526
aI527
aI528
aI529
aI530
aI531
aI533
aI534
aI535
aI536
aI537
aI538
aI539
aI540
aI541
aI542
aI544
aI545
aI547
aI578
aI579
aI580
aI581
aI582
aI586
aI587
aI589
aI613
aI616
aI750
aI817
aI894
aI895
asI154
(lp154
I526
aI527
aI528
aI529
aI530
aI531
aI532
aI535
aI537
aI546
aI578
aI579
aI580
aI581
aI582
aI586
aI587
aI589
aI613
aI616
aI618
aI620
aI708
aI709
aI710
aI715
aI716
aI901
aI902
asI155
(lp155
I67
aI68
aI69
aI70
aI73
aI74
aI78
aI79
aI89
aI95
aI96
aI97
aI98
aI100
aI101
aI102
aI103
aI104
aI526
aI527
aI528
aI529
aI530
aI531
aI532
aI535
aI537
aI546
aI578
aI579
aI580
aI581
aI582
aI586
aI587
aI588
aI589
aI590
aI613
aI616
aI817
aI845
aI846
aI894
aI895
asI156
(lp156
I526
aI527
aI528
aI529
aI530
aI531
aI532
aI535
aI537
aI546
aI578
aI579
aI580
aI581
aI582
aI586
aI587
aI589
aI613
aI616
aI617
aI618
aI620
aI708
aI709
aI710
aI715
aI716
aI901
aI902
asI157
(lp157
I613
aI614
aI615
aI616
asI158
(lp158
I526
aI527
aI528
aI529
aI530
aI531
aI532
aI535
aI537
aI546
aI578
aI579
aI580
aI581
aI582
aI586
aI587
aI589
aI613
aI616
aI710
aI715
aI716
asI159
(lp159
I345
aI346
aI347
aI348
aI349
aI350
aI351
aI352
aI354
aI355
aI360
aI361
aI362
aI363
aI364
aI365
aI366
aI367
aI368
aI369
aI370
aI371
aI382
aI383
aI385
aI386
aI387
aI388
aI391
aI395
aI396
aI397
asI160
(lp160
I403
aI404
aI405
aI406
aI407
aI410
aI426
aI427
aI428
aI429
aI435
aI438
aI440
aI443
aI446
aI448
aI452
aI453
aI454
aI455
aI459
aI522
aI523
aI524
aI525
aI875
asI161
(lp161
I2
aI3
aI4
aI5
aI6
aI7
aI8
aI13
aI14
aI20
aI22
aI37
aI38
aI40
aI52
aI54
aI55
aI58
aI59
aI61
aI66
aI523
aI817
aI875
aI894
aI895
aI904
aI905
aI916
aI918
asI162
(lp162
I96
aI101
aI102
aI103
aI104
aI817
aI894
aI895
asI163
(lp163
I825
aI826
aI827
aI829
asI164
(lp164
I96
aI101
aI102
aI103
aI104
aI494
aI495
aI496
aI497
aI514
aI515
aI516
aI520
aI521
aI687
aI795
aI797
aI817
aI894
aI895
aI918
asI165
(lp165
I0
aI11
aI27
aI28
aI687
aI817
aI894
aI895
asI166
(lp166
I613
aI616
aI636
aI637
aI647
aI648
aI649
aI650
asI167
(lp167
I622
aI623
aI624
aI625
aI626
aI628
aI629
aI630
aI631
aI632
aI635
aI638
aI639
aI640
aI641
aI643
aI645
aI646
aI651
asI168
(lp168
I345
aI346
aI368
aI369
aI370
aI371
aI372
aI373
aI374
aI375
aI376
aI377
aI378
aI379
aI380
aI381
asI169
(lp169
I41
aI42
asI170
(lp170
I778
aI780
aI781
aI782
aI783
aI784
aI785
aI786
aI788
aI886
asI171
(lp171
I778
aI779
asI172
(lp172
I403
aI404
aI405
aI406
aI407
aI409
aI412
aI413
aI414
aI416
aI417
aI418
aI419
aI426
aI429
aI435
aI438
aI440
aI443
aI446
aI448
aI452
aI453
aI454
aI455
aI459
aI522
aI523
aI524
aI525
aI682
aI683
aI684
aI685
aI686
aI690
aI691
aI875
asI173
(lp173
I212
aI215
aI216
aI222
aI234
aI237
aI243
aI244
aI250
aI624
aI633
asI174
(lp174
I622
aI623
aI624
aI625
aI626
aI628
aI633
aI634
aI635
asI175
(lp175
I446
aI447
aI448
aI449
asI176
(lp176
I745
aI746
aI748
aI799
aI801
asI177
(lp177
I403
aI404
aI405
aI406
aI407
aI410
aI426
aI429
aI430
aI431
aI432
aI433
aI434
aI435
aI438
aI439
aI440
aI443
aI446
aI448
aI452
aI453
aI454
aI455
aI459
aI522
aI523
aI524
aI525
aI771
aI772
aI773
aI774
aI775
aI776
aI777
aI875
asI178
(lp178
I96
aI101
aI102
aI103
aI104
aI494
aI495
aI521
aI817
aI894
aI895
asI179
(lp179
I67
aI68
aI69
aI70
aI73
aI74
aI78
aI79
aI81
aI95
aI96
aI97
aI98
aI100
aI101
aI102
aI103
aI104
aI486
aI487
aI488
aI493
aI494
aI495
aI496
aI497
aI498
aI499
aI500
aI501
aI504
aI505
aI506
aI507
aI508
aI509
aI510
aI511
aI517
aI518
aI521
aI526
aI527
aI528
aI529
aI530
aI531
aI532
aI535
aI537
aI546
aI571
aI572
aI573
aI574
aI575
aI576
aI577
aI578
aI579
aI580
aI581
aI582
aI583
aI585
aI586
aI587
aI588
aI590
aI591
aI749
aI817
aI894
aI895
asI180
(lp180
I655
aI660
aI817
aI894
aI895
asI181
(lp181
I67
aI68
aI69
aI70
aI73
aI74
aI78
aI87
aI95
aI96
aI97
aI98
aI100
aI101
aI102
aI103
aI104
aI526
aI527
aI531
aI533
aI535
aI536
aI537
aI547
aI803
aI804
aI817
aI894
aI895
asI182
(lp182
I2
aI3
aI4
aI5
aI6
aI7
aI8
aI13
aI14
aI16
aI19
aI20
aI25
aI29
aI30
aI37
aI38
aI40
aI51
aI52
aI53
aI54
aI56
aI57
aI58
aI59
aI61
aI62
aI66
aI661
aI662
aI663
aI664
aI665
aI817
aI867
aI869
aI875
aI894
aI895
aI899
aI905
aI916
aI918
asI183
(lp183
I817
aI894
aI895
asI184
(lp184
I403
aI404
aI405
aI406
aI407
aI409
aI412
aI413
aI414
aI415
aI420
aI421
aI426
aI429
aI435
aI438
aI440
aI443
aI446
aI448
aI452
aI453
aI454
aI455
aI459
aI522
aI523
aI524
aI525
aI682
aI683
aI684
aI685
aI686
aI689
aI690
aI691
aI875
asI185
(lp185
I213
aI215
aI216
aI217
aI218
aI219
aI220
aI221
aI222
aI224
aI227
aI229
aI231
aI232
aI233
aI282
asI186
(lp186
I2
aI3
aI4
aI58
aI817
aI894
aI895
asI187
(lp187
I73
aI77
aI96
aI101
aI102
aI103
aI104
aI817
aI894
aI895
asI188
(lp188
I614
aI616
aI636
aI638
aI639
aI640
aI642
aI643
aI644
aI646
asI189
(lp189
I67
aI68
aI69
aI70
aI73
aI74
aI78
aI79
aI90
aI95
aI96
aI97
aI98
aI100
aI101
aI102
aI103
aI104
aI486
aI488
aI493
aI494
aI495
aI496
aI497
aI498
aI499
aI500
aI501
aI504
aI505
aI506
aI507
aI508
aI509
aI510
aI511
aI517
aI518
aI521
aI526
aI527
aI528
aI529
aI530
aI531
aI532
aI535
aI537
aI546
aI578
aI579
aI580
aI581
aI582
aI586
aI587
aI588
aI589
aI590
aI604
aI605
aI606
aI607
aI608
aI609
aI610
aI611
aI612
aI613
aI616
aI753
aI754
aI755
aI817
aI894
aI895
asI190
(lp190
I49
aI50
asI191
(lp191
I105
aI106
aI107
aI108
aI109
aI110
aI111
aI112
aI113
aI114
aI115
aI116
aI117
aI118
aI119
aI120
aI121
aI122
aI123
aI124
aI125
aI126
aI127
aI128
aI129
aI131
asI192
(lp192
I593
aI594
aI595
aI596
aI597
aI598
asI193
(lp193
I2
aI3
aI4
aI12
aI29
aI30
aI51
aI52
aI53
aI54
aI56
aI57
aI58
aI65
aI66
aI652
aI653
aI656
aI657
aI658
aI659
aI817
aI875
aI894
aI895
aI899
aI916
asI194
(lp194
I614
aI616
aI621
aI622
aI623
aI624
aI625
aI626
aI628
aI629
aI630
aI631
aI632
aI635
aI636
aI638
aI639
aI640
aI642
aI643
aI644
aI646
aI647
aI649
aI650
aI651
asI195
(lp195
I526
aI527
aI528
aI529
aI530
aI531
aI532
aI535
aI537
aI546
aI578
aI579
aI580
aI581
aI582
aI586
aI587
aI589
aI613
aI616
aI708
aI709
aI710
aI715
aI716
aI920
asI196
(lp196
I638
aI639
aI640
aI641
aI642
aI643
aI644
aI645
aI646
asI197
(lp197
I212
aI215
aI216
aI217
aI218
aI219
aI220
aI221
aI222
aI234
aI235
aI236
aI238
aI243
aI244
aI245
aI250
aI622
aI623
aI624
aI625
aI626
aI628
aI629
aI630
aI631
aI632
aI635
asI198
(lp198
I747
asI199
(lp199
I724
aI725
aI726
aI727
aI763
aI764
aI766
aI767
aI817
aI894
aI895
asI200
(lp200
I778
aI780
aI781
aI782
aI783
aI784
aI785
aI786
aI788
aI886
asI201
(lp201
I681
aI799
aI800
aI801
aI802
asI203
(lp202
I719
aI720
aI721
aI722
aI724
aI725
aI726
aI727
aI761
aI762
aI763
aI764
aI766
aI767
aI768
aI769
aI770
aI817
aI894
aI895
asI204
(lp203
I96
aI101
aI102
aI103
aI104
aI494
aI817
aI894
aI895
asI205
(lp204
I345
aI346
aI356
aI357
aI358
aI359
aI360
aI361
aI363
aI364
aI365
aI368
aI369
aI370
aI371
asI206
(lp205
I67
aI68
aI69
aI70
aI73
aI74
aI78
aI79
aI83
aI95
aI96
aI97
aI98
aI100
aI101
aI102
aI103
aI104
aI526
aI527
aI528
aI529
aI530
aI531
aI533
aI534
aI535
aI536
aI537
aI538
aI539
aI540
aI541
aI542
aI544
aI545
aI547
aI578
aI579
aI580
aI581
aI582
aI586
aI587
aI589
aI613
aI616
aI817
aI880
aI894
aI895
asI207
(lp206
I719
aI720
aI721
aI722
aI723
aI724
aI725
aI726
aI727
aI764
aI766
aI767
aI768
aI769
aI770
aI817
aI855
aI856
aI857
aI858
aI894
aI895
asI208
(lp207
I756
aI758
aI759
aI760
asI209
(lp208
I212
aI215
aI216
aI222
aI254
aI255
asI210
(lp209
I622
aI623
aI624
aI625
aI626
aI628
aI629
aI630
aI631
aI632
aI635
asI211
(lp210
I172
aI173
aI174
aI175
aI176
aI177
aI178
aI179
aI180
aI181
aI812
aI813
aI814
aI815
aI816
aI823
aI824
asI212
(lp211
I212
aI215
aI216
aI217
aI218
aI219
aI220
aI221
aI222
aI234
aI239
aI240
aI241
aI246
aI247
aI249
asI213
(lp212
I2
aI3
aI4
aI5
aI6
aI7
aI8
aI14
aI15
aI21
aI37
aI38
aI40
aI817
aI894
aI895
asI214
(lp213
I403
aI404
aI405
aI406
aI407
aI409
aI412
aI413
aI414
aI415
aI420
aI421
aI426
aI429
aI435
aI438
aI440
aI443
aI446
aI448
aI452
aI453
aI454
aI455
aI459
aI522
aI523
aI524
aI525
aI690
aI691
aI875
aI884
aI885
asI215
(lp214
I213
aI215
aI216
aI217
aI218
aI219
aI220
aI221
aI222
aI251
aI262
aI263
aI280
aI281
aI282
aI283
aI699
aI700
aI701
aI702
aI703
aI704
aI705
asI216
(lp215
I67
aI68
aI69
aI70
aI73
aI74
aI78
aI79
aI85
aI95
aI96
aI97
aI98
aI100
aI101
aI102
aI103
aI104
aI526
aI527
aI528
aI529
aI530
aI531
aI532
aI535
aI537
aI546
aI578
aI579
aI580
aI581
aI582
aI586
aI587
aI588
aI590
aI817
aI890
aI894
aI895
asI217
(lp216
I692
as.