(dp0
I1
(lp1
I270
aI276
aI277
aI278
aI279
aI280
asI4
(lp2
I114
aI115
aI124
aI182
aI183
aI184
aI185
aI186
aI187
aI188
aI289
aI328
aI329
aI330
aI332
aI333
aI334
asI5
(lp3
I298
aI299
aI300
aI347
asI6
(lp4
I0
aI2
aI4
aI6
aI8
aI12
aI13
aI16
aI18
aI27
aI29
aI31
aI33
aI36
aI37
aI43
aI44
aI46
aI47
aI48
aI49
aI50
aI52
aI53
aI54
aI55
aI56
aI58
aI59
aI60
aI61
aI62
aI63
aI64
aI65
aI225
aI226
aI228
aI229
aI230
aI269
aI270
aI271
aI279
aI280
aI294
aI295
aI296
aI311
aI312
aI314
aI340
asI7
(lp5
I238
aI239
aI240
aI243
aI244
aI245
aI246
aI270
aI298
aI299
aI300
aI306
aI308
aI309
aI344
aI347
asI8
(lp6
I0
aI4
aI6
aI8
aI12
aI13
aI17
aI27
aI29
aI31
aI33
aI36
aI37
aI42
aI43
aI44
aI47
aI51
aI55
aI60
aI63
aI269
aI270
aI271
aI279
aI280
aI298
aI299
aI300
aI301
aI340
aI347
asI9
(lp7
I293
aI294
aI295
aI297
asI10
(lp8
I140
aI141
aI143
aI144
aI145
aI148
aI269
aI300
asI11
(lp9
I257
aI258
aI339
asI12
(lp10
I0
aI1
aI4
aI6
aI8
aI12
aI13
aI16
aI19
aI27
aI29
aI31
aI33
aI36
aI37
aI38
aI47
aI51
aI55
aI60
aI62
aI70
aI75
aI80
aI81
aI82
aI83
aI84
aI85
aI86
aI87
aI88
aI90
aI93
aI94
aI95
aI99
aI100
aI102
aI103
aI104
aI105
aI106
aI111
aI112
aI114
aI115
aI118
aI120
aI121
aI124
aI182
aI183
aI184
aI185
aI186
aI187
aI188
aI189
aI226
aI227
aI228
aI229
aI230
aI231
aI269
aI270
aI271
aI279
aI280
aI289
aI290
aI317
aI324
aI326
aI327
aI328
aI329
aI330
aI331
aI332
aI333
aI334
aI340
aI341
aI342
asI13
(lp11
I270
aI300
asI14
(lp12
I0
aI1
aI4
aI6
aI8
aI12
aI13
aI14
aI15
aI16
aI19
aI23
aI27
aI29
aI31
aI33
aI36
aI37
aI38
aI47
aI51
aI55
aI60
aI62
aI66
aI67
aI70
aI71
aI74
aI80
aI81
aI82
aI83
aI84
aI85
aI87
aI88
aI90
aI97
aI98
aI101
aI103
aI104
aI105
aI111
aI112
aI113
aI118
aI120
aI121
aI124
aI182
aI183
aI184
aI185
aI186
aI187
aI188
aI189
aI220
aI221
aI222
aI223
aI226
aI227
aI228
aI229
aI230
aI231
aI269
aI270
aI271
aI279
aI280
aI289
aI290
aI292
aI317
aI325
aI326
aI327
aI329
aI339
aI340
aI341
aI342
asI16
(lp13
I230
aI269
asI17
(lp14
I0
aI4
aI6
aI8
aI12
aI13
aI16
aI27
aI29
aI31
aI33
aI36
aI37
aI52
aI54
aI56
aI60
aI61
aI62
aI63
aI64
aI65
aI123
aI194
aI195
aI197
aI199
aI200
aI202
aI226
aI228
aI229
aI230
aI232
aI234
aI235
aI269
aI270
aI271
aI279
aI280
aI295
aI296
aI311
aI314
aI340
asI18
(lp15
I120
aI122
aI123
aI194
aI197
aI199
aI207
asI19
(lp16
I0
aI1
aI4
aI6
aI8
aI12
aI13
aI16
aI19
aI27
aI29
aI31
aI33
aI36
aI37
aI38
aI47
aI51
aI55
aI60
aI62
aI226
aI227
aI228
aI229
aI230
aI231
aI269
aI270
aI271
aI279
aI280
aI317
aI340
aI341
aI342
asI20
(lp17
I0
aI4
aI6
aI8
aI12
aI13
aI16
aI17
aI20
aI27
aI29
aI31
aI33
aI36
aI37
aI40
aI43
aI45
aI50
aI52
aI53
aI54
aI56
aI60
aI61
aI62
aI63
aI64
aI65
aI232
aI234
aI235
aI236
aI237
aI270
aI271
aI279
aI280
aI295
aI296
aI298
aI299
aI300
aI311
aI312
aI314
aI340
aI346
aI347
asI22
(lp18
I224
aI227
aI228
aI229
aI230
aI231
asI23
(lp19
I276
aI277
aI279
aI280
aI281
asI25
(lp20
I0
aI4
aI6
aI8
aI12
aI13
aI16
aI17
aI20
aI27
aI29
aI31
aI33
aI36
aI37
aI39
aI42
aI43
aI45
aI47
aI51
aI55
aI60
aI62
aI225
aI226
aI227
aI228
aI229
aI230
aI231
aI269
aI270
aI271
aI279
aI280
aI340
asI27
(lp21
I0
aI2
aI4
aI6
aI8
aI12
aI13
aI16
aI17
aI18
aI20
aI27
aI29
aI31
aI33
aI36
aI37
aI40
aI43
aI45
aI47
aI48
aI49
aI50
aI52
aI53
aI54
aI55
aI56
aI58
aI60
aI61
aI62
aI225
aI226
aI228
aI229
aI230
aI269
aI270
aI271
aI279
aI280
aI294
aI296
aI311
aI312
aI314
aI340
asI28
(lp22
I262
aI263
aI264
aI265
aI268
asI29
(lp23
I0
aI2
aI4
aI6
aI8
aI12
aI13
aI16
aI18
aI27
aI29
aI31
aI33
aI36
aI37
aI52
aI54
aI55
aI56
aI58
aI60
aI61
aI62
aI63
aI64
aI65
aI226
aI228
aI229
aI230
aI269
aI270
aI271
aI279
aI280
aI293
aI295
aI296
aI311
aI313
aI314
aI340
asI30
(lp24
I126
aI129
aI131
aI133
aI140
aI142
aI143
asI31
(lp25
I0
aI1
aI4
aI6
aI8
aI12
aI13
aI16
aI19
aI27
aI29
aI31
aI33
aI36
aI37
aI38
aI47
aI51
aI55
aI60
aI62
aI70
aI75
aI80
aI81
aI82
aI83
aI84
aI85
aI87
aI88
aI90
aI93
aI94
aI95
aI99
aI100
aI102
aI103
aI104
aI105
aI111
aI112
aI114
aI115
aI118
aI120
aI121
aI124
aI182
aI183
aI184
aI185
aI186
aI187
aI188
aI189
aI226
aI227
aI228
aI229
aI230
aI231
aI269
aI270
aI271
aI279
aI280
aI289
aI290
aI317
aI325
aI326
aI327
aI329
aI340
aI341
aI342
asI32
(lp26
I0
aI1
aI4
aI6
aI8
aI12
aI13
aI16
aI19
aI27
aI29
aI31
aI33
aI36
aI37
aI38
aI47
aI51
aI55
aI60
aI62
aI80
aI81
aI82
aI83
aI84
aI86
aI87
aI104
aI105
aI106
aI114
aI115
aI116
aI117
aI124
aI182
aI183
aI184
aI185
aI186
aI187
aI188
aI189
aI190
aI191
aI226
aI227
aI228
aI229
aI230
aI231
aI269
aI270
aI271
aI279
aI280
aI289
aI290
aI292
aI317
aI326
aI328
aI329
aI330
aI332
aI333
aI334
aI340
aI341
aI342
asI34
(lp27
I313
asI35
(lp28
I257
aI258
aI339
asI36
(lp29
I0
aI4
aI6
aI8
aI12
aI13
aI17
aI27
aI29
aI31
aI33
aI36
aI37
aI42
aI43
aI44
aI47
aI51
aI55
aI60
aI63
aI64
aI65
aI269
aI270
aI271
aI279
aI280
aI298
aI299
aI300
aI301
aI315
aI340
aI341
aI347
asI37
(lp30
I182
aI183
aI184
aI185
aI186
aI187
aI188
aI328
aI329
aI330
aI332
aI333
aI334
asI39
(lp31
I0
aI1
aI4
aI6
aI8
aI12
aI13
aI16
aI19
aI27
aI29
aI31
aI33
aI36
aI37
aI38
aI47
aI51
aI55
aI60
aI62
aI70
aI75
aI80
aI81
aI82
aI83
aI84
aI85
aI86
aI87
aI88
aI90
aI93
aI94
aI95
aI99
aI100
aI102
aI103
aI104
aI105
aI106
aI111
aI112
aI114
aI115
aI118
aI120
aI121
aI124
aI182
aI183
aI184
aI185
aI186
aI187
aI188
aI189
aI226
aI227
aI228
aI229
aI230
aI231
aI269
aI270
aI271
aI279
aI280
aI289
aI290
aI317
aI326
aI328
aI329
aI330
aI332
aI333
aI334
aI340
aI341
aI342
asI42
(lp32
I230
aI270
asI43
(lp33
I213
aI214
aI216
aI218
aI272
aI274
aI275
aI287
asI44
(lp34
I0
aI1
aI4
aI6
aI8
aI10
aI12
aI13
aI14
aI15
aI16
aI19
aI23
aI27
aI29
aI31
aI33
aI36
aI37
aI38
aI47
aI51
aI55
aI60
aI62
aI226
aI227
aI228
aI229
aI230
aI231
aI269
aI270
aI271
aI279
aI280
asI45
(lp35
I245
aI308
asI46
(lp36
I0
aI1
aI4
aI6
aI8
aI12
aI13
aI16
aI19
aI27
aI29
aI31
aI33
aI36
aI37
aI38
aI47
aI51
aI55
aI60
aI62
aI226
aI227
aI228
aI229
aI230
aI231
aI269
aI270
aI271
aI279
aI280
aI317
aI340
aI341
aI342
asI47
(lp37
I0
aI1
aI4
aI5
aI6
aI7
aI8
aI12
aI13
aI19
aI26
aI31
aI32
aI35
aI36
aI37
aI38
aI47
aI51
aI226
aI228
aI229
aI230
aI269
aI270
aI271
aI279
aI280
aI340
aI350
asI49
(lp38
I0
aI2
aI4
aI6
aI8
aI12
aI13
aI16
aI18
aI27
aI29
aI31
aI33
aI36
aI37
aI47
aI48
aI49
aI50
aI52
aI53
aI54
aI55
aI56
aI57
aI58
aI60
aI61
aI62
aI63
aI64
aI65
aI226
aI227
aI228
aI229
aI230
aI231
aI269
aI270
aI271
aI279
aI280
aI293
aI294
aI295
aI296
aI311
aI312
aI314
aI340
asI51
(lp39
I107
aI108
aI109
aI110
aI114
aI116
aI117
aI123
aI156
aI157
aI192
aI194
aI197
aI199
aI203
asI52
(lp40
I241
aI242
aI243
aI244
aI245
aI270
aI300
aI307
aI308
aI309
asI54
(lp41
I208
aI212
aI213
aI214
aI215
aI216
aI217
aI218
aI219
aI272
aI273
aI275
aI283
aI285
aI286
aI287
asI56
(lp42
I37
aI52
aI279
aI300
aI311
asI57
(lp43
I0
aI2
aI4
aI6
aI8
aI12
aI13
aI16
aI17
aI18
aI20
aI27
aI29
aI31
aI33
aI36
aI37
aI40
aI43
aI45
aI47
aI48
aI49
aI50
aI52
aI53
aI54
aI55
aI56
aI58
aI60
aI61
aI62
aI63
aI64
aI65
aI226
aI227
aI228
aI229
aI230
aI231
aI269
aI270
aI271
aI279
aI280
aI294
aI295
aI296
aI311
aI312
aI314
aI340
asI58
(lp44
I227
aI228
aI229
aI230
aI231
asI59
(lp45
I293
aI294
aI295
aI296
asI61
(lp46
I238
aI240
aI245
aI306
aI308
asI62
(lp47
I125
aI127
aI129
aI130
aI133
aI140
aI141
aI142
aI143
aI344
asI63
(lp48
I0
aI2
aI4
aI6
aI8
aI9
aI10
aI11
aI12
aI13
aI14
aI15
aI16
aI18
aI21
aI23
aI27
aI29
aI31
aI33
aI36
aI37
aI47
aI48
aI49
aI50
aI52
aI53
aI54
aI55
aI56
aI57
aI58
aI60
aI61
aI62
aI63
aI64
aI65
aI149
aI154
aI157
aI158
aI226
aI227
aI228
aI229
aI230
aI231
aI248
aI269
aI270
aI271
aI279
aI280
aI294
aI295
aI296
aI311
aI312
aI314
aI345
asI65
(lp49
I208
aI212
aI214
aI215
aI216
aI217
aI218
aI219
aI272
aI273
aI274
aI275
aI283
aI284
aI285
aI286
asI66
(lp50
I1
aI4
aI5
aI8
aI31
aI32
aI33
aI34
aI35
aI36
aI47
aI63
aI64
aI65
aI270
aI279
aI280
asI67
(lp51
I245
aI270
aI308
asI69
(lp52
I293
aI294
aI295
aI297
asI70
(lp53
I0
aI4
aI6
aI8
aI12
aI13
aI16
aI17
aI20
aI27
aI29
aI31
aI33
aI36
aI37
aI39
aI42
aI43
aI45
aI47
aI51
aI55
aI60
aI62
aI225
aI226
aI228
aI229
aI230
aI269
aI270
aI271
aI279
aI280
aI315
aI316
aI340
aI341
aI349
asI71
(lp54
I266
aI268
asI72
(lp55
I149
aI156
aI158
aI250
asI73
(lp56
I0
aI4
aI6
aI8
aI12
aI13
aI15
aI23
aI27
aI29
aI31
aI33
aI36
aI37
aI47
aI51
aI55
aI63
aI64
aI65
aI226
aI227
aI228
aI229
aI230
aI231
aI269
aI270
aI271
aI279
aI280
aI339
aI340
asI74
(lp57
I0
aI4
aI6
aI8
aI12
aI13
aI16
aI17
aI27
aI29
aI31
aI33
aI36
aI37
aI42
aI43
aI44
aI47
aI51
aI55
aI60
aI62
aI63
aI64
aI65
aI225
aI226
aI227
aI228
aI229
aI230
aI231
aI269
aI270
aI271
aI279
aI280
aI340
asI75
(lp58
I0
aI4
aI6
aI8
aI12
aI13
aI16
aI19
aI27
aI29
aI31
aI33
aI36
aI37
aI40
aI50
aI52
aI53
aI54
aI56
aI57
aI60
aI61
aI62
aI63
aI64
aI65
aI70
aI75
aI83
aI84
aI85
aI86
aI88
aI90
aI97
aI98
aI101
aI104
aI105
aI106
aI114
aI115
aI119
aI123
aI124
aI181
aI182
aI183
aI184
aI185
aI186
aI187
aI188
aI189
aI198
aI202
aI204
aI205
aI206
aI226
aI227
aI228
aI229
aI230
aI231
aI232
aI234
aI235
aI237
aI269
aI270
aI271
aI279
aI280
aI289
aI295
aI296
aI311
aI312
aI314
aI340
aI343
asI76
(lp59
I0
aI1
aI4
aI6
aI8
aI10
aI12
aI13
aI14
aI15
aI16
aI19
aI23
aI27
aI29
aI31
aI33
aI36
aI37
aI38
aI47
aI51
aI55
aI60
aI62
aI67
aI68
aI69
aI73
aI76
aI77
aI78
aI80
aI81
aI82
aI83
aI84
aI85
aI86
aI87
aI88
aI90
aI97
aI98
aI101
aI103
aI104
aI105
aI106
aI111
aI112
aI113
aI118
aI120
aI121
aI124
aI149
aI152
aI154
aI156
aI157
aI182
aI183
aI184
aI185
aI186
aI187
aI188
aI189
aI226
aI227
aI228
aI229
aI230
aI231
aI247
aI248
aI269
aI270
aI271
aI279
aI280
aI289
aI290
aI292
aI302
aI303
aI304
aI305
aI317
aI326
aI328
aI329
aI330
aI332
aI333
aI334
aI336
aI341
aI342
asI78
(lp60
I245
aI308
asI79
(lp61
I0
aI1
aI4
aI5
aI6
aI7
aI8
aI12
aI13
aI16
aI19
aI26
aI27
aI28
aI31
aI32
aI34
aI35
aI36
aI37
aI38
aI47
aI51
aI55
aI60
aI62
aI226
aI227
aI228
aI229
aI230
aI231
aI269
aI270
aI271
aI279
aI280
aI340
aI350
asI80
(lp62
I0
aI4
aI6
aI8
aI10
aI12
aI13
aI14
aI15
aI16
aI17
aI23
aI27
aI29
aI31
aI33
aI36
aI37
aI42
aI43
aI44
aI47
aI51
aI55
aI60
aI62
aI63
aI64
aI65
aI149
aI150
aI152
aI160
aI161
aI162
aI163
aI164
aI165
aI225
aI226
aI227
aI228
aI229
aI230
aI231
aI251
aI252
aI253
aI254
aI255
aI256
aI269
aI270
aI271
aI279
aI280
aI282
aI302
aI335
aI336
aI348
asI81
(lp63
I0
aI4
aI6
aI8
aI12
aI13
aI14
aI15
aI16
aI17
aI23
aI27
aI29
aI31
aI33
aI36
aI37
aI42
aI43
aI44
aI47
aI51
aI55
aI60
aI62
aI63
aI64
aI65
aI163
aI164
aI165
aI170
aI171
aI172
aI173
aI174
aI176
aI177
aI178
aI179
aI180
aI225
aI226
aI227
aI228
aI229
aI230
aI231
aI251
aI252
aI253
aI254
aI255
aI256
aI257
aI258
aI259
aI260
aI261
aI269
aI270
aI271
aI279
aI280
aI282
aI339
aI340
aI348
asI82
(lp64
I0
aI1
aI4
aI5
aI8
aI12
aI13
aI19
aI31
aI32
aI33
aI34
aI35
aI36
aI37
aI38
aI47
aI51
aI226
aI228
aI229
aI230
aI269
aI270
aI271
aI279
aI280
aI340
asI83
(lp65
I257
aI258
aI339
asI84
(lp66
I345
asI85
(lp67
I126
aI128
aI132
aI133
aI140
aI141
aI143
aI344
asI86
(lp68
I300
aI344
asI87
(lp69
I0
aI4
aI6
aI8
aI12
aI13
aI27
aI29
aI31
aI33
aI36
aI37
aI47
aI51
aI55
aI63
aI64
aI65
aI270
aI271
aI279
aI280
aI298
aI299
aI300
aI340
aI347
asI88
(lp70
I0
aI1
aI4
aI6
aI8
aI12
aI13
aI16
aI19
aI27
aI29
aI31
aI33
aI36
aI37
aI38
aI47
aI51
aI55
aI60
aI62
aI226
aI227
aI228
aI229
aI230
aI231
aI269
aI270
aI271
aI279
aI280
aI340
asI89
(lp71
I119
aI123
aI194
aI197
aI198
aI206
asI90
(lp72
I0
aI4
aI6
aI8
aI12
aI13
aI16
aI17
aI20
aI27
aI29
aI31
aI33
aI36
aI37
aI40
aI43
aI45
aI50
aI52
aI53
aI54
aI56
aI60
aI61
aI62
aI63
aI64
aI65
aI232
aI234
aI235
aI236
aI237
aI270
aI271
aI279
aI280
aI295
aI296
aI298
aI299
aI300
aI311
aI312
aI314
aI340
aI346
aI347
asI91
(lp73
I270
aI276
aI277
aI279
asI94
(lp74
I270
aI300
asI95
(lp75
I269
aI300
aI301
asI96
(lp76
I0
aI1
aI4
aI6
aI8
aI10
aI12
aI13
aI14
aI15
aI16
aI19
aI23
aI27
aI29
aI31
aI33
aI36
aI37
aI38
aI47
aI51
aI55
aI60
aI62
aI67
aI68
aI69
aI73
aI76
aI77
aI78
aI80
aI81
aI82
aI83
aI84
aI85
aI86
aI87
aI88
aI90
aI97
aI98
aI101
aI103
aI104
aI105
aI106
aI111
aI112
aI113
aI118
aI120
aI121
aI124
aI149
aI154
aI156
aI157
aI158
aI182
aI183
aI184
aI185
aI186
aI187
aI188
aI189
aI226
aI227
aI228
aI229
aI230
aI231
aI248
aI249
aI250
aI269
aI270
aI271
aI279
aI280
aI289
aI290
aI292
aI317
aI326
aI328
aI329
aI330
aI332
aI333
aI334
aI341
aI342
asI97
(lp77
I0
aI4
aI6
aI8
aI12
aI13
aI17
aI27
aI29
aI31
aI33
aI36
aI37
aI42
aI43
aI44
aI47
aI51
aI55
aI60
aI63
aI64
aI65
aI226
aI228
aI229
aI230
aI269
aI270
aI271
aI279
aI280
aI315
aI340
aI341
asI99
(lp78
I269
aI322
aI323
asI100
(lp79
I0
aI4
aI6
aI8
aI12
aI13
aI16
aI27
aI29
aI31
aI33
aI36
aI37
aI52
aI54
aI56
aI60
aI61
aI62
aI63
aI64
aI65
aI232
aI234
aI235
aI270
aI271
aI279
aI280
aI295
aI296
aI298
aI299
aI300
aI311
aI314
aI340
aI347
asI101
(lp80
I0
aI4
aI6
aI8
aI12
aI13
aI16
aI19
aI27
aI29
aI31
aI33
aI36
aI37
aI40
aI50
aI52
aI53
aI54
aI56
aI60
aI61
aI62
aI63
aI64
aI65
aI226
aI227
aI228
aI229
aI230
aI231
aI232
aI234
aI235
aI237
aI269
aI270
aI271
aI279
aI280
aI295
aI296
aI311
aI312
aI314
aI340
aI343
asI103
(lp81
I267
asI104
(lp82
I0
aI1
aI4
aI6
aI8
aI12
aI13
aI14
aI15
aI16
aI19
aI23
aI27
aI29
aI31
aI33
aI36
aI37
aI38
aI47
aI51
aI55
aI60
aI62
aI70
aI72
aI75
aI79
aI80
aI81
aI82
aI83
aI84
aI85
aI86
aI87
aI88
aI90
aI97
aI98
aI101
aI103
aI104
aI105
aI106
aI111
aI112
aI113
aI118
aI120
aI121
aI124
aI182
aI183
aI184
aI185
aI186
aI187
aI188
aI189
aI226
aI227
aI228
aI229
aI230
aI231
aI257
aI258
aI269
aI270
aI271
aI279
aI280
aI289
aI290
aI292
aI317
aI326
aI328
aI329
aI330
aI332
aI333
aI334
aI339
aI340
aI341
aI342
asI105
(lp83
I0
aI4
aI6
aI8
aI10
aI12
aI13
aI15
aI17
aI23
aI27
aI29
aI31
aI33
aI36
aI37
aI42
aI43
aI44
aI47
aI51
aI55
aI60
aI63
aI64
aI65
aI149
aI160
aI162
aI164
aI176
aI177
aI178
aI179
aI180
aI226
aI227
aI228
aI229
aI230
aI231
aI251
aI252
aI253
aI254
aI255
aI269
aI270
aI271
aI279
aI280
aI335
aI336
aI348
asI107
(lp84
I208
aI209
aI210
aI211
aI212
aI213
aI214
aI215
aI216
aI217
aI218
aI219
aI272
aI273
aI274
aI275
aI283
aI284
aI285
aI286
aI287
asI108
(lp85
I0
aI4
aI6
aI8
aI12
aI13
aI16
aI19
aI27
aI29
aI31
aI33
aI36
aI37
aI41
aI52
aI54
aI56
aI57
aI58
aI61
aI62
aI226
aI227
aI228
aI229
aI230
aI231
aI269
aI270
aI271
aI279
aI280
aI295
aI297
aI311
aI314
aI340
asI110
(lp86
I0
aI4
aI6
aI8
aI12
aI13
aI16
aI27
aI29
aI31
aI33
aI36
aI37
aI52
aI54
aI56
aI60
aI61
aI62
aI63
aI64
aI65
aI111
aI113
aI114
aI116
aI117
aI123
aI193
aI194
aI196
aI197
aI199
aI201
aI203
aI204
aI226
aI228
aI229
aI230
aI232
aI234
aI235
aI269
aI270
aI271
aI279
aI280
aI295
aI296
aI311
aI314
aI340
asI111
(lp87
I0
aI1
aI4
aI6
aI8
aI12
aI13
aI16
aI19
aI27
aI29
aI31
aI33
aI36
aI37
aI38
aI47
aI51
aI55
aI60
aI62
aI226
aI227
aI228
aI229
aI230
aI231
aI269
aI270
aI271
aI279
aI280
aI340
asI112
(lp88
I126
aI128
aI129
aI131
aI132
aI133
aI140
aI141
aI142
aI143
aI144
aI145
aI146
aI147
aI300
aI344
asI113
(lp89
I0
aI4
aI6
aI8
aI12
aI13
aI17
aI27
aI29
aI31
aI33
aI36
aI37
aI42
aI43
aI44
aI47
aI51
aI55
aI60
aI63
aI64
aI65
aI75
aI83
aI84
aI85
aI86
aI88
aI89
aI90
aI93
aI94
aI95
aI96
aI100
aI102
aI104
aI106
aI111
aI112
aI114
aI115
aI118
aI120
aI121
aI122
aI124
aI182
aI183
aI184
aI185
aI186
aI187
aI188
aI189
aI226
aI227
aI228
aI229
aI230
aI231
aI269
aI270
aI271
aI279
aI280
aI289
aI292
aI315
aI337
aI340
aI341
asI114
(lp90
I312
aI314
asI115
(lp91
I226
aI227
aI229
aI230
aI231
aI269
asI116
(lp92
I238
aI240
aI245
aI306
aI308
asI117
(lp93
I126
aI128
aI129
aI131
aI133
aI140
aI141
aI142
aI143
asI120
(lp94
I134
aI135
aI136
aI138
aI139
aI140
aI141
aI142
aI143
asI121
(lp95
I155
aI156
aI159
asI122
(lp96
I0
aI1
aI4
aI6
aI8
aI12
aI13
aI19
aI31
aI33
aI36
aI37
aI38
aI47
aI51
aI226
aI228
aI229
aI230
aI269
aI270
aI271
aI276
aI277
aI278
aI279
aI280
aI281
aI340
asI123
(lp97
I149
aI158
aI250
asI124
(lp98
I0
aI1
aI4
aI6
aI8
aI12
aI13
aI19
aI31
aI33
aI36
aI37
aI38
aI47
aI51
aI270
aI271
aI279
aI280
aI298
aI299
aI300
aI340
aI347
asI125
(lp99
I226
aI228
aI229
aI230
aI269
asI126
(lp100
I4
aI6
aI8
aI16
aI17
aI20
aI27
aI29
aI31
aI33
aI36
aI37
aI40
aI43
aI45
aI52
aI54
aI56
aI61
aI62
aI230
aI269
aI270
aI271
aI279
aI280
aI295
aI297
aI311
aI314
aI340
asI127
(lp101
I318
aI319
aI320
aI321
aI322
asI129
(lp102
I0
aI4
aI6
aI8
aI10
aI12
aI13
aI15
aI17
aI23
aI27
aI29
aI31
aI33
aI36
aI37
aI42
aI43
aI44
aI47
aI51
aI55
aI60
aI63
aI64
aI65
aI149
aI160
aI162
aI176
aI177
aI178
aI226
aI227
aI228
aI229
aI230
aI231
aI251
aI252
aI253
aI254
aI255
aI269
aI270
aI271
aI279
aI280
aI335
aI336
aI348
asI132
(lp103
I293
aI294
aI295
aI296
asI133
(lp104
I225
aI226
aI227
aI228
aI229
aI230
aI231
aI269
asI135
(lp105
I135
aI136
aI137
aI138
aI139
aI140
aI141
aI142
aI143
asI136
(lp106
I123
aI194
aI197
aI199
asI137
(lp107
I0
aI4
aI6
aI8
aI12
aI13
aI27
aI29
aI31
aI33
aI36
aI37
aI47
aI51
aI55
aI59
aI60
aI63
aI64
aI65
aI226
aI228
aI229
aI230
aI269
aI270
aI271
aI279
aI280
aI340
asI138
(lp108
I0
aI4
aI6
aI8
aI12
aI13
aI16
aI27
aI29
aI31
aI33
aI36
aI37
aI52
aI54
aI56
aI60
aI61
aI62
aI63
aI64
aI65
aI232
aI234
aI235
aI270
aI271
aI279
aI280
aI295
aI296
aI300
aI311
aI314
aI340
aI344
asI139
(lp109
I225
aI226
aI228
aI229
aI230
aI269
asI140
(lp110
I114
aI116
aI117
aI123
aI194
aI197
aI199
aI203
asI141
(lp111
I0
aI1
aI4
aI6
aI8
aI12
aI13
aI16
aI27
aI29
aI31
aI33
aI36
aI37
aI47
aI51
aI55
aI60
aI62
aI226
aI227
aI228
aI229
aI230
aI231
aI269
aI270
aI271
aI279
aI280
aI340
asI142
(lp112
I0
aI2
aI4
aI6
aI8
aI12
aI13
aI16
aI18
aI27
aI29
aI31
aI33
aI36
aI37
aI43
aI44
aI46
aI47
aI48
aI49
aI50
aI52
aI53
aI54
aI55
aI56
aI58
aI59
aI60
aI61
aI62
aI63
aI64
aI65
aI225
aI226
aI228
aI229
aI230
aI269
aI270
aI271
aI279
aI280
aI293
aI294
aI296
aI311
aI312
aI314
aI340
asI143
(lp113
I0
aI4
aI6
aI8
aI12
aI13
aI16
aI19
aI27
aI29
aI31
aI33
aI36
aI37
aI40
aI50
aI52
aI53
aI54
aI56
aI60
aI61
aI62
aI63
aI64
aI65
aI226
aI227
aI228
aI229
aI230
aI231
aI232
aI234
aI235
aI237
aI269
aI270
aI271
aI279
aI280
aI295
aI296
aI311
aI312
aI314
aI340
aI343
asI144
(lp114
I0
aI1
aI4
aI6
aI8
aI12
aI13
aI16
aI19
aI27
aI29
aI31
aI33
aI36
aI37
aI38
aI47
aI51
aI55
aI60
aI62
aI226
aI227
aI228
aI229
aI230
aI231
aI269
aI271
aI279
aI280
aI340
asI146
(lp115
I270
aI322
asI147
(lp116
I350
asI148
(lp117
I0
aI4
aI6
aI8
aI12
aI13
aI16
aI17
aI20
aI27
aI29
aI31
aI33
aI36
aI37
aI39
aI42
aI43
aI45
aI47
aI51
aI55
aI60
aI62
aI226
aI227
aI228
aI229
aI230
aI231
aI269
aI270
aI271
aI279
aI280
aI340
asI149
(lp118
I269
aI300
aI301
asI150
(lp119
I149
aI154
aI157
aI158
aI248
aI249
aI250
asI152
(lp120
I111
aI113
aI114
aI116
aI117
aI123
aI193
aI194
aI197
aI199
aI203
asI154
(lp121
I157
aI159
asI155
(lp122
I0
aI2
aI4
aI6
aI8
aI12
aI13
aI16
aI17
aI18
aI20
aI27
aI29
aI31
aI33
aI36
aI37
aI40
aI43
aI45
aI47
aI48
aI49
aI50
aI52
aI53
aI54
aI55
aI56
aI58
aI60
aI61
aI62
aI63
aI64
aI65
aI225
aI226
aI228
aI229
aI230
aI269
aI270
aI271
aI279
aI280
aI294
aI295
aI296
aI311
aI312
aI314
aI340
asI159
(lp123
I0
aI4
aI6
aI8
aI10
aI12
aI13
aI14
aI15
aI16
aI17
aI23
aI27
aI29
aI31
aI33
aI36
aI37
aI42
aI43
aI44
aI47
aI51
aI55
aI60
aI62
aI63
aI64
aI65
aI149
aI151
aI152
aI153
aI154
aI156
aI157
aI158
aI160
aI162
aI163
aI164
aI165
aI166
aI167
aI168
aI169
aI170
aI171
aI172
aI173
aI174
aI175
aI176
aI177
aI178
aI179
aI180
aI225
aI226
aI227
aI228
aI229
aI230
aI231
aI248
aI249
aI250
aI251
aI252
aI253
aI254
aI255
aI256
aI269
aI270
aI271
aI279
aI280
aI282
aI348
asI161
(lp124
I208
aI212
aI214
aI215
aI216
aI217
aI218
aI219
aI272
aI273
aI274
aI275
aI283
aI284
aI285
aI286
asI163
(lp125
I0
aI4
aI5
aI8
aI12
aI13
aI17
aI22
aI27
aI28
aI29
aI30
aI31
aI32
aI35
aI36
aI37
aI42
aI43
aI44
aI47
aI51
aI55
aI60
aI63
aI64
aI65
aI269
aI270
aI271
aI279
aI280
aI298
aI299
aI300
aI301
aI340
aI347
aI350
asI164
(lp126
I37
aI52
aI54
aI56
aI279
aI298
aI299
aI300
aI311
aI314
aI347
asI165
(lp127
I154
aI159
asI166
(lp128
I0
aI1
aI2
aI3
aI4
aI6
aI8
aI12
aI13
aI16
aI18
aI19
aI25
aI27
aI29
aI31
aI33
aI36
aI37
aI41
aI50
aI52
aI53
aI54
aI55
aI56
aI58
aI60
aI61
aI62
aI63
aI64
aI226
aI227
aI228
aI229
aI230
aI231
aI269
aI270
aI271
aI279
aI280
aI293
aI296
aI311
aI312
aI314
aI340
asI167
(lp129
I0
aI4
aI6
aI8
aI12
aI13
aI16
aI27
aI29
aI31
aI33
aI36
aI37
aI52
aI54
aI56
aI60
aI61
aI62
aI63
aI64
aI65
aI232
aI234
aI235
aI270
aI271
aI279
aI280
aI295
aI296
aI298
aI299
aI300
aI311
aI314
aI340
aI347
asI168
(lp130
I0
aI2
aI4
aI6
aI8
aI12
aI13
aI16
aI18
aI27
aI29
aI31
aI33
aI36
aI37
aI43
aI44
aI46
aI47
aI48
aI49
aI50
aI52
aI53
aI54
aI55
aI56
aI58
aI59
aI60
aI61
aI62
aI63
aI64
aI65
aI232
aI233
aI234
aI235
aI236
aI270
aI271
aI279
aI280
aI294
aI295
aI296
aI298
aI299
aI300
aI311
aI312
aI314
aI340
aI347
asI169
(lp131
I37
aI52
aI54
aI56
aI279
aI298
aI299
aI300
aI311
aI314
aI347
asI170
(lp132
I0
aI4
aI6
aI8
aI12
aI13
aI16
aI17
aI20
aI27
aI29
aI31
aI33
aI36
aI37
aI39
aI42
aI43
aI45
aI47
aI51
aI55
aI60
aI62
aI70
aI75
aI80
aI81
aI82
aI83
aI84
aI85
aI86
aI87
aI88
aI89
aI91
aI92
aI93
aI94
aI95
aI99
aI100
aI102
aI103
aI104
aI105
aI106
aI111
aI112
aI114
aI115
aI118
aI120
aI121
aI124
aI182
aI183
aI184
aI185
aI186
aI187
aI188
aI189
aI208
aI212
aI214
aI215
aI216
aI217
aI218
aI219
aI225
aI226
aI227
aI228
aI229
aI230
aI231
aI269
aI270
aI271
aI272
aI273
aI274
aI275
aI279
aI280
aI283
aI284
aI285
aI286
aI288
aI289
aI290
aI291
aI315
aI316
aI326
aI328
aI329
aI330
aI332
aI333
aI334
aI338
aI340
aI341
aI349
asI171
(lp133
I311
aI314
asI173
(lp134
I243
aI244
aI245
aI269
aI270
aI300
aI308
aI310
asI174
(lp135
I0
aI1
aI4
aI6
aI8
aI12
aI13
aI16
aI19
aI27
aI29
aI31
aI33
aI36
aI37
aI38
aI47
aI51
aI55
aI60
aI62
aI226
aI227
aI228
aI229
aI230
aI231
aI269
aI270
aI271
aI279
aI280
aI317
aI340
aI341
aI342
asI177
(lp136
I140
aI142
aI143
aI270
asI183
(lp137
I0
aI4
aI6
aI8
aI12
aI13
aI16
aI17
aI24
aI27
aI29
aI31
aI33
aI36
aI37
aI47
aI51
aI55
aI59
aI60
aI62
aI63
aI64
aI65
aI226
aI228
aI229
aI230
aI269
aI270
aI271
aI279
aI280
aI340
asI184
(lp138
I0
aI4
aI6
aI8
aI10
aI12
aI13
aI14
aI16
aI27
aI29
aI31
aI33
aI36
aI37
aI52
aI54
aI56
aI60
aI61
aI62
aI63
aI64
aI65
aI225
aI226
aI228
aI229
aI230
aI269
aI270
aI271
aI279
aI280
aI311
aI314
asI185
(lp139
I0
aI1
aI4
aI6
aI8
aI12
aI13
aI19
aI31
aI33
aI36
aI37
aI38
aI47
aI51
aI226
aI228
aI229
aI230
aI269
aI270
aI271
aI276
aI278
aI279
aI280
aI281
aI340
as.