(dp0
I1
(lp1
I64
aI90
aI148
aI160
aI178
aI204
aI212
aI231
aI314
aI369
aI401
aI444
aI593
aI600
aI618
aI619
asI2
(lp2
I11
aI89
aI158
aI230
aI485
aI505
aI550
aI551
aI574
asI3
(lp3
I17
aI51
aI64
aI90
aI128
aI148
aI160
aI163
aI178
aI204
aI212
aI223
aI231
aI314
aI369
aI401
aI430
aI444
aI557
aI588
aI593
aI600
aI618
aI619
asI4
(lp4
I74
aI100
aI178
aI204
aI212
aI231
aI264
aI330
aI346
aI369
aI401
aI422
aI444
aI486
aI618
aI619
asI5
(lp5
I17
aI37
aI48
aI63
aI64
aI75
aI76
aI79
aI90
aI105
aI115
aI138
aI142
aI148
aI160
aI161
aI163
aI178
aI196
aI204
aI212
aI231
aI252
aI280
aI281
aI310
aI314
aI354
aI369
aI399
aI401
aI408
aI444
aI477
aI484
aI491
aI498
aI522
aI529
aI534
aI593
aI600
aI618
asI6
(lp6
I2
aI17
aI37
aI63
aI64
aI79
aI84
aI90
aI115
aI138
aI142
aI148
aI149
aI161
aI163
aI177
aI178
aI196
aI204
aI212
aI218
aI231
aI310
aI311
aI314
aI335
aI354
aI361
aI367
aI369
aI372
aI377
aI399
aI401
aI408
aI443
aI444
aI477
aI491
aI498
aI522
aI529
aI534
aI540
aI593
aI600
aI618
aI632
asI7
(lp7
I17
aI64
aI90
aI148
aI160
aI163
aI178
aI204
aI212
aI231
aI314
aI369
aI401
aI444
aI593
aI600
aI618
aI619
asI8
(lp8
I7
aI17
aI64
aI90
aI95
aI146
aI148
aI160
aI163
aI166
aI178
aI181
aI204
aI212
aI231
aI268
aI314
aI348
aI369
aI395
aI401
aI425
aI444
aI452
aI481
aI526
aI593
aI600
aI612
aI618
aI619
aI624
aI630
asI9
(lp9
I29
aI44
aI51
aI64
aI90
aI148
aI160
aI178
aI204
aI212
aI231
aI305
aI314
aI344
aI369
aI379
aI401
aI444
aI521
aI588
aI593
aI600
aI618
aI619
asI10
(lp10
I37
aI39
aI63
aI64
aI72
aI79
aI90
aI115
aI128
aI138
aI142
aI148
aI154
aI160
aI161
aI162
aI178
aI185
aI196
aI204
aI212
aI231
aI280
aI306
aI310
aI314
aI354
aI369
aI399
aI401
aI408
aI410
aI430
aI444
aI466
aI467
aI477
aI491
aI522
aI529
aI534
aI546
aI593
aI594
aI600
aI618
asI11
(lp11
I64
aI90
aI148
aI160
aI178
aI204
aI212
aI231
aI314
aI369
aI401
aI444
aI593
aI600
aI618
aI619
asI12
(lp12
I17
aI37
aI39
aI63
aI64
aI90
aI115
aI128
aI138
aI142
aI148
aI149
aI161
aI163
aI178
aI185
aI196
aI204
aI212
aI231
aI280
aI306
aI354
aI369
aI388
aI401
aI408
aI430
aI444
aI529
aI534
aI538
aI546
aI570
aI573
aI593
aI600
aI618
asI13
(lp13
I17
aI22
aI37
aI48
aI63
aI64
aI76
aI79
aI90
aI115
aI138
aI142
aI148
aI149
aI161
aI163
aI178
aI196
aI204
aI212
aI231
aI252
aI255
aI281
aI310
aI354
aI369
aI388
aI399
aI401
aI408
aI444
aI466
aI477
aI484
aI491
aI498
aI522
aI529
aI534
aI593
aI600
aI613
aI618
asI14
(lp14
I10
aI17
aI46
aI64
aI90
aI148
aI160
aI163
aI178
aI204
aI212
aI215
aI231
aI314
aI369
aI401
aI444
aI593
aI600
aI618
aI619
asI15
(lp15
I16
aI164
aI465
aI469
asI16
(lp16
I121
aI145
aI155
aI172
aI216
aI261
aI272
aI315
aI340
aI396
aI406
aI453
aI464
aI545
aI547
aI626
aI628
asI17
(lp17
I50
aI114
aI120
aI139
aI250
aI265
aI301
aI365
aI369
aI450
aI530
asI18
(lp18
I17
aI37
aI63
aI64
aI83
aI90
aI115
aI128
aI138
aI142
aI148
aI149
aI161
aI163
aI178
aI196
aI197
aI204
aI212
aI231
aI235
aI302
aI354
aI369
aI388
aI401
aI408
aI444
aI529
aI534
aI570
aI593
aI600
aI618
asI19
(lp19
I32
aI52
aI56
aI84
aI87
aI111
aI129
aI132
aI135
aI232
aI279
aI311
aI350
aI356
aI369
aI377
aI392
aI411
aI443
aI455
aI504
aI508
aI553
aI615
asI20
(lp20
I30
aI54
aI93
aI494
aI503
aI579
asI21
(lp21
I251
aI258
aI265
aI343
aI369
aI381
aI530
aI552
aI563
aI598
asI22
(lp22
I17
aI369
asI23
(lp23
I17
aI44
aI64
aI90
aI148
aI160
aI163
aI178
aI204
aI212
aI223
aI231
aI314
aI369
aI401
aI444
aI593
aI600
aI618
aI619
asI24
(lp24
I65
aI369
aI533
aI568
asI25
(lp25
I10
aI17
aI64
aI90
aI148
aI160
aI163
aI178
aI204
aI212
aI231
aI314
aI369
aI401
aI444
aI507
aI532
aI593
aI600
aI618
aI619
asI26
(lp26
I573
asI27
(lp27
I37
aI64
aI83
aI90
aI115
aI128
aI138
aI142
aI148
aI149
aI161
aI162
aI178
aI196
aI197
aI204
aI212
aI231
aI235
aI302
aI354
aI369
aI388
aI401
aI408
aI410
aI444
aI516
aI529
aI534
aI593
aI594
aI595
aI600
aI618
asI28
(lp28
I44
aI64
aI90
aI148
aI160
aI178
aI204
aI212
aI223
aI231
aI314
aI369
aI401
aI444
aI557
aI593
aI600
aI618
aI619
asI30
(lp29
I178
aI204
aI209
aI212
aI231
aI369
aI401
aI431
aI439
aI444
aI618
aI619
asI31
(lp30
I44
aI64
aI90
aI148
aI160
aI178
aI204
aI212
aI223
aI231
aI314
aI369
aI374
aI401
aI444
aI557
aI593
aI600
aI618
aI619
asI32
(lp31
I74
aI100
aI178
aI204
aI212
aI231
aI264
aI330
aI346
aI369
aI401
aI422
aI444
aI486
aI618
aI619
asI33
(lp32
I17
aI37
aI63
aI115
aI138
aI142
aI161
aI163
aI178
aI196
aI204
aI212
aI231
aI369
aI401
aI408
aI444
aI498
aI529
aI534
aI538
aI618
asI34
(lp33
I14
aI265
aI323
aI369
aI582
asI35
(lp34
I2
aI32
aI52
aI56
aI84
aI87
aI111
aI129
aI132
aI135
aI232
aI251
aI265
aI279
aI311
aI343
aI350
aI356
aI367
aI369
aI372
aI377
aI392
aI413
aI443
aI455
aI504
aI508
aI530
aI552
aI553
aI615
asI36
(lp35
I2
aI17
aI23
aI37
aI40
aI51
aI63
aI64
aI76
aI90
aI93
aI94
aI105
aI115
aI138
aI142
aI148
aI149
aI161
aI163
aI178
aI196
aI204
aI212
aI228
aI231
aI256
aI276
aI286
aI300
aI311
aI338
aI354
aI367
aI369
aI371
aI372
aI377
aI388
aI397
aI401
aI408
aI412
aI414
aI433
aI444
aI462
aI473
aI475
aI482
aI483
aI484
aI529
aI534
aI564
aI588
aI591
aI593
aI600
aI610
aI616
aI618
asI37
(lp36
I17
aI64
aI90
aI128
aI148
aI160
aI163
aI178
aI197
aI204
aI212
aI231
aI235
aI302
aI314
aI369
aI401
aI444
aI516
aI557
aI593
aI600
aI618
aI619
asI38
(lp37
I82
aI108
aI110
aI168
aI214
aI234
aI240
aI304
aI307
aI336
aI345
aI402
aI456
aI497
aI539
aI542
aI569
aI585
aI627
asI39
(lp38
I17
aI44
aI51
aI64
aI90
aI148
aI160
aI163
aI178
aI204
aI212
aI231
aI283
aI314
aI369
aI384
aI401
aI410
aI435
aI444
aI560
aI588
aI593
aI595
aI600
aI618
aI619
asI40
(lp39
I17
aI65
aI163
aI289
aI369
aI533
aI568
aI592
aI599
asI41
(lp40
I64
aI72
aI90
aI128
aI148
aI160
aI178
aI204
aI212
aI223
aI231
aI248
aI283
aI306
aI314
aI369
aI401
aI410
aI430
aI444
aI546
aI557
aI593
aI600
aI618
aI619
asI42
(lp41
I37
aI39
aI48
aI63
aI64
aI90
aI115
aI138
aI142
aI148
aI154
aI160
aI161
aI162
aI178
aI196
aI204
aI212
aI231
aI252
aI281
aI314
aI354
aI369
aI401
aI408
aI444
aI466
aI484
aI491
aI529
aI534
aI593
aI600
aI618
asI43
(lp42
I37
aI62
aI63
aI100
aI115
aI138
aI142
aI152
aI161
aI178
aI196
aI204
aI212
aI226
aI231
aI237
aI264
aI330
aI354
aI369
aI401
aI408
aI444
aI498
aI528
aI529
aI534
aI538
aI606
aI618
asI44
(lp43
I2
aI92
aI116
aI251
aI265
aI311
aI343
aI349
aI367
aI369
aI372
aI377
aI530
aI552
aI562
aI564
aI598
asI45
(lp44
I2
aI17
aI23
aI37
aI40
aI49
aI51
aI63
aI64
aI76
aI90
aI93
aI94
aI105
aI115
aI138
aI142
aI148
aI149
aI161
aI163
aI178
aI196
aI204
aI212
aI228
aI231
aI256
aI269
aI276
aI300
aI311
aI333
aI338
aI367
aI369
aI371
aI372
aI377
aI388
aI397
aI401
aI405
aI408
aI412
aI433
aI444
aI462
aI473
aI475
aI482
aI484
aI529
aI534
aI564
aI588
aI591
aI593
aI600
aI610
aI616
aI618
asI46
(lp45
I10
aI17
aI64
aI90
aI148
aI160
aI163
aI178
aI187
aI204
aI212
aI231
aI314
aI369
aI401
aI444
aI487
aI593
aI600
aI618
aI619
asI47
(lp46
I74
aI100
aI101
aI137
aI178
aI204
aI212
aI231
aI264
aI267
aI312
aI346
aI369
aI401
aI422
aI444
aI486
aI618
aI619
asI48
(lp47
I2
aI17
aI23
aI37
aI40
aI51
aI63
aI64
aI90
aI93
aI94
aI105
aI115
aI138
aI142
aI148
aI149
aI161
aI163
aI169
aI178
aI196
aI204
aI212
aI228
aI231
aI256
aI276
aI300
aI311
aI338
aI354
aI367
aI369
aI371
aI372
aI377
aI388
aI397
aI401
aI408
aI412
aI414
aI433
aI444
aI462
aI473
aI475
aI482
aI483
aI529
aI534
aI564
aI588
aI591
aI593
aI600
aI610
aI616
aI618
asI49
(lp48
I0
aI7
aI17
aI37
aI63
aI64
aI79
aI90
aI95
aI115
aI138
aI142
aI146
aI148
aI149
aI161
aI163
aI166
aI178
aI181
aI196
aI204
aI212
aI231
aI268
aI310
aI348
aI354
aI369
aI388
aI395
aI399
aI401
aI408
aI425
aI444
aI452
aI477
aI481
aI522
aI529
aI534
aI593
aI600
aI603
aI618
aI624
aI630
asI50
(lp49
I37
aI48
aI63
aI64
aI72
aI90
aI115
aI138
aI142
aI148
aI160
aI161
aI178
aI187
aI196
aI204
aI212
aI231
aI252
aI281
aI314
aI354
aI369
aI401
aI408
aI444
aI467
aI470
aI484
aI491
aI513
aI529
aI534
aI593
aI600
aI618
asI51
(lp50
I2
aI17
aI21
aI26
aI37
aI63
aI64
aI84
aI90
aI103
aI115
aI128
aI134
aI136
aI138
aI142
aI148
aI149
aI161
aI163
aI178
aI185
aI190
aI191
aI196
aI204
aI212
aI218
aI231
aI245
aI274
aI280
aI306
aI311
aI314
aI354
aI367
aI369
aI372
aI377
aI401
aI408
aI426
aI430
aI443
aI444
aI498
aI529
aI534
aI546
aI586
aI593
aI600
aI608
aI618
asI52
(lp51
I2
aI10
aI17
aI64
aI90
aI148
aI160
aI163
aI178
aI204
aI212
aI231
aI311
aI367
aI369
aI372
aI377
aI401
aI444
aI487
aI517
aI564
aI593
aI600
aI616
aI618
aI619
asI53
(lp52
I37
aI63
aI64
aI75
aI83
aI90
aI115
aI138
aI142
aI148
aI160
aI161
aI178
aI196
aI204
aI212
aI231
aI314
aI354
aI369
aI401
aI408
aI444
aI529
aI534
aI593
aI600
aI618
asI54
(lp53
I64
aI90
aI148
aI160
aI178
aI204
aI212
aI231
aI278
aI314
aI369
aI401
aI444
aI593
aI600
aI618
aI619
asI55
(lp54
I17
aI65
aI163
aI369
aI533
aI568
aI592
aI599
asI56
(lp55
I64
aI90
aI138
aI148
aI149
aI178
aI204
aI212
aI231
aI388
aI401
aI444
aI593
aI600
aI618
asI57
(lp56
I17
aI64
aI90
aI148
aI160
aI163
aI178
aI204
aI212
aI223
aI231
aI369
aI401
aI444
aI593
aI600
aI618
aI619
asI58
(lp57
I37
aI63
aI64
aI90
aI115
aI138
aI142
aI148
aI149
aI161
aI178
aI196
aI204
aI212
aI231
aI251
aI265
aI314
aI343
aI354
aI369
aI388
aI401
aI408
aI444
aI498
aI529
aI530
aI534
aI552
aI593
aI600
aI618
asI59
(lp58
I51
aI64
aI72
aI90
aI133
aI138
aI148
aI149
aI170
aI178
aI204
aI212
aI231
aI294
aI306
aI388
aI399
aI401
aI444
aI482
aI588
aI593
aI600
aI618
asI60
(lp59
I64
aI90
aI128
aI148
aI160
aI178
aI197
aI204
aI212
aI231
aI235
aI283
aI284
aI302
aI314
aI353
aI369
aI401
aI410
aI444
aI516
aI557
aI593
aI595
aI600
aI618
aI619
asI61
(lp60
I135
aI279
asI62
(lp61
I17
aI141
aI369
aI430
asI64
(lp62
I17
aI29
aI64
aI90
aI148
aI160
aI163
aI178
aI204
aI212
aI231
aI369
aI401
aI444
aI593
aI600
aI618
aI619
asI65
(lp63
I17
aI37
aI63
aI64
aI76
aI90
aI115
aI138
aI142
aI148
aI149
aI161
aI163
aI178
aI196
aI204
aI212
aI231
aI281
aI354
aI369
aI388
aI401
aI408
aI444
aI498
aI529
aI534
aI538
aI593
aI600
aI618
asI66
(lp64
I126
aI201
aI224
aI251
aI254
aI265
aI301
aI342
aI343
aI369
aI458
aI483
aI488
aI530
aI552
aI587
aI598
asI67
(lp65
I10
aI17
aI163
aI178
aI204
aI212
aI231
aI369
aI401
aI444
aI618
aI619
asI68
(lp66
I19
aI31
aI45
aI113
aI167
aI202
aI259
aI260
aI359
aI378
aI423
aI525
aI609
asI69
(lp67
I17
aI51
aI64
aI90
aI128
aI148
aI160
aI163
aI178
aI197
aI204
aI212
aI231
aI235
aI302
aI314
aI344
aI369
aI401
aI444
aI516
aI521
aI557
aI588
aI593
aI600
aI618
aI619
asI70
(lp68
I17
aI37
aI63
aI64
aI75
aI90
aI115
aI138
aI142
aI148
aI149
aI161
aI163
aI178
aI196
aI204
aI212
aI231
aI314
aI354
aI369
aI401
aI408
aI444
aI498
aI529
aI534
aI593
aI600
aI618
asI71
(lp69
I84
aI92
aI251
aI265
aI311
aI343
aI349
aI367
aI369
aI372
aI398
aI443
aI530
aI552
aI598
asI72
(lp70
I67
aI165
aI263
aI369
aI434
aI510
aI592
aI599
asI73
(lp71
I52
aI56
aI84
aI111
aI129
aI132
aI135
aI232
aI251
aI265
aI311
aI343
aI350
aI356
aI369
aI377
aI392
aI413
aI443
aI455
aI504
aI508
aI530
aI544
aI552
aI553
asI74
(lp72
I2
aI17
aI35
aI64
aI72
aI90
aI148
aI160
aI163
aI175
aI178
aI197
aI204
aI205
aI212
aI223
aI231
aI248
aI283
aI287
aI292
aI294
aI305
aI311
aI314
aI316
aI331
aI364
aI367
aI369
aI372
aI377
aI401
aI410
aI418
aI427
aI444
aI449
aI480
aI482
aI511
aI517
aI557
aI564
aI579
aI591
aI593
aI595
aI600
aI616
aI618
aI619
asI75
(lp73
I17
aI58
aI64
aI90
aI104
aI148
aI160
aI163
aI178
aI204
aI212
aI231
aI288
aI305
aI369
aI401
aI418
aI444
aI535
aI593
aI600
aI618
aI619
asI76
(lp74
I2
aI52
aI56
aI84
aI87
aI111
aI129
aI132
aI135
aI232
aI251
aI265
aI279
aI311
aI343
aI350
aI356
aI367
aI369
aI372
aI377
aI392
aI413
aI443
aI455
aI504
aI508
aI530
aI552
aI553
aI615
asI77
(lp75
I37
aI62
aI63
aI100
aI115
aI138
aI142
aI161
aI178
aI196
aI204
aI212
aI231
aI237
aI264
aI330
aI346
aI354
aI369
aI401
aI408
aI422
aI444
aI486
aI498
aI529
aI534
aI538
aI606
aI618
asI78
(lp76
I10
aI17
aI64
aI90
aI148
aI160
aI163
aI178
aI204
aI212
aI231
aI314
aI369
aI401
aI444
aI557
aI593
aI600
aI618
aI619
asI79
(lp77
I11
aI18
aI68
aI89
aI140
aI158
aI241
aI246
aI291
aI295
aI326
aI358
aI479
aI514
aI550
aI614
asI80
(lp78
I49
aI51
aI55
aI60
aI64
aI66
aI72
aI77
aI90
aI128
aI133
aI138
aI147
aI148
aI149
aI170
aI178
aI204
aI212
aI215
aI231
aI238
aI269
aI294
aI297
aI303
aI306
aI309
aI333
aI337
aI388
aI399
aI401
aI405
aI414
aI421
aI428
aI435
aI444
aI482
aI522
aI524
aI531
aI546
aI548
aI588
aI593
aI600
aI618
aI621
asI81
(lp79
I37
aI63
aI64
aI75
aI90
aI115
aI138
aI142
aI148
aI149
aI161
aI178
aI196
aI204
aI212
aI231
aI280
aI354
aI369
aI388
aI401
aI408
aI444
aI491
aI498
aI534
aI593
aI600
aI618
asI82
(lp80
I10
aI17
aI51
aI160
aI163
aI178
aI204
aI212
aI231
aI369
aI401
aI418
aI444
aI588
aI618
aI619
asI83
(lp81
I64
aI90
aI148
aI160
aI178
aI204
aI212
aI231
aI314
aI369
aI401
aI444
aI593
aI600
aI618
aI619
asI84
(lp82
I10
aI17
aI64
aI90
aI148
aI160
aI163
aI178
aI204
aI212
aI231
aI314
aI369
aI401
aI444
aI593
aI600
aI618
aI619
asI85
(lp83
I17
aI37
aI63
aI64
aI90
aI115
aI138
aI142
aI148
aI149
aI160
aI161
aI163
aI178
aI187
aI196
aI204
aI212
aI231
aI314
aI354
aI369
aI388
aI401
aI408
aI444
aI498
aI529
aI534
aI593
aI600
aI618
asI86
(lp84
I2
aI17
aI51
aI64
aI90
aI93
aI148
aI160
aI163
aI178
aI204
aI212
aI231
aI311
aI314
aI328
aI338
aI366
aI367
aI369
aI372
aI377
aI401
aI418
aI444
aI449
aI462
aI473
aI482
aI483
aI511
aI517
aI564
aI565
aI588
aI591
aI593
aI600
aI616
aI618
aI619
asI87
(lp85
I17
aI64
aI90
aI148
aI160
aI163
aI178
aI204
aI212
aI231
aI314
aI369
aI401
aI444
aI593
aI600
aI618
aI619
asI88
(lp86
I65
aI123
aI251
aI265
aI343
aI369
aI530
aI533
aI552
aI598
asI89
(lp87
I135
aI499
asI91
(lp88
I16
aI17
aI37
aI63
aI64
aI90
aI115
aI138
aI142
aI148
aI149
aI161
aI163
aI178
aI187
aI196
aI204
aI212
aI231
aI369
aI388
aI401
aI408
aI444
aI465
aI498
aI529
aI534
aI593
aI600
aI618
asI92
(lp89
I15
aI42
aI88
aI91
aI96
aI171
aI251
aI265
aI301
aI343
aI360
aI369
aI417
aI530
aI552
aI559
aI598
aI617
aI625
asI93
(lp90
I24
aI233
aI352
aI369
aI440
aI537
asI94
(lp91
I4
aI44
aI64
aI70
aI78
aI90
aI148
aI160
aI178
aI204
aI212
aI231
aI262
aI305
aI314
aI318
aI344
aI369
aI379
aI401
aI418
aI444
aI463
aI521
aI576
aI593
aI600
aI618
aI619
asI95
(lp92
I32
aI43
aI56
aI84
aI129
aI251
aI265
aI311
aI343
aI369
aI377
aI392
aI443
aI487
aI530
aI552
aI553
asI96
(lp93
I17
aI37
aI62
aI63
aI100
aI101
aI115
aI138
aI142
aI161
aI163
aI178
aI196
aI204
aI212
aI231
aI237
aI264
aI267
aI346
aI354
aI369
aI401
aI407
aI408
aI422
aI444
aI486
aI529
aI534
aI538
aI584
aI606
aI618
asI97
(lp94
I17
aI64
aI90
aI148
aI160
aI163
aI178
aI204
aI212
aI231
aI314
aI369
aI401
aI444
aI593
aI600
aI618
aI619
asI98
(lp95
I16
aI17
aI37
aI63
aI64
aI90
aI115
aI138
aI142
aI148
aI149
aI161
aI163
aI178
aI187
aI196
aI204
aI212
aI231
aI369
aI388
aI401
aI408
aI444
aI465
aI498
aI529
aI534
aI593
aI600
aI618
asI99
(lp96
I11
aI18
aI68
aI81
aI89
aI140
aI158
aI200
aI241
aI243
aI246
aI295
aI326
aI438
aI505
aI514
aI572
aI574
aI604
aI631
asI100
(lp97
I74
aI100
aI152
aI178
aI204
aI212
aI226
aI231
aI264
aI330
aI369
aI401
aI444
aI528
aI618
aI619
asI101
(lp98
I17
aI37
aI63
aI64
aI90
aI115
aI138
aI142
aI148
aI149
aI160
aI161
aI163
aI178
aI196
aI204
aI212
aI231
aI314
aI354
aI369
aI388
aI401
aI408
aI444
aI529
aI534
aI538
aI593
aI600
aI618
asI102
(lp99
I178
aI204
aI209
aI212
aI225
aI231
aI369
aI401
aI431
aI444
aI618
aI619
asI103
(lp100
I17
aI369
aI430
asI104
(lp101
I10
aI17
aI64
aI90
aI148
aI160
aI163
aI178
aI204
aI212
aI231
aI288
aI305
aI314
aI369
aI401
aI418
aI444
aI593
aI600
aI618
aI619
asI105
(lp102
I17
aI37
aI63
aI64
aI76
aI90
aI115
aI138
aI142
aI148
aI149
aI160
aI161
aI163
aI178
aI196
aI204
aI212
aI231
aI281
aI314
aI354
aI369
aI388
aI401
aI408
aI444
aI498
aI529
aI534
aI538
aI593
aI600
aI618
asI106
(lp103
I10
aI17
aI163
aI178
aI204
aI212
aI231
aI369
aI401
aI444
aI618
aI619
asI107
(lp104
I64
aI90
aI138
aI148
aI149
aI178
aI204
aI212
aI231
aI388
aI401
aI444
aI593
aI600
aI618
asI108
(lp105
I32
aI56
aI84
aI129
aI132
aI311
aI356
aI369
aI377
aI392
aI413
aI443
aI455
aI508
aI553
asI109
(lp106
I64
aI72
aI90
aI148
aI160
aI178
aI187
aI204
aI212
aI231
aI248
aI284
aI305
aI314
aI369
aI384
aI401
aI418
aI444
aI593
aI600
aI618
aI619
asI110
(lp107
I37
aI63
aI64
aI90
aI103
aI115
aI138
aI142
aI148
aI149
aI161
aI178
aI187
aI196
aI204
aI212
aI231
aI354
aI369
aI386
aI388
aI401
aI408
aI444
aI529
aI534
aI593
aI600
aI618
asI111
(lp108
I65
aI251
aI265
aI343
aI369
aI530
aI533
aI552
aI568
aI598
asI112
(lp109
I17
aI22
aI37
aI48
aI63
aI64
aI76
aI79
aI90
aI105
aI115
aI138
aI142
aI148
aI149
aI161
aI163
aI178
aI196
aI204
aI212
aI231
aI252
aI281
aI310
aI314
aI354
aI369
aI373
aI399
aI401
aI408
aI444
aI468
aI477
aI484
aI491
aI498
aI522
aI529
aI534
aI593
aI600
aI618
asI113
(lp110
I14
aI65
aI265
aI301
aI323
aI369
aI533
aI568
asI114
(lp111
I64
aI90
aI148
aI160
aI178
aI204
aI212
aI231
aI369
aI401
aI444
aI593
aI600
aI618
aI619
asI115
(lp112
I17
aI37
aI63
aI64
aI72
aI79
aI90
aI115
aI138
aI142
aI148
aI149
aI161
aI162
aI163
aI178
aI196
aI204
aI212
aI231
aI310
aI354
aI369
aI386
aI388
aI399
aI401
aI408
aI410
aI435
aI444
aI466
aI467
aI477
aI513
aI522
aI529
aI534
aI593
aI594
aI595
aI600
aI613
aI618
asI116
(lp113
I17
aI74
aI100
aI101
aI152
aI163
aI178
aI204
aI212
aI226
aI231
aI264
aI369
aI401
aI444
aI528
aI618
aI619
asI117
(lp114
I86
aI208
aI210
aI275
aI339
aI351
aI436
aI474
aI520
aI620
asI118
(lp115
I37
aI63
aI64
aI90
aI115
aI138
aI142
aI148
aI149
aI161
aI178
aI196
aI204
aI212
aI231
aI354
aI369
aI388
aI401
aI408
aI444
aI498
aI529
aI534
aI570
aI593
aI600
aI618
asI120
(lp116
I2
aI10
aI17
aI64
aI84
aI90
aI148
aI160
aI163
aI178
aI204
aI212
aI231
aI251
aI265
aI311
aI314
aI343
aI367
aI369
aI372
aI377
aI401
aI444
aI517
aI530
aI552
aI564
aI593
aI600
aI616
aI618
aI619
asI121
(lp117
I10
aI46
aI64
aI90
aI148
aI160
aI178
aI204
aI212
aI215
aI231
aI251
aI265
aI314
aI343
aI369
aI401
aI444
aI530
aI552
aI593
aI600
aI618
aI619
asI122
(lp118
I50
aI114
aI120
aI139
aI250
aI265
aI301
aI365
aI369
aI393
aI450
asI123
(lp119
I17
aI64
aI90
aI148
aI160
aI163
aI178
aI204
aI212
aI231
aI305
aI308
aI314
aI369
aI401
aI403
aI418
aI435
aI444
aI472
aI593
aI600
aI618
aI619
asI124
(lp120
I65
aI251
aI265
aI343
aI369
aI530
aI533
aI552
aI598
asI125
(lp121
I25
aI47
aI188
aI192
aI219
aI229
aI298
aI347
aI387
aI566
asI126
(lp122
I50
aI250
aI251
aI265
aI301
aI343
aI369
aI394
aI530
aI552
aI598
asI127
(lp123
I2
aI10
aI17
aI64
aI84
aI90
aI148
aI160
aI163
aI178
aI204
aI212
aI231
aI251
aI265
aI311
aI314
aI343
aI367
aI369
aI372
aI377
aI401
aI444
aI517
aI530
aI552
aI564
aI593
aI600
aI616
aI618
aI619
asI128
(lp124
I17
aI37
aI63
aI64
aI76
aI90
aI115
aI138
aI142
aI148
aI149
aI161
aI163
aI178
aI196
aI204
aI212
aI231
aI281
aI314
aI354
aI369
aI388
aI401
aI408
aI444
aI498
aI529
aI534
aI538
aI593
aI600
aI618
asI129
(lp125
I7
aI80
aI95
aI144
aI146
aI160
aI166
aI178
aI181
aI204
aI212
aI231
aI268
aI314
aI348
aI369
aI395
aI401
aI425
aI444
aI451
aI452
aI481
aI596
aI618
aI619
aI624
aI630
asI130
(lp126
I3
aI17
aI23
aI37
aI51
aI53
aI63
aI64
aI79
aI90
aI105
aI106
aI115
aI127
aI138
aI142
aI148
aI149
aI161
aI163
aI178
aI189
aI194
aI196
aI204
aI207
aI212
aI231
aI238
aI256
aI271
aI282
aI290
aI310
aI354
aI369
aI385
aI399
aI401
aI408
aI414
aI424
aI444
aI475
aI477
aI482
aI498
aI527
aI529
aI534
aI536
aI554
aI583
aI588
aI593
aI600
aI618
asI131
(lp127
I64
aI90
aI138
aI148
aI149
aI178
aI204
aI212
aI231
aI401
aI408
aI444
aI498
aI593
aI600
aI618
asI132
(lp128
I17
aI37
aI63
aI64
aI75
aI76
aI90
aI105
aI115
aI138
aI142
aI148
aI160
aI161
aI163
aI178
aI196
aI204
aI212
aI231
aI296
aI314
aI354
aI369
aI388
aI401
aI408
aI444
aI484
aI498
aI529
aI534
aI593
aI600
aI618
asI133
(lp129
I37
aI63
aI64
aI83
aI90
aI115
aI138
aI142
aI148
aI149
aI151
aI160
aI161
aI178
aI183
aI185
aI196
aI204
aI212
aI231
aI306
aI314
aI354
aI369
aI401
aI408
aI430
aI444
aI493
aI500
aI529
aI534
aI593
aI600
aI618
asI134
(lp130
I64
aI90
aI148
aI160
aI178
aI204
aI212
aI231
aI314
aI369
aI401
aI444
aI593
aI600
aI618
aI619
asI135
(lp131
I17
aI74
aI100
aI101
aI163
aI178
aI204
aI212
aI231
aI264
aI267
aI346
aI369
aI401
aI422
aI444
aI486
aI618
aI619
asI136
(lp132
I37
aI63
aI64
aI90
aI115
aI138
aI142
aI148
aI160
aI161
aI178
aI196
aI204
aI212
aI231
aI314
aI354
aI369
aI401
aI408
aI444
aI529
aI534
aI593
aI600
aI618
asI137
(lp133
I64
aI90
aI138
aI148
aI149
aI178
aI204
aI212
aI231
aI388
aI401
aI444
aI498
aI593
aI600
aI618
asI138
(lp134
I2
aI17
aI51
aI64
aI90
aI93
aI148
aI160
aI163
aI178
aI204
aI212
aI231
aI311
aI314
aI316
aI328
aI338
aI366
aI367
aI369
aI372
aI377
aI401
aI418
aI444
aI449
aI462
aI473
aI482
aI483
aI517
aI564
aI567
aI588
aI593
aI600
aI616
aI618
aI619
asI139
(lp135
I37
aI63
aI64
aI90
aI115
aI138
aI142
aI148
aI149
aI160
aI161
aI178
aI196
aI204
aI212
aI231
aI314
aI354
aI369
aI388
aI401
aI408
aI444
aI498
aI529
aI534
aI538
aI570
aI593
aI600
aI618
asI140
(lp136
I74
aI100
aI152
aI178
aI204
aI212
aI226
aI231
aI264
aI330
aI369
aI401
aI444
aI528
aI618
aI619
asI141
(lp137
I37
aI63
aI64
aI90
aI115
aI138
aI142
aI148
aI149
aI160
aI161
aI178
aI196
aI204
aI212
aI231
aI314
aI354
aI369
aI388
aI401
aI408
aI444
aI529
aI534
aI538
aI593
aI600
aI618
asI142
(lp138
I64
aI90
aI148
aI160
aI178
aI204
aI212
aI231
aI314
aI369
aI401
aI444
aI593
aI600
aI618
aI619
asI143
(lp139
I9
aI61
aI109
aI198
aI213
aI270
aI382
aI390
aI441
aI447
aI459
aI490
aI556
aI561
aI575
aI597
asI145
(lp140
I37
aI64
aI75
aI90
aI115
aI138
aI142
aI148
aI149
aI161
aI178
aI196
aI204
aI212
aI231
aI354
aI369
aI388
aI401
aI408
aI444
aI529
aI534
aI593
aI600
aI618
asI146
(lp141
I74
aI100
aI101
aI137
aI152
aI178
aI204
aI212
aI226
aI231
aI264
aI312
aI369
aI401
aI444
aI528
aI618
aI619
asI147
(lp142
I3
aI17
aI37
aI51
aI63
aI64
aI90
aI105
aI115
aI138
aI142
aI148
aI160
aI161
aI163
aI178
aI189
aI194
aI196
aI204
aI212
aI231
aI238
aI271
aI290
aI354
aI369
aI385
aI399
aI401
aI408
aI414
aI424
aI444
aI527
aI529
aI534
aI536
aI583
aI588
aI593
aI600
aI618
asI148
(lp143
I2
aI32
aI43
aI52
aI56
aI84
aI87
aI111
aI129
aI132
aI135
aI232
aI251
aI265
aI279
aI311
aI343
aI350
aI356
aI367
aI369
aI372
aI377
aI392
aI443
aI455
aI504
aI508
aI530
aI544
aI552
aI553
aI615
asI149
(lp144
I17
aI38
aI64
aI72
aI90
aI148
aI160
aI163
aI178
aI204
aI212
aI231
aI248
aI283
aI314
aI369
aI401
aI410
aI435
aI444
aI472
aI593
aI595
aI600
aI618
aI619
asI150
(lp145
I65
aI251
aI265
aI301
aI369
aI530
aI533
aI568
asI151
(lp146
I64
aI90
aI148
aI160
aI178
aI204
aI212
aI231
aI288
aI305
aI314
aI369
aI401
aI418
aI444
aI593
aI600
aI618
aI619
asI152
(lp147
I29
aI51
aI64
aI72
aI73
aI80
aI90
aI133
aI146
aI148
aI160
aI170
aI178
aI203
aI204
aI212
aI227
aI231
aI247
aI268
aI294
aI306
aI314
aI348
aI369
aI401
aI409
aI418
aI442
aI444
aI451
aI482
aI495
aI541
aI588
aI590
aI593
aI596
aI600
aI618
aI619
asI153
(lp148
I10
aI17
aI64
aI90
aI148
aI160
aI163
aI178
aI187
aI204
aI212
aI231
aI314
aI369
aI401
aI444
aI487
aI593
aI600
aI618
aI619
asI154
(lp149
I5
aI34
aI85
aI97
aI215
aI324
aI337
aI350
aI375
aI544
aI598
asI155
(lp150
I50
aI65
aI250
aI251
aI265
aI301
aI343
aI369
aI530
aI533
aI552
aI568
asI156
(lp151
I17
aI51
aI64
aI90
aI148
aI160
aI163
aI178
aI204
aI212
aI222
aI223
aI231
aI316
aI327
aI366
aI369
aI401
aI418
aI444
aI457
aI482
aI588
aI593
aI600
aI618
aI619
asI157
(lp152
I1
aI299
aI313
aI334
aI518
aI551
asI158
(lp153
I197
aI211
aI364
aI369
asI159
(lp154
I17
aI37
aI63
aI64
aI90
aI115
aI138
aI142
aI148
aI149
aI161
aI163
aI178
aI196
aI204
aI212
aI231
aI354
aI369
aI388
aI401
aI408
aI444
aI498
aI529
aI534
aI538
aI593
aI600
aI618
asI160
(lp155
I32
aI52
aI56
aI84
aI111
aI129
aI132
aI135
aI232
aI251
aI265
aI279
aI311
aI343
aI350
aI356
aI369
aI377
aI392
aI413
aI443
aI454
aI455
aI504
aI508
aI530
aI552
aI553
asI161
(lp156
I122
aI153
aI179
aI251
aI265
aI285
aI301
aI329
aI341
aI343
aI369
aI416
aI523
aI530
aI552
aI598
asI162
(lp157
I12
aI16
aI98
aI164
aI363
aI465
aI469
asI163
(lp158
I64
aI90
aI138
aI148
aI149
aI178
aI204
aI212
aI231
aI388
aI401
aI444
aI593
aI600
aI618
asI164
(lp159
I64
aI84
aI90
aI148
aI160
aI178
aI204
aI212
aI231
aI311
aI314
aI369
aI377
aI401
aI443
aI444
aI593
aI600
aI618
aI619
aI622
asI165
(lp160
I2
aI17
aI37
aI63
aI64
aI76
aI84
aI90
aI115
aI138
aI142
aI148
aI149
aI160
aI161
aI163
aI174
aI178
aI196
aI204
aI212
aI231
aI251
aI265
aI276
aI300
aI311
aI314
aI343
aI354
aI367
aI369
aI372
aI377
aI388
aI398
aI401
aI408
aI433
aI444
aI498
aI529
aI530
aI534
aI552
aI564
aI593
aI600
aI616
aI618
asI167
(lp161
I112
aI239
aI251
aI265
aI343
aI369
aI370
aI530
aI552
aI580
aI598
aI623
asI168
(lp162
I17
aI55
aI64
aI72
aI90
aI148
aI160
aI163
aI178
aI204
aI212
aI231
aI248
aI369
aI401
aI418
aI444
aI593
aI600
aI618
aI619
asI169
(lp163
I32
aI43
aI56
aI84
aI129
aI251
aI265
aI311
aI343
aI369
aI377
aI392
aI443
aI487
aI530
aI552
aI553
asI170
(lp164
I17
aI37
aI51
aI63
aI64
aI90
aI115
aI138
aI142
aI148
aI149
aI161
aI163
aI178
aI196
aI204
aI212
aI231
aI354
aI369
aI388
aI401
aI408
aI444
aI498
aI529
aI534
aI588
aI593
aI600
aI618
asI171
(lp165
I17
aI19
aI31
aI37
aI63
aI69
aI76
aI105
aI113
aI115
aI138
aI142
aI149
aI161
aI163
aI167
aI178
aI196
aI202
aI204
aI212
aI231
aI259
aI359
aI369
aI401
aI408
aI423
aI444
aI484
aI489
aI498
aI525
aI529
aI534
aI609
aI618
asI172
(lp166
I64
aI90
aI148
aI160
aI178
aI204
aI212
aI231
aI314
aI369
aI401
aI444
aI593
aI600
aI618
aI619
asI173
(lp167
I5
aI34
aI85
aI97
aI99
aI180
aI244
aI288
aI301
aI305
aI324
aI418
aI598
aI611
asI174
(lp168
I2
aI17
aI51
aI64
aI90
aI93
aI148
aI160
aI163
aI178
aI204
aI212
aI231
aI311
aI314
aI316
aI328
aI338
aI366
aI367
aI369
aI372
aI377
aI401
aI418
aI444
aI449
aI462
aI473
aI482
aI483
aI511
aI517
aI564
aI588
aI591
aI593
aI600
aI605
aI616
aI618
aI619
asI175
(lp169
I350
asI176
(lp170
I58
aI64
aI90
aI104
aI148
aI160
aI178
aI204
aI212
aI231
aI305
aI314
aI369
aI401
aI418
aI444
aI535
aI593
aI600
aI618
aI619
asI177
(lp171
I32
aI56
aI84
aI129
aI311
aI369
aI377
aI443
aI622
asI178
(lp172
I64
aI90
aI138
aI148
aI149
aI178
aI204
aI212
aI231
aI314
aI401
aI408
aI444
aI498
aI593
aI600
aI618
asI179
(lp173
I197
aI364
aI369
asI180
(lp174
I17
aI44
aI64
aI90
aI148
aI160
aI163
aI178
aI204
aI212
aI223
aI231
aI314
aI369
aI401
aI418
aI444
aI557
aI593
aI600
aI618
aI619
asI181
(lp175
I17
aI102
aI107
aI163
aI178
aI204
aI209
aI212
aI231
aI368
aI369
aI401
aI431
aI444
aI618
aI619
asI182
(lp176
I65
aI159
aI266
aI369
aI533
aI568
asI183
(lp177
I6
aI13
aI17
aI37
aI48
aI63
aI64
aI76
aI79
aI90
aI105
aI115
aI138
aI142
aI148
aI149
aI161
aI163
aI178
aI196
aI204
aI212
aI231
aI281
aI310
aI354
aI369
aI399
aI401
aI408
aI444
aI468
aI477
aI484
aI498
aI529
aI534
aI593
aI600
aI618
asI184
(lp178
I221
aI391
asI186
(lp179
I27
aI51
aI64
aI71
aI90
aI117
aI119
aI130
aI131
aI137
aI148
aI150
aI160
aI178
aI204
aI212
aI217
aI220
aI231
aI314
aI317
aI344
aI369
aI376
aI401
aI444
aI446
aI496
aI521
aI588
aI593
aI600
aI618
aI619
aI629
asI187
(lp180
I32
aI56
aI84
aI87
aI111
aI129
aI132
aI135
aI232
aI279
aI311
aI350
aI356
aI369
aI377
aI392
aI411
aI413
aI443
aI455
aI504
aI508
aI553
aI615
asI188
(lp181
I3
aI17
aI23
aI37
aI51
aI53
aI63
aI64
aI79
aI90
aI105
aI106
aI115
aI127
aI138
aI142
aI148
aI149
aI161
aI163
aI178
aI189
aI194
aI196
aI204
aI207
aI212
aI231
aI238
aI256
aI271
aI282
aI290
aI310
aI354
aI369
aI385
aI399
aI401
aI408
aI414
aI424
aI444
aI475
aI477
aI482
aI498
aI527
aI529
aI534
aI536
aI554
aI583
aI588
aI593
aI600
aI618
asI190
(lp182
I10
aI17
aI64
aI90
aI148
aI160
aI163
aI178
aI187
aI204
aI212
aI231
aI314
aI369
aI401
aI444
aI593
aI600
aI618
aI619
asI191
(lp183
I251
aI258
aI265
aI343
aI369
aI381
aI530
aI543
aI549
aI552
aI563
aI598
asI192
(lp184
I37
aI62
aI63
aI100
aI115
aI138
aI142
aI161
aI178
aI196
aI204
aI212
aI231
aI237
aI264
aI330
aI346
aI354
aI369
aI401
aI408
aI422
aI444
aI486
aI529
aI534
aI538
aI606
aI618
asI193
(lp185
I1
aI28
aI36
aI59
aI182
aI199
aI295
aI313
aI321
aI326
aI334
aI420
aI432
aI492
aI577
asI195
(lp186
I17
aI64
aI90
aI148
aI160
aI163
aI178
aI197
aI204
aI212
aI223
aI231
aI314
aI364
aI369
aI401
aI444
aI557
aI593
aI600
aI618
aI619
asI196
(lp187
I138
aI149
aI151
aI178
aI204
aI212
aI231
aI388
aI401
aI444
aI476
aI489
aI500
aI512
aI618
asI197
(lp188
I2
aI17
aI37
aI63
aI64
aI84
aI90
aI115
aI138
aI142
aI148
aI149
aI160
aI161
aI163
aI178
aI196
aI204
aI212
aI231
aI251
aI265
aI276
aI300
aI311
aI314
aI343
aI354
aI367
aI369
aI372
aI377
aI388
aI398
aI401
aI408
aI433
aI443
aI444
aI498
aI529
aI530
aI534
aI552
aI564
aI593
aI600
aI616
aI618
asI198
(lp189
I5
aI34
aI85
aI97
aI99
aI143
aI180
aI244
aI288
aI301
aI305
aI314
aI324
aI418
aI598
aI611
asI200
(lp190
I37
aI62
aI63
aI100
aI115
aI138
aI142
aI152
aI161
aI178
aI196
aI204
aI212
aI226
aI231
aI237
aI264
aI330
aI354
aI369
aI401
aI408
aI444
aI528
aI529
aI534
aI538
aI606
aI618
asI201
(lp191
I17
aI37
aI63
aI64
aI90
aI115
aI138
aI142
aI148
aI149
aI160
aI161
aI163
aI178
aI196
aI204
aI212
aI231
aI314
aI369
aI388
aI401
aI408
aI444
aI498
aI529
aI534
aI593
aI600
aI618
asI202
(lp192
I17
aI24
aI369
aI440
aI537
asI203
(lp193
I222
aI327
aI380
aI400
aI445
asI204
(lp194
I121
aI145
aI155
aI172
aI216
aI261
aI272
aI315
aI340
aI396
aI406
aI464
aI545
aI547
aI626
asI205
(lp195
I2
aI17
aI30
aI64
aI90
aI93
aI148
aI160
aI163
aI178
aI204
aI205
aI212
aI231
aI287
aI311
aI314
aI316
aI328
aI338
aI366
aI367
aI369
aI372
aI377
aI401
aI418
aI444
aI449
aI462
aI473
aI482
aI483
aI511
aI517
aI564
aI571
aI581
aI591
aI593
aI600
aI616
aI618
aI619
asI206
(lp196
I2
aI32
aI43
aI56
aI84
aI129
aI251
aI265
aI311
aI343
aI367
aI369
aI372
aI377
aI392
aI443
aI530
aI552
aI553
asI207
(lp197
I17
aI37
aI63
aI64
aI90
aI115
aI138
aI142
aI148
aI149
aI161
aI163
aI178
aI196
aI204
aI212
aI231
aI354
aI369
aI388
aI401
aI408
aI444
aI498
aI529
aI534
aI538
aI593
aI600
aI618
asI208
(lp198
I17
aI64
aI90
aI148
aI160
aI163
aI178
aI204
aI212
aI231
aI314
aI369
aI401
aI444
aI593
aI600
aI618
aI619
asI209
(lp199
I17
aI193
aI369
aI509
asI210
(lp200
I5
aI34
aI85
aI87
aI97
aI99
aI135
aI180
aI236
aI244
aI277
aI279
aI288
aI301
aI305
aI324
aI350
aI413
aI418
aI508
aI519
aI555
aI598
aI611
aI615
asI211
(lp201
I26
aI37
aI63
aI64
aI79
aI83
aI90
aI115
aI128
aI138
aI142
aI148
aI149
aI161
aI178
aI185
aI196
aI204
aI212
aI231
aI251
aI265
aI306
aI343
aI354
aI369
aI399
aI401
aI408
aI430
aI444
aI477
aI498
aI522
aI529
aI530
aI534
aI546
aI552
aI593
aI600
aI608
aI618
asI212
(lp202
I64
aI90
aI128
aI148
aI160
aI178
aI204
aI212
aI223
aI231
aI242
aI251
aI265
aI306
aI343
aI369
aI401
aI430
aI444
aI530
aI546
aI552
aI557
aI593
aI600
aI618
aI619
asI213
(lp203
I51
aI64
aI90
aI148
aI160
aI178
aI204
aI212
aI231
aI314
aI369
aI401
aI444
aI588
aI593
aI600
aI618
aI619
asI214
(lp204
I251
aI265
aI343
aI369
aI370
aI530
aI552
aI580
aI598
aI623
asI215
(lp205
I27
aI71
aI117
aI130
aI178
aI204
aI209
aI212
aI217
aI231
aI293
aI317
aI369
aI379
aI401
aI431
aI437
aI444
aI618
aI619
aI629
asI216
(lp206
I17
aI29
aI37
aI63
aI64
aI79
aI90
aI115
aI138
aI142
aI148
aI160
aI161
aI163
aI178
aI196
aI204
aI212
aI231
aI310
aI354
aI369
aI399
aI401
aI408
aI444
aI477
aI529
aI534
aI570
aI593
aI600
aI618
asI217
(lp207
I17
aI64
aI90
aI148
aI160
aI163
aI178
aI204
aI212
aI223
aI231
aI306
aI369
aI401
aI430
aI444
aI546
aI557
aI593
aI600
aI618
aI619
asI218
(lp208
I37
aI63
aI64
aI76
aI90
aI115
aI138
aI142
aI148
aI149
aI161
aI178
aI196
aI204
aI212
aI231
aI281
aI354
aI369
aI388
aI401
aI408
aI444
aI498
aI529
aI534
aI538
aI570
aI593
aI600
aI618
asI219
(lp209
I24
aI251
aI265
aI343
aI369
aI383
aI415
aI440
aI530
aI537
aI552
aI598
asI220
(lp210
I17
aI44
aI64
aI90
aI148
aI160
aI163
aI178
aI204
aI212
aI231
aI288
aI305
aI369
aI401
aI444
aI472
aI521
aI593
aI600
aI618
aI619
asI221
(lp211
I7
aI73
aI80
aI95
aI118
aI144
aI146
aI160
aI166
aI178
aI181
aI204
aI212
aI231
aI268
aI314
aI348
aI369
aI401
aI425
aI444
aI452
aI481
aI618
aI619
aI630
asI222
(lp212
I37
aI63
aI64
aI75
aI83
aI90
aI115
aI138
aI142
aI148
aI149
aI161
aI178
aI196
aI204
aI212
aI231
aI354
aI357
aI369
aI388
aI401
aI408
aI444
aI498
aI534
aI593
aI600
aI618
asI223
(lp213
I17
aI64
aI90
aI148
aI160
aI163
aI178
aI204
aI212
aI231
aI314
aI369
aI401
aI444
aI593
aI600
aI618
aI619
asI224
(lp214
I17
aI37
aI39
aI63
aI64
aI90
aI115
aI138
aI142
aI148
aI149
aI161
aI163
aI178
aI196
aI204
aI212
aI231
aI314
aI354
aI369
aI388
aI401
aI408
aI444
aI498
aI507
aI529
aI532
aI534
aI593
aI600
aI618
asI225
(lp215
I17
aI37
aI62
aI63
aI100
aI101
aI115
aI138
aI142
aI152
aI161
aI163
aI178
aI196
aI204
aI212
aI226
aI231
aI237
aI264
aI354
aI369
aI401
aI407
aI408
aI444
aI528
aI529
aI534
aI538
aI606
aI607
aI618
asI226
(lp216
I2
aI43
aI52
aI56
aI84
aI87
aI111
aI129
aI135
aI232
aI251
aI265
aI279
aI311
aI343
aI350
aI356
aI367
aI369
aI372
aI377
aI392
aI413
aI443
aI454
aI455
aI504
aI530
aI544
aI552
aI553
aI615
asI227
(lp217
I156
aI160
aI178
aI204
aI212
aI222
aI231
aI314
aI319
aI327
aI369
aI401
aI444
aI578
aI618
aI619
asI228
(lp218
I2
aI84
aI92
aI116
aI251
aI265
aI311
aI343
aI349
aI367
aI369
aI372
aI377
aI443
aI530
aI552
aI562
aI598
asI229
(lp219
I64
aI90
aI148
aI160
aI178
aI204
aI212
aI231
aI314
aI369
aI401
aI444
aI593
aI600
aI618
aI619
asI230
(lp220
I507
aI532
asI231
(lp221
I32
aI56
aI84
aI111
aI129
aI132
aI135
aI232
aI279
aI311
aI350
aI356
aI369
aI377
aI392
aI411
aI443
aI455
aI504
aI508
aI544
aI553
asI232
(lp222
I64
aI90
aI148
aI160
aI178
aI204
aI212
aI231
aI314
aI369
aI401
aI444
aI593
aI600
aI618
aI619
asI233
(lp223
I138
aI149
aI151
aI178
aI204
aI212
aI231
aI388
aI401
aI444
aI476
aI489
aI500
aI512
aI618
asI234
(lp224
I17
aI37
aI63
aI64
aI76
aI90
aI115
aI138
aI142
aI148
aI149
aI161
aI163
aI178
aI196
aI204
aI212
aI231
aI281
aI354
aI369
aI388
aI401
aI408
aI444
aI498
aI529
aI534
aI538
aI593
aI600
aI618
asI235
(lp225
I38
aI64
aI90
aI148
aI160
aI178
aI187
aI204
aI212
aI231
aI314
aI369
aI401
aI418
aI444
aI593
aI600
aI618
aI619
asI236
(lp226
I17
aI37
aI64
aI90
aI115
aI138
aI142
aI148
aI149
aI161
aI163
aI178
aI185
aI196
aI204
aI212
aI231
aI354
aI369
aI401
aI408
aI444
aI498
aI529
aI534
aI593
aI600
aI618
asI237
(lp227
I2
aI10
aI64
aI84
aI90
aI148
aI160
aI178
aI204
aI212
aI231
aI251
aI265
aI311
aI343
aI367
aI369
aI372
aI377
aI401
aI444
aI487
aI517
aI530
aI552
aI593
aI600
aI616
aI618
aI619
asI238
(lp228
I17
aI64
aI90
aI148
aI160
aI163
aI178
aI204
aI212
aI231
aI306
aI314
aI369
aI401
aI430
aI444
aI557
aI593
aI600
aI618
aI619
asI239
(lp229
I37
aI63
aI64
aI90
aI115
aI138
aI142
aI148
aI160
aI161
aI178
aI196
aI204
aI212
aI231
aI314
aI354
aI369
aI401
aI408
aI444
aI529
aI534
aI593
aI600
aI618
asI240
(lp230
I355
aI487
aI515
asI241
(lp231
I17
aI64
aI90
aI148
aI160
aI163
aI178
aI204
aI212
aI231
aI314
aI369
aI401
aI444
aI593
aI600
aI618
aI619
asI242
(lp232
I20
aI251
aI257
aI265
aI273
aI322
aI332
aI343
aI369
aI461
aI478
aI530
aI552
aI598
asI243
(lp233
I413
asI244
(lp234
I180
aI244
aI305
aI418
aI448
aI611
asI245
(lp235
I64
aI90
aI148
aI160
aI178
aI204
aI212
aI231
aI314
aI369
aI401
aI444
aI593
aI600
aI618
aI619
asI246
(lp236
I2
aI17
aI51
aI64
aI90
aI148
aI160
aI163
aI178
aI195
aI204
aI212
aI231
aI292
aI311
aI314
aI316
aI366
aI367
aI369
aI372
aI377
aI401
aI418
aI444
aI449
aI473
aI482
aI483
aI511
aI517
aI564
aI588
aI593
aI600
aI616
aI618
aI619
asI247
(lp237
I8
aI50
aI250
aI251
aI265
aI301
aI369
aI530
aI552
asI248
(lp238
I38
aI64
aI90
aI148
aI160
aI178
aI204
aI212
aI231
aI314
aI369
aI401
aI444
aI472
aI541
aI593
aI600
aI618
aI619
asI250
(lp239
I17
aI64
aI90
aI131
aI148
aI160
aI163
aI178
aI204
aI212
aI231
aI314
aI369
aI401
aI444
aI593
aI600
aI618
aI619
asI251
(lp240
I64
aI90
aI124
aI148
aI160
aI178
aI183
aI204
aI212
aI222
aI223
aI231
aI306
aI314
aI327
aI369
aI401
aI430
aI444
aI557
aI593
aI600
aI618
aI619
asI252
(lp241
I17
aI37
aI63
aI115
aI138
aI142
aI161
aI163
aI178
aI196
aI204
aI212
aI231
aI369
aI401
aI408
aI444
aI498
aI529
aI534
aI538
aI618
asI253
(lp242
I129
aI251
aI265
aI301
aI343
aI369
aI530
aI552
aI598
asI254
(lp243
I10
aI17
aI64
aI90
aI148
aI160
aI163
aI178
aI204
aI212
aI231
aI314
aI369
aI401
aI444
aI593
aI600
aI618
aI619
asI255
(lp244
I64
aI90
aI148
aI160
aI178
aI187
aI204
aI212
aI231
aI314
aI369
aI401
aI444
aI501
aI593
aI600
aI601
aI618
aI619
asI256
(lp245
I51
aI55
aI57
aI64
aI66
aI72
aI90
aI125
aI128
aI133
aI148
aI160
aI170
aI178
aI184
aI204
aI212
aI215
aI231
aI242
aI294
aI303
aI306
aI314
aI337
aI362
aI369
aI401
aI404
aI405
aI435
aI444
aI482
aI506
aI546
aI548
aI558
aI588
aI589
aI593
aI600
aI618
aI619
asI257
(lp246
I10
aI17
aI41
aI156
aI157
aI160
aI163
aI178
aI186
aI204
aI206
aI212
aI231
aI320
aI325
aI369
aI401
aI418
aI429
aI444
aI471
aI502
aI609
aI618
aI619
asI258
(lp247
I64
aI90
aI148
aI160
aI178
aI204
aI212
aI231
aI314
aI369
aI401
aI444
aI593
aI600
aI618
aI619
asI259
(lp248
I64
aI90
aI148
aI160
aI178
aI204
aI212
aI231
aI305
aI314
aI369
aI401
aI418
aI444
aI593
aI600
aI618
aI619
asI260
(lp249
I32
aI43
aI52
aI56
aI84
aI111
aI129
aI132
aI135
aI232
aI251
aI265
aI279
aI301
aI311
aI343
aI350
aI356
aI369
aI377
aI392
aI443
aI454
aI455
aI504
aI507
aI508
aI530
aI532
aI544
aI552
aI553
asI261
(lp250
I37
aI63
aI64
aI79
aI90
aI115
aI138
aI142
aI148
aI160
aI161
aI176
aI178
aI196
aI204
aI212
aI215
aI231
aI251
aI265
aI310
aI314
aI343
aI354
aI369
aI399
aI401
aI408
aI444
aI477
aI522
aI529
aI530
aI534
aI552
aI593
aI600
aI618
asI263
(lp251
I17
aI64
aI90
aI148
aI160
aI163
aI178
aI197
aI204
aI212
aI223
aI231
aI314
aI364
aI369
aI401
aI444
aI557
aI593
aI600
aI618
aI619
asI264
(lp252
I173
aI251
aI258
aI265
aI343
aI369
aI381
aI530
aI543
aI549
aI552
aI563
aI598
asI265
(lp253
I17
aI51
aI64
aI90
aI148
aI160
aI163
aI178
aI204
aI212
aI231
aI316
aI366
aI369
aI401
aI418
aI444
aI457
aI482
aI588
aI593
aI600
aI618
aI619
asI266
(lp254
I17
aI37
aI63
aI64
aI79
aI90
aI115
aI138
aI142
aI148
aI160
aI161
aI163
aI176
aI178
aI196
aI204
aI212
aI215
aI231
aI310
aI314
aI354
aI369
aI399
aI401
aI408
aI444
aI477
aI522
aI529
aI534
aI593
aI600
aI618
asI267
(lp255
I156
aI160
aI178
aI204
aI212
aI222
aI231
aI314
aI319
aI327
aI369
aI401
aI444
aI578
aI618
aI619
asI269
(lp256
I64
aI90
aI148
aI160
aI178
aI204
aI212
aI231
aI314
aI369
aI401
aI444
aI593
aI600
aI618
aI619
asI270
(lp257
I33
aI249
aI253
aI265
aI301
aI369
aI389
aI419
aI602
asI271
(lp258
I251
aI258
aI265
aI343
aI369
aI381
aI460
aI530
aI552
aI563
aI598
as.