(dp0
I2
(lp1
I3
aI96
aI97
aI98
aI99
aI100
aI222
aI223
aI224
aI225
aI226
aI227
aI228
aI289
aI290
aI291
aI292
aI293
aI304
aI305
aI306
aI307
aI308
aI309
aI310
aI311
aI312
aI313
aI314
aI315
aI316
aI317
aI318
aI319
aI320
aI321
aI322
aI323
aI324
aI325
aI326
aI327
aI328
aI329
aI330
aI331
aI332
aI372
aI381
aI435
aI436
aI443
aI444
aI445
aI540
aI541
aI542
aI543
aI551
aI555
aI556
aI557
asI3
(lp2
I123
aI124
asI4
(lp3
I1
aI2
aI3
aI8
aI243
aI244
aI245
aI431
aI437
aI544
aI552
asI5
(lp4
I125
aI126
aI131
aI360
aI361
aI363
aI365
aI366
aI367
aI368
aI369
aI370
aI371
aI372
aI381
asI6
(lp5
I1
aI2
aI3
aI8
aI243
aI244
aI245
aI431
aI437
aI544
aI552
asI8
(lp6
I1
aI2
aI3
aI8
aI243
aI244
aI245
aI431
aI437
aI544
aI552
asI10
(lp7
I124
aI125
aI126
aI131
asI11
(lp8
I545
aI546
aI547
asI12
(lp9
I230
aI231
aI232
aI233
aI234
aI235
aI236
aI237
aI238
aI239
aI240
aI241
aI242
asI14
(lp10
I1
aI2
aI3
aI8
aI243
aI244
aI245
aI431
aI437
aI544
aI552
aI564
aI565
asI15
(lp11
I123
aI124
aI561
aI562
asI16
(lp12
I1
aI2
aI3
aI8
aI243
aI244
aI245
aI431
aI437
aI544
aI552
aI564
aI565
asI17
(lp13
I121
aI126
aI134
aI135
aI136
aI137
aI138
aI146
aI148
aI149
aI150
aI151
aI152
aI153
aI154
aI155
aI156
aI157
aI158
asI18
(lp14
I123
aI124
asI19
(lp15
I2
aI3
aI4
aI7
aI8
aI11
aI14
aI16
aI17
aI18
aI20
aI23
aI350
aI353
aI358
aI437
aI438
aI439
aI441
aI442
aI525
aI526
aI528
aI529
aI531
aI544
aI545
aI546
aI547
aI552
asI20
(lp16
I123
aI124
aI125
aI126
aI131
asI21
(lp17
I125
aI126
aI131
aI359
aI360
aI361
aI362
aI363
aI364
aI365
aI366
aI367
aI368
aI369
aI370
aI371
aI372
aI380
aI381
asI22
(lp18
I123
aI124
aI125
aI126
aI131
asI23
(lp19
I121
aI123
aI124
aI134
aI135
aI136
aI137
aI138
aI139
aI146
aI148
aI150
aI151
aI152
aI153
aI154
aI155
aI156
aI157
aI158
aI566
asI24
(lp20
I14
aI17
aI229
aI289
aI290
aI291
aI304
aI306
aI308
aI309
aI310
aI311
aI315
aI316
aI320
aI325
aI326
aI331
aI372
aI381
aI434
aI435
aI436
aI551
asI25
(lp21
I1
aI2
aI3
aI8
aI243
aI244
aI245
aI431
aI437
aI544
aI552
asI26
(lp22
I159
aI160
aI161
aI168
aI169
aI170
aI171
aI172
aI173
aI174
aI179
aI180
aI184
aI185
aI186
aI187
aI188
aI189
aI190
asI27
(lp23
I159
aI160
aI161
aI165
aI167
aI168
aI169
aI170
aI171
aI172
aI173
aI174
aI179
aI180
aI181
aI182
aI183
aI184
aI185
aI186
aI187
aI188
aI189
aI190
aI191
aI192
aI193
aI195
asI29
(lp24
I1
aI2
aI3
aI8
aI243
aI244
aI245
aI431
aI437
aI544
aI552
asI30
(lp25
I121
aI126
aI134
aI135
aI136
aI137
aI138
aI139
aI141
aI144
aI146
aI148
aI149
aI150
aI151
aI152
aI153
aI154
aI155
aI156
aI157
aI158
aI196
aI197
aI198
aI199
aI200
aI201
aI202
aI203
aI204
aI205
aI206
aI207
aI209
aI210
aI211
aI212
aI213
aI214
aI215
aI216
aI217
aI218
aI219
aI220
aI221
aI411
aI414
aI416
aI417
aI418
aI419
aI421
aI422
aI424
aI426
aI429
aI430
asI31
(lp26
I382
aI383
aI384
aI385
aI386
aI387
aI388
aI389
aI390
aI391
aI392
aI393
aI394
aI395
asI32
(lp27
I0
aI2
aI3
aI4
aI8
aI9
aI10
aI11
aI12
aI13
aI22
aI23
aI24
aI25
aI350
aI351
aI352
aI353
aI354
aI355
aI356
aI357
aI437
aI438
aI439
aI440
aI476
aI506
aI507
aI508
aI511
aI515
aI516
aI517
aI518
aI519
aI520
aI521
aI522
aI523
aI524
aI552
aI567
asI34
(lp28
I1
aI2
aI3
aI8
aI243
aI244
aI245
aI431
aI437
aI544
aI552
asI35
(lp29
I36
aI37
aI38
aI39
aI40
aI41
aI42
aI43
aI54
aI55
aI56
aI57
aI58
aI59
aI60
aI61
aI77
aI78
aI79
aI85
aI86
aI87
aI88
aI89
aI90
aI91
aI92
aI93
aI94
aI95
asI36
(lp30
I1
aI2
aI3
aI8
aI243
aI244
aI245
aI431
aI437
aI544
aI552
asI37
(lp31
I123
aI124
asI38
(lp32
I1
aI2
aI3
aI8
aI243
aI244
aI245
aI431
aI437
aI544
aI552
asI40
(lp33
I159
aI160
aI161
aI164
aI166
aI168
aI169
aI170
aI171
aI172
aI173
aI174
aI175
aI176
aI177
aI178
aI184
aI185
aI186
aI188
aI189
aI190
aI191
aI192
aI193
aI194
aI195
asI41
(lp34
I1
aI2
aI3
aI8
aI243
aI244
aI245
aI431
aI437
aI544
aI552
asI42
(lp35
I101
aI102
aI103
aI104
aI105
aI106
aI107
aI108
aI109
aI110
aI111
aI112
aI113
aI114
aI115
aI116
aI117
aI118
aI119
aI120
aI303
aI515
aI516
aI517
aI518
aI520
aI521
aI522
aI523
aI524
asI43
(lp36
I123
aI124
aI125
aI126
aI131
asI44
(lp37
I121
aI122
aI126
aI134
aI135
aI136
aI139
aI141
aI148
aI149
aI150
aI288
aI298
aI299
aI300
aI301
aI302
aI558
aI559
aI560
asI45
(lp38
I123
aI124
aI399
aI400
aI401
aI402
aI403
aI404
aI405
aI406
aI407
aI408
aI409
aI410
asI46
(lp39
I2
aI3
aI5
aI6
aI7
aI8
aI9
aI10
aI23
aI25
aI350
aI353
aI358
aI437
aI439
aI441
aI442
aI455
aI456
aI457
aI458
aI459
aI460
aI461
aI462
aI463
aI464
aI465
aI466
aI467
aI468
aI469
aI470
aI471
aI472
aI473
aI515
aI516
aI517
aI518
aI519
aI520
aI521
aI522
aI523
aI524
aI552
asI48
(lp40
I123
aI124
aI561
aI563
asI49
(lp41
I255
aI256
aI257
aI258
aI259
aI260
aI261
aI262
asI50
(lp42
I1
aI2
aI3
aI8
aI243
aI244
aI245
aI431
aI437
aI544
aI552
asI51
(lp43
I1
aI2
aI3
aI8
aI243
aI244
aI245
aI246
aI247
aI431
aI437
aI544
aI552
asI52
(lp44
I417
aI422
asI53
(lp45
I1
aI2
aI3
aI8
aI243
aI244
aI245
aI431
aI437
aI544
aI552
asI54
(lp46
I1
aI2
aI3
aI8
aI243
aI244
aI245
aI431
aI437
aI544
aI552
asI55
(lp47
I1
aI2
aI3
aI4
aI8
aI243
aI244
aI245
aI249
aI250
aI251
aI253
aI254
aI344
aI431
aI432
aI433
aI437
aI544
aI552
aI565
asI56
(lp48
I1
aI2
aI3
aI7
aI8
aI243
aI244
aI245
aI248
aI339
aI340
aI431
aI437
aI512
aI513
aI514
aI544
aI552
asI57
(lp49
I1
aI2
aI3
aI4
aI8
aI243
aI244
aI245
aI249
aI250
aI251
aI252
aI253
aI254
aI344
aI349
aI431
aI432
aI433
aI437
aI544
aI547
aI552
aI564
aI565
asI58
(lp50
I388
aI389
aI390
aI391
aI392
aI393
aI394
aI395
aI396
asI59
(lp51
I124
asI60
(lp52
I532
aI533
aI534
asI61
(lp53
I2
aI3
aI4
aI7
aI8
aI437
aI439
aI441
aI442
aI568
asI63
(lp54
I123
aI124
aI125
aI126
aI131
asI64
(lp55
I539
asI65
(lp56
I446
aI447
aI448
aI449
aI450
aI451
aI452
aI453
aI454
asI66
(lp57
I125
aI131
aI411
aI414
aI416
aI417
aI418
aI419
aI421
aI422
aI423
aI424
aI425
aI426
aI428
aI548
aI549
aI550
asI67
(lp58
I159
aI160
aI161
aI165
aI167
aI168
aI169
aI170
aI171
aI172
aI173
aI174
aI179
aI180
aI181
aI182
aI183
aI184
aI185
aI186
aI187
aI188
aI189
aI190
aI191
aI192
aI193
aI194
aI195
asI68
(lp59
I125
aI126
aI132
aI133
aI134
aI135
aI136
aI137
aI138
aI139
aI141
aI142
aI143
aI144
aI145
aI146
aI147
aI148
aI149
aI150
aI151
aI152
aI153
aI154
aI155
aI156
aI157
aI158
aI263
aI264
aI265
aI266
aI267
aI268
aI269
aI270
aI271
aI272
aI273
aI274
aI275
aI276
aI277
aI278
aI279
aI280
aI281
aI282
aI283
aI411
aI412
aI413
aI414
aI415
aI416
aI417
aI418
aI419
aI420
aI421
aI422
aI423
aI424
aI425
aI426
aI427
aI535
aI536
aI537
aI538
aI539
asI69
(lp60
I284
aI285
aI286
aI287
asI70
(lp61
I123
aI124
asI71
(lp62
I123
aI124
asI72
(lp63
I159
aI160
aI161
aI168
aI169
aI170
aI171
aI172
aI184
aI185
aI186
aI188
aI189
aI190
asI73
(lp64
I553
aI554
asI74
(lp65
I1
aI2
aI3
aI4
aI8
aI243
aI244
aI245
aI249
aI250
aI251
aI252
aI253
aI254
aI344
aI349
aI431
aI432
aI433
aI437
aI512
aI513
aI514
aI544
aI547
aI552
asI76
(lp66
I123
aI124
asI77
(lp67
I477
aI478
asI78
(lp68
I122
aI288
asI79
(lp69
I553
asI80
(lp70
I1
aI2
aI3
aI4
aI8
aI243
aI244
aI245
aI249
aI250
aI251
aI252
aI253
aI254
aI344
aI349
aI431
aI432
aI433
aI437
aI512
aI513
aI514
aI544
aI547
aI552
aI564
aI565
asI81
(lp71
I125
aI126
aI131
aI363
aI365
aI366
aI367
aI369
aI370
aI379
aI381
asI82
(lp72
I489
aI490
aI491
aI492
aI493
aI494
aI495
aI496
aI497
aI498
aI499
aI500
aI501
aI512
aI513
aI547
asI83
(lp73
I1
aI2
aI3
aI8
aI243
aI244
aI245
aI431
aI437
aI544
aI552
asI85
(lp74
I2
aI3
aI4
aI5
aI6
aI7
aI8
aI9
aI10
aI23
aI25
aI350
aI353
aI358
aI437
aI439
aI441
aI442
aI455
aI456
aI457
aI458
aI459
aI460
aI461
aI462
aI463
aI464
aI465
aI466
aI467
aI468
aI469
aI470
aI471
aI472
aI473
aI515
aI516
aI517
aI518
aI519
aI520
aI521
aI522
aI523
aI524
aI552
asI86
(lp75
I1
aI2
aI3
aI8
aI243
aI244
aI245
aI431
aI437
aI512
aI513
aI514
aI544
aI552
asI87
(lp76
I206
aI207
aI208
aI417
aI422
asI88
(lp77
I1
aI2
aI3
aI8
aI243
aI244
aI245
aI431
aI437
aI544
aI552
asI89
(lp78
I123
aI124
aI125
aI126
aI131
asI90
(lp79
I502
aI503
aI504
aI505
asI91
(lp80
I26
aI27
aI28
aI29
aI30
aI31
aI32
aI33
aI34
aI35
aI44
aI45
aI46
aI47
aI48
aI49
aI50
aI51
aI52
aI53
aI54
aI55
aI56
aI57
aI58
aI59
aI60
aI61
aI62
aI63
aI64
aI65
aI66
aI67
aI68
aI69
aI70
aI71
aI72
aI73
aI74
aI75
aI76
aI80
aI81
aI82
aI83
aI84
aI85
aI86
aI87
aI88
aI89
aI90
aI91
aI92
aI93
aI94
aI95
asI92
(lp81
I159
aI160
aI161
aI165
aI167
aI168
aI169
aI170
aI171
aI172
aI173
aI174
aI179
aI180
aI181
aI182
aI183
aI184
aI185
aI186
aI187
aI188
aI189
aI190
aI191
aI192
aI193
aI194
aI195
asI93
(lp82
I159
aI160
aI161
aI168
aI169
aI170
aI171
aI172
aI173
aI174
aI179
aI184
aI185
aI188
aI189
aI190
asI94
(lp83
I1
aI2
aI3
aI4
aI7
aI8
aI15
aI20
aI243
aI244
aI245
aI248
aI249
aI250
aI251
aI252
aI253
aI254
aI339
aI340
aI344
aI349
aI431
aI432
aI433
aI437
aI512
aI513
aI514
aI544
aI547
aI552
aI564
aI565
asI95
(lp84
I1
aI2
aI3
aI8
aI243
aI244
aI245
aI431
aI437
aI544
aI552
asI96
(lp85
I397
aI398
asI97
(lp86
I2
aI3
aI4
aI7
aI8
aI16
aI19
aI23
aI350
aI353
aI358
aI437
aI439
aI441
aI442
aI525
aI526
aI530
aI552
asI98
(lp87
I124
aI125
aI126
aI131
asI99
(lp88
I159
aI160
aI161
aI162
aI166
aI168
aI169
aI170
aI171
aI172
aI173
aI174
aI175
aI176
aI177
aI184
aI185
aI186
aI188
aI189
aI190
aI191
aI192
aI193
aI194
aI195
asI100
(lp89
I2
aI3
aI4
aI7
aI8
aI11
aI14
aI16
aI17
aI18
aI19
aI20
aI21
aI23
aI132
aI133
aI134
aI135
aI136
aI137
aI138
aI139
aI140
aI141
aI143
aI144
aI145
aI146
aI148
aI149
aI150
aI151
aI152
aI153
aI154
aI155
aI156
aI157
aI158
aI333
aI334
aI335
aI336
aI337
aI338
aI339
aI340
aI341
aI342
aI343
aI344
aI345
aI346
aI347
aI348
aI349
aI350
aI353
aI358
aI437
aI438
aI439
aI441
aI442
aI525
aI526
aI527
aI528
aI529
aI531
aI544
aI545
aI546
aI547
aI552
asI101
(lp90
I1
aI2
aI3
aI4
aI7
aI8
aI243
aI244
aI245
aI248
aI249
aI250
aI251
aI252
aI253
aI254
aI339
aI340
aI344
aI349
aI431
aI432
aI433
aI437
aI512
aI513
aI514
aI544
aI547
aI552
aI564
aI565
asI102
(lp91
I1
aI2
aI3
aI8
aI243
aI244
aI245
aI431
aI437
aI544
aI552
asI103
(lp92
I148
aI149
aI150
aI151
asI104
(lp93
I159
aI161
aI165
aI167
aI168
aI169
aI170
aI172
aI179
aI180
aI186
aI191
aI192
aI193
aI194
asI106
(lp94
I1
aI2
aI3
aI8
aI243
aI244
aI245
aI431
aI437
aI544
aI552
asI107
(lp95
I124
aI125
aI126
aI131
asI108
(lp96
I159
aI160
aI161
aI163
aI167
aI168
aI169
aI170
aI171
aI172
aI173
aI174
aI179
aI180
aI181
aI182
aI184
aI185
aI186
aI187
aI188
aI189
aI190
aI191
aI192
aI193
aI194
aI195
asI109
(lp97
I474
aI475
asI110
(lp98
I2
aI3
aI4
aI7
aI8
aI11
aI350
aI353
aI358
aI437
aI438
aI439
aI441
aI442
asI111
(lp99
I159
aI160
aI161
aI165
aI167
aI168
aI169
aI170
aI171
aI172
aI173
aI174
aI179
aI180
aI181
aI182
aI183
aI184
aI185
aI186
aI187
aI188
aI189
aI190
aI191
aI192
aI193
aI194
aI195
asI112
(lp100
I1
aI2
aI3
aI8
aI243
aI244
aI245
aI431
aI437
aI544
aI552
asI114
(lp101
I2
aI3
aI4
aI7
aI8
aI11
aI14
aI16
aI17
aI18
aI23
aI437
aI439
aI441
aI442
aI526
aI530
aI552
asI115
(lp102
I1
aI2
aI3
aI8
aI243
aI244
aI245
aI431
aI437
aI512
aI513
aI514
aI544
aI552
asI116
(lp103
I7
aI8
aI358
aI437
aI509
aI510
asI117
(lp104
I127
aI128
aI129
aI130
aI411
aI414
aI416
aI417
aI418
aI419
aI420
aI422
aI423
aI424
aI425
aI426
asI118
(lp105
I294
aI295
aI296
aI297
aI388
aI389
aI390
aI393
aI394
asI119
(lp106
I1
aI2
aI3
aI8
aI243
aI244
aI245
aI431
aI437
aI544
aI552
asI120
(lp107
I479
aI480
asI123
(lp108
I373
aI374
aI375
aI376
aI377
aI378
asI124
(lp109
I159
aI161
aI163
aI167
aI168
aI169
aI170
aI172
aI179
aI180
aI182
aI186
aI191
aI192
asI127
(lp110
I255
aI256
aI257
aI258
aI259
aI260
aI261
aI262
asI128
(lp111
I123
aI124
aI481
aI482
aI483
aI484
aI485
aI486
aI487
aI488
asI129
(lp112
I159
aI160
aI161
aI165
aI167
aI168
aI169
aI170
aI171
aI172
aI173
aI174
aI179
aI180
aI181
aI184
aI185
aI186
aI187
aI188
aI189
aI190
aI191
aI192
aI193
aI195
asI130
(lp113
I123
aI124
as.