(dp0
I1
(lp1
I391
aI392
aI393
aI394
aI395
aI396
aI469
aI470
aI471
aI472
aI473
aI485
aI553
aI554
aI555
aI564
aI565
aI567
aI569
aI570
aI573
aI732
aI733
aI734
aI754
aI756
aI757
aI758
aI787
aI790
aI792
aI793
aI794
aI795
asI2
(lp2
I23
aI24
aI25
aI26
aI27
aI28
aI96
aI98
aI99
aI100
aI101
aI102
aI103
aI107
aI112
aI114
aI115
aI116
aI117
aI118
aI121
aI123
aI135
aI139
aI142
aI144
aI148
aI149
aI150
aI152
aI160
aI161
aI163
aI164
aI165
aI166
aI175
aI176
aI179
aI180
aI181
aI182
aI183
aI211
aI212
aI213
aI214
aI215
aI216
aI217
aI218
aI219
aI220
aI223
aI225
aI227
aI248
aI249
aI250
aI251
aI252
aI253
aI284
aI289
aI290
aI291
aI292
aI293
aI294
aI295
aI296
aI297
aI298
aI299
aI300
aI301
aI302
aI303
aI304
aI305
aI306
aI307
aI308
aI309
aI310
aI313
aI331
aI333
aI334
aI356
aI360
aI361
aI362
aI363
aI364
aI365
aI366
aI367
aI368
aI369
aI370
aI372
aI373
aI374
aI376
aI377
aI378
aI379
aI380
aI381
aI382
aI383
aI384
aI385
aI386
aI387
aI388
aI389
aI390
aI443
aI444
aI445
aI446
aI447
aI448
aI449
aI450
aI451
aI452
aI453
aI454
aI455
aI456
aI457
aI458
aI459
aI460
aI461
aI462
aI463
aI464
aI465
aI466
aI467
aI468
aI469
aI470
aI471
aI472
aI473
aI474
aI475
aI476
aI477
aI478
aI479
aI480
aI481
aI482
aI483
aI484
aI485
aI486
aI487
aI539
aI540
aI541
aI542
aI543
aI544
aI545
aI546
aI547
aI548
aI549
aI550
aI551
aI552
aI566
aI569
aI570
aI573
aI618
aI622
aI624
aI625
aI626
aI644
aI646
aI647
aI648
aI663
aI675
aI678
aI703
aI714
aI715
aI720
aI721
aI732
aI754
aI756
aI757
aI758
aI783
aI784
aI785
aI790
aI791
aI792
aI793
aI794
aI795
aI796
aI799
aI801
aI802
aI803
aI804
aI846
asI3
(lp3
I590
aI591
aI592
aI593
aI600
aI601
aI602
aI749
aI756
aI757
aI758
aI852
aI853
aI854
aI858
aI860
aI861
asI4
(lp4
I756
aI830
asI5
(lp5
I360
aI361
aI362
aI363
aI364
aI365
aI366
aI367
aI383
aI384
aI385
aI386
aI387
aI388
aI389
aI390
aI566
aI574
aI575
aI576
aI577
aI578
aI581
aI583
aI585
aI587
aI589
aI677
aI678
aI756
aI757
aI758
asI6
(lp6
I23
aI24
aI25
aI26
aI27
aI28
aI61
aI81
aI98
aI99
aI103
aI107
aI112
aI114
aI115
aI116
aI117
aI118
aI121
aI123
aI139
aI144
aI148
aI149
aI150
aI152
aI153
aI172
aI173
aI174
aI175
aI176
aI177
aI178
aI179
aI180
aI181
aI182
aI183
aI184
aI185
aI186
aI187
aI191
aI192
aI193
aI211
aI212
aI213
aI214
aI220
aI221
aI223
aI224
aI225
aI227
aI241
aI242
aI243
aI244
aI245
aI246
aI247
aI248
aI249
aI253
aI284
aI287
aI289
aI290
aI291
aI292
aI293
aI294
aI295
aI296
aI297
aI298
aI299
aI300
aI301
aI302
aI303
aI304
aI305
aI306
aI307
aI308
aI309
aI310
aI313
aI331
aI332
aI333
aI334
aI356
aI360
aI361
aI362
aI363
aI364
aI365
aI366
aI367
aI368
aI369
aI370
aI371
aI373
aI374
aI376
aI377
aI378
aI379
aI380
aI381
aI382
aI383
aI384
aI385
aI386
aI387
aI388
aI389
aI390
aI391
aI392
aI443
aI444
aI445
aI446
aI447
aI448
aI449
aI450
aI451
aI452
aI453
aI454
aI455
aI456
aI457
aI458
aI459
aI460
aI461
aI462
aI463
aI464
aI465
aI466
aI467
aI468
aI469
aI470
aI471
aI472
aI473
aI474
aI475
aI476
aI477
aI478
aI479
aI480
aI481
aI482
aI483
aI484
aI485
aI486
aI487
aI553
aI554
aI555
aI556
aI557
aI558
aI559
aI560
aI561
aI562
aI563
aI564
aI565
aI566
aI567
aI569
aI570
aI573
aI606
aI618
aI622
aI623
aI624
aI625
aI626
aI645
aI646
aI648
aI675
aI703
aI707
aI708
aI709
aI710
aI713
aI715
aI732
aI754
aI756
aI757
aI758
aI787
aI790
aI791
aI792
aI793
aI794
aI795
aI863
asI7
(lp7
I23
aI24
aI25
aI26
aI27
aI28
aI29
aI30
aI31
aI32
aI34
aI35
aI36
aI37
aI38
aI39
aI40
aI41
aI42
aI43
aI44
aI45
aI46
aI47
aI48
aI49
aI50
aI51
aI52
aI53
aI54
aI55
aI56
aI57
aI58
aI98
aI99
aI103
aI107
aI112
aI113
aI114
aI115
aI116
aI117
aI118
aI120
aI121
aI122
aI124
aI126
aI128
aI129
aI130
aI131
aI133
aI138
aI140
aI147
aI148
aI149
aI150
aI151
aI152
aI153
aI154
aI155
aI156
aI157
aI158
aI159
aI181
aI182
aI183
aI184
aI185
aI186
aI191
aI192
aI221
aI223
aI224
aI225
aI227
aI241
aI242
aI243
aI244
aI245
aI246
aI247
aI248
aI249
aI253
aI284
aI286
aI289
aI290
aI291
aI292
aI293
aI294
aI295
aI296
aI297
aI298
aI299
aI300
aI301
aI302
aI303
aI304
aI305
aI306
aI307
aI308
aI309
aI310
aI312
aI313
aI331
aI332
aI333
aI334
aI356
aI360
aI361
aI362
aI363
aI364
aI365
aI366
aI367
aI368
aI369
aI370
aI371
aI373
aI374
aI376
aI377
aI378
aI379
aI380
aI381
aI382
aI383
aI384
aI385
aI386
aI387
aI388
aI389
aI390
aI392
aI396
aI488
aI489
aI490
aI491
aI492
aI493
aI494
aI495
aI496
aI497
aI498
aI499
aI500
aI501
aI502
aI503
aI504
aI553
aI554
aI555
aI556
aI557
aI558
aI559
aI560
aI561
aI562
aI563
aI564
aI565
aI566
aI590
aI591
aI592
aI593
aI594
aI595
aI596
aI597
aI598
aI599
aI600
aI601
aI602
aI675
aI689
aI690
aI702
aI707
aI708
aI709
aI710
aI756
aI757
aI758
aI759
aI762
aI766
aI768
aI770
aI771
aI852
aI857
aI858
aI859
aI860
aI861
aI863
asI8
(lp8
I756
aI852
asI9
(lp9
I23
aI24
aI25
aI26
aI27
aI28
aI67
aI73
aI87
aI93
aI98
aI99
aI103
aI107
aI112
aI114
aI115
aI116
aI117
aI118
aI120
aI121
aI123
aI139
aI144
aI148
aI149
aI150
aI152
aI175
aI176
aI179
aI180
aI181
aI182
aI183
aI211
aI212
aI213
aI214
aI220
aI223
aI225
aI227
aI248
aI249
aI253
aI284
aI289
aI290
aI291
aI292
aI293
aI294
aI295
aI296
aI297
aI298
aI299
aI300
aI301
aI302
aI303
aI304
aI305
aI306
aI307
aI308
aI309
aI310
aI313
aI331
aI332
aI333
aI334
aI356
aI360
aI361
aI362
aI363
aI364
aI365
aI366
aI367
aI368
aI369
aI370
aI371
aI373
aI374
aI376
aI377
aI378
aI379
aI380
aI381
aI382
aI383
aI384
aI385
aI386
aI387
aI388
aI389
aI390
aI443
aI444
aI445
aI446
aI447
aI448
aI449
aI450
aI451
aI452
aI453
aI454
aI455
aI456
aI457
aI458
aI459
aI460
aI461
aI462
aI463
aI464
aI465
aI466
aI467
aI468
aI469
aI470
aI471
aI472
aI473
aI474
aI475
aI476
aI477
aI478
aI479
aI480
aI481
aI482
aI483
aI484
aI485
aI486
aI487
aI566
aI567
aI569
aI570
aI573
aI606
aI618
aI622
aI623
aI624
aI625
aI626
aI645
aI646
aI648
aI675
aI703
aI713
aI715
aI732
aI754
aI756
aI757
aI758
aI790
aI791
aI792
aI793
aI794
aI795
asI10
(lp10
I569
aI570
aI573
aI680
aI681
aI682
aI688
aI749
aI754
aI814
aI815
aI819
aI821
asI11
(lp11
I391
aI392
aI393
aI394
aI395
aI396
aI488
aI489
aI490
aI491
aI492
aI493
aI553
aI554
aI555
aI564
aI565
aI590
aI591
aI592
aI689
aI690
aI691
aI692
aI756
aI757
aI758
aI759
aI762
aI765
aI766
aI770
aI771
aI852
aI858
aI860
aI861
asI12
(lp12
I391
aI392
aI397
aI399
aI436
aI553
aI554
aI555
aI562
aI563
aI564
aI565
aI756
asI13
(lp13
I539
aI540
aI541
aI542
aI543
aI550
aI551
aI646
aI647
aI749
aI756
aI757
aI758
aI799
aI802
aI803
aI846
aI847
aI849
asI14
(lp14
I360
aI361
aI362
aI363
aI364
aI365
aI366
aI367
aI383
aI384
aI385
aI386
aI387
aI388
aI389
aI390
aI566
aI574
aI575
aI576
aI577
aI578
aI581
aI583
aI585
aI587
aI589
aI677
aI756
aI757
aI758
asI15
(lp15
I469
aI470
aI471
aI472
aI473
aI486
aI567
aI569
aI570
aI573
aI606
aI609
aI619
aI624
aI625
aI626
aI646
aI647
aI649
aI650
aI651
aI658
aI732
aI754
aI756
aI757
aI758
aI790
aI792
aI793
aI794
aI795
aI830
aI835
aI837
aI839
asI16
(lp16
I569
aI570
aI571
aI572
aI573
aI754
aI755
aI816
aI817
asI17
(lp17
I469
aI470
aI471
aI472
aI473
aI474
aI483
aI484
aI485
aI486
aI487
aI539
aI540
aI541
aI542
aI543
aI550
aI551
aI567
aI569
aI570
aI573
aI646
aI648
aI732
aI741
aI742
aI744
aI749
aI751
aI752
aI753
aI754
aI756
aI757
aI758
aI790
aI792
aI793
aI794
aI795
aI796
aI799
aI802
aI803
aI846
aI847
aI848
aI849
aI851
aI862
asI18
(lp18
I756
aI804
aI846
asI19
(lp19
I756
aI757
aI830
aI836
asI20
(lp20
I756
asI21
(lp21
I443
aI444
aI445
aI446
aI447
aI448
aI449
aI450
aI451
aI462
aI463
aI464
aI465
aI466
aI467
aI469
aI470
aI471
aI472
aI473
aI474
aI483
aI484
aI485
aI486
aI487
aI567
aI569
aI570
aI573
aI609
aI618
aI623
aI624
aI626
aI627
aI629
aI631
aI632
aI633
aI635
aI637
aI641
aI644
aI648
aI649
aI650
aI651
aI652
aI658
aI659
aI703
aI732
aI741
aI742
aI744
aI749
aI751
aI752
aI753
aI754
aI756
aI757
aI758
aI790
aI792
aI793
aI794
aI795
aI830
aI831
aI832
aI833
aI834
aI835
aI837
aI839
aI862
asI22
(lp22
I689
aI756
aI757
aI760
aI763
asI23
(lp23
I360
aI361
aI362
aI363
aI364
aI365
aI366
aI367
aI383
aI384
aI385
aI386
aI387
aI388
aI389
aI390
aI443
aI444
aI445
aI446
aI447
aI448
aI449
aI450
aI451
aI462
aI463
aI464
aI465
aI466
aI467
aI566
aI574
aI575
aI576
aI577
aI578
aI581
aI583
aI584
aI585
aI587
aI589
aI618
aI623
aI624
aI626
aI627
aI629
aI631
aI633
aI635
aI637
aI644
aI646
aI647
aI675
aI677
aI703
aI749
aI756
aI757
aI758
asI24
(lp24
I23
aI24
aI25
aI26
aI27
aI28
aI96
aI98
aI99
aI103
aI107
aI112
aI114
aI115
aI116
aI117
aI118
aI121
aI123
aI139
aI144
aI148
aI149
aI150
aI152
aI175
aI176
aI179
aI180
aI181
aI182
aI183
aI211
aI212
aI213
aI214
aI220
aI223
aI225
aI227
aI248
aI249
aI253
aI284
aI286
aI289
aI290
aI291
aI292
aI293
aI294
aI295
aI296
aI297
aI298
aI299
aI300
aI301
aI302
aI303
aI304
aI305
aI306
aI307
aI308
aI309
aI310
aI313
aI331
aI332
aI333
aI334
aI356
aI360
aI361
aI362
aI363
aI364
aI365
aI366
aI367
aI368
aI369
aI370
aI371
aI373
aI374
aI376
aI377
aI378
aI379
aI380
aI381
aI382
aI383
aI384
aI385
aI386
aI387
aI388
aI389
aI390
aI443
aI444
aI445
aI446
aI447
aI448
aI449
aI450
aI451
aI452
aI453
aI454
aI455
aI456
aI457
aI458
aI459
aI460
aI461
aI462
aI463
aI464
aI465
aI466
aI467
aI468
aI469
aI470
aI471
aI472
aI473
aI474
aI475
aI476
aI477
aI478
aI479
aI480
aI481
aI482
aI483
aI484
aI485
aI486
aI487
aI566
aI567
aI569
aI570
aI573
aI606
aI618
aI622
aI623
aI624
aI625
aI626
aI645
aI646
aI648
aI675
aI703
aI713
aI715
aI732
aI754
aI756
aI757
aI758
aI783
aI784
aI785
aI790
aI791
aI792
aI793
aI794
aI795
asI25
(lp25
I393
aI396
aI488
aI489
aI490
aI491
aI492
aI493
aI494
aI502
aI503
aI590
aI591
aI592
aI593
aI600
aI601
aI602
aI689
aI690
aI693
aI695
aI696
aI697
aI698
aI700
aI702
aI747
aI748
aI749
aI750
aI751
aI752
aI753
aI756
aI757
aI758
aI759
aI766
aI768
aI769
aI770
aI852
aI853
aI854
aI858
aI860
aI861
asI26
(lp26
I391
aI392
aI397
aI399
aI435
aI442
aI505
aI506
aI507
aI508
aI509
aI510
aI518
aI519
aI520
aI521
aI553
aI554
aI555
aI562
aI563
aI564
aI565
aI749
aI751
aI752
aI753
aI756
aI757
aI758
aI783
aI786
aI823
aI825
aI827
aI828
aI829
aI840
aI841
aI842
aI843
aI845
asI27
(lp27
I1
aI2
aI3
aI20
aI21
aI22
aI24
aI25
aI26
aI27
aI28
aI98
aI99
aI103
aI107
aI112
aI114
aI115
aI116
aI117
aI118
aI120
aI121
aI122
aI124
aI126
aI128
aI129
aI130
aI133
aI149
aI150
aI152
aI155
aI156
aI181
aI182
aI223
aI225
aI227
aI289
aI290
aI291
aI292
aI293
aI294
aI295
aI296
aI297
aI298
aI299
aI300
aI301
aI302
aI303
aI305
aI306
aI307
aI310
aI311
aI313
aI314
aI317
aI318
aI325
aI331
aI332
aI333
aI334
aI335
aI337
aI342
aI343
aI689
aI756
aI770
aI771
aI852
aI860
asI28
(lp28
I4
aI5
aI10
aI11
aI12
aI16
aI19
aI23
aI24
aI25
aI26
aI27
aI28
aI61
aI62
aI63
aI64
aI65
aI66
aI67
aI68
aI69
aI70
aI71
aI72
aI73
aI74
aI75
aI81
aI82
aI83
aI84
aI85
aI86
aI87
aI88
aI89
aI90
aI91
aI92
aI93
aI94
aI95
aI96
aI98
aI99
aI103
aI107
aI112
aI114
aI115
aI116
aI117
aI118
aI121
aI123
aI139
aI144
aI148
aI149
aI150
aI152
aI172
aI173
aI175
aI176
aI177
aI179
aI180
aI181
aI182
aI183
aI184
aI185
aI186
aI190
aI191
aI192
aI194
aI211
aI212
aI213
aI214
aI220
aI223
aI225
aI227
aI228
aI229
aI230
aI231
aI232
aI233
aI234
aI235
aI236
aI241
aI242
aI243
aI244
aI245
aI246
aI247
aI248
aI249
aI253
aI254
aI255
aI256
aI257
aI258
aI259
aI261
aI282
aI283
aI284
aI286
aI287
aI288
aI289
aI290
aI291
aI292
aI293
aI294
aI295
aI296
aI297
aI298
aI299
aI300
aI301
aI302
aI303
aI304
aI305
aI306
aI307
aI308
aI309
aI310
aI313
aI331
aI332
aI333
aI334
aI356
aI360
aI361
aI362
aI363
aI364
aI365
aI366
aI367
aI368
aI369
aI370
aI371
aI373
aI374
aI376
aI377
aI378
aI379
aI380
aI381
aI382
aI383
aI384
aI385
aI386
aI387
aI388
aI389
aI390
aI391
aI392
aI443
aI444
aI445
aI446
aI447
aI448
aI449
aI450
aI451
aI452
aI453
aI454
aI455
aI456
aI457
aI458
aI459
aI460
aI461
aI462
aI463
aI464
aI465
aI466
aI467
aI468
aI469
aI470
aI471
aI472
aI473
aI474
aI475
aI476
aI477
aI478
aI479
aI480
aI481
aI482
aI483
aI484
aI485
aI486
aI487
aI553
aI554
aI555
aI556
aI557
aI558
aI559
aI560
aI561
aI562
aI563
aI564
aI565
aI566
aI569
aI570
aI573
aI606
aI618
aI622
aI623
aI624
aI625
aI626
aI645
aI646
aI648
aI675
aI703
aI707
aI708
aI709
aI710
aI713
aI715
aI732
aI754
aI756
aI757
aI758
aI783
aI784
aI785
aI787
aI790
aI791
aI792
aI793
aI794
aI795
aI863
asI29
(lp29
I5
aI6
aI7
aI8
aI9
aI10
aI11
aI12
aI13
aI14
aI15
aI16
aI17
aI18
aI19
aI23
aI24
aI25
aI26
aI27
aI28
aI73
aI93
aI98
aI99
aI103
aI107
aI112
aI114
aI115
aI116
aI117
aI118
aI121
aI123
aI139
aI144
aI148
aI149
aI150
aI152
aI172
aI173
aI175
aI176
aI177
aI179
aI180
aI181
aI182
aI183
aI190
aI211
aI212
aI213
aI214
aI220
aI223
aI225
aI227
aI228
aI229
aI230
aI231
aI232
aI233
aI234
aI235
aI236
aI241
aI242
aI243
aI244
aI245
aI246
aI247
aI248
aI249
aI253
aI255
aI256
aI257
aI258
aI259
aI261
aI282
aI283
aI284
aI289
aI290
aI291
aI292
aI293
aI294
aI295
aI296
aI297
aI298
aI299
aI300
aI301
aI302
aI303
aI304
aI305
aI306
aI307
aI308
aI309
aI310
aI313
aI331
aI332
aI333
aI334
aI356
aI360
aI361
aI362
aI363
aI364
aI365
aI366
aI367
aI368
aI369
aI370
aI371
aI373
aI374
aI376
aI377
aI378
aI379
aI380
aI381
aI382
aI383
aI384
aI385
aI386
aI387
aI388
aI389
aI390
aI391
aI392
aI443
aI444
aI445
aI446
aI447
aI448
aI449
aI450
aI451
aI452
aI453
aI454
aI455
aI456
aI457
aI458
aI459
aI460
aI461
aI462
aI463
aI464
aI465
aI466
aI467
aI468
aI469
aI470
aI471
aI472
aI473
aI474
aI475
aI476
aI477
aI478
aI479
aI480
aI481
aI482
aI483
aI484
aI485
aI486
aI487
aI553
aI554
aI555
aI556
aI557
aI558
aI559
aI560
aI561
aI562
aI563
aI564
aI565
aI566
aI567
aI569
aI570
aI573
aI606
aI618
aI622
aI623
aI624
aI625
aI626
aI645
aI646
aI648
aI675
aI703
aI707
aI708
aI709
aI710
aI713
aI715
aI732
aI754
aI756
aI757
aI758
aI787
aI790
aI791
aI792
aI793
aI794
aI795
aI863
asI30
(lp30
I522
aI523
aI524
aI525
aI526
aI535
aI537
aI756
aI757
aI758
aI778
aI780
aI781
aI805
asI31
(lp31
I756
aI757
aI783
aI827
aI828
aI840
asI32
(lp32
I689
aI756
aI771
asI33
(lp33
I23
aI24
aI25
aI26
aI27
aI28
aI59
aI60
aI61
aI62
aI63
aI64
aI65
aI66
aI67
aI68
aI69
aI70
aI71
aI72
aI73
aI74
aI75
aI76
aI77
aI78
aI79
aI80
aI81
aI82
aI83
aI84
aI85
aI86
aI87
aI88
aI89
aI90
aI91
aI92
aI93
aI94
aI95
aI96
aI98
aI99
aI103
aI107
aI112
aI114
aI115
aI116
aI117
aI118
aI120
aI123
aI139
aI144
aI148
aI149
aI150
aI152
aI153
aI175
aI176
aI179
aI180
aI181
aI182
aI183
aI211
aI212
aI213
aI214
aI220
aI223
aI225
aI227
aI248
aI249
aI253
aI284
aI287
aI288
aI289
aI290
aI291
aI292
aI293
aI294
aI295
aI296
aI297
aI298
aI299
aI300
aI301
aI302
aI303
aI304
aI305
aI306
aI307
aI308
aI309
aI310
aI313
aI331
aI332
aI333
aI334
aI356
aI360
aI361
aI362
aI363
aI364
aI365
aI366
aI367
aI368
aI369
aI370
aI371
aI373
aI374
aI376
aI377
aI378
aI379
aI380
aI381
aI382
aI383
aI384
aI385
aI386
aI387
aI388
aI389
aI390
aI443
aI444
aI445
aI446
aI447
aI448
aI449
aI450
aI451
aI452
aI453
aI454
aI455
aI456
aI457
aI458
aI459
aI460
aI461
aI462
aI463
aI464
aI465
aI466
aI467
aI468
aI469
aI470
aI471
aI472
aI473
aI474
aI475
aI476
aI477
aI478
aI479
aI480
aI481
aI482
aI483
aI484
aI485
aI486
aI487
aI566
aI567
aI569
aI570
aI573
aI606
aI618
aI622
aI623
aI624
aI625
aI626
aI645
aI646
aI648
aI675
aI703
aI713
aI715
aI726
aI727
aI728
aI729
aI730
aI732
aI754
aI756
aI757
aI758
aI783
aI784
aI785
aI790
aI791
aI792
aI793
aI794
aI795
asI34
(lp34
I732
aI756
aI757
aI792
aI793
aI794
asI35
(lp35
I756
aI757
aI783
aI827
aI829
aI840
asI36
(lp36
I360
aI361
aI362
aI363
aI364
aI365
aI366
aI385
aI391
aI392
aI443
aI444
aI445
aI446
aI447
aI448
aI449
aI450
aI553
aI554
aI555
aI566
aI618
aI623
aI624
aI626
aI644
aI646
aI647
aI667
aI668
aI675
aI677
aI703
aI756
aI757
aI758
asI37
(lp37
I360
aI361
aI362
aI363
aI364
aI365
aI366
aI367
aI383
aI384
aI385
aI386
aI387
aI388
aI389
aI390
aI443
aI444
aI445
aI446
aI447
aI448
aI449
aI450
aI451
aI462
aI463
aI464
aI465
aI466
aI467
aI566
aI574
aI575
aI576
aI577
aI578
aI581
aI583
aI584
aI585
aI587
aI589
aI618
aI623
aI624
aI626
aI627
aI629
aI631
aI633
aI635
aI637
aI644
aI646
aI647
aI675
aI677
aI679
aI703
aI749
aI756
aI757
aI758
asI38
(lp38
I23
aI24
aI25
aI26
aI27
aI28
aI29
aI30
aI31
aI32
aI34
aI35
aI40
aI41
aI42
aI43
aI44
aI45
aI46
aI47
aI48
aI49
aI57
aI98
aI99
aI103
aI107
aI112
aI114
aI139
aI148
aI149
aI150
aI151
aI152
aI211
aI212
aI213
aI220
aI223
aI225
aI227
aI248
aI249
aI253
aI284
aI289
aI290
aI291
aI292
aI293
aI294
aI295
aI296
aI298
aI299
aI300
aI301
aI302
aI304
aI305
aI306
aI307
aI308
aI309
aI310
aI312
aI313
aI360
aI361
aI362
aI363
aI364
aI365
aI366
aI390
aI443
aI444
aI445
aI446
aI447
aI448
aI449
aI450
aI451
aI566
aI618
aI622
aI624
aI625
aI626
aI644
aI646
aI647
aI677
aI703
aI756
aI757
aI758
asI39
(lp39
I393
aI396
aI488
aI489
aI490
aI491
aI492
aI493
aI494
aI502
aI503
aI689
aI690
aI693
aI695
aI697
aI701
aI749
aI756
aI757
aI758
aI766
aI769
aI770
asI40
(lp40
I23
aI24
aI25
aI26
aI27
aI28
aI29
aI30
aI31
aI32
aI33
aI34
aI35
aI40
aI41
aI42
aI43
aI44
aI45
aI46
aI47
aI48
aI49
aI50
aI51
aI57
aI98
aI99
aI103
aI107
aI112
aI114
aI139
aI148
aI149
aI150
aI151
aI152
aI211
aI212
aI213
aI220
aI223
aI225
aI227
aI248
aI249
aI253
aI284
aI289
aI290
aI291
aI292
aI293
aI294
aI295
aI296
aI298
aI299
aI300
aI301
aI302
aI304
aI305
aI306
aI307
aI308
aI309
aI310
aI312
aI313
aI360
aI361
aI362
aI363
aI364
aI365
aI366
aI390
aI443
aI444
aI445
aI446
aI447
aI448
aI449
aI450
aI451
aI566
aI618
aI622
aI624
aI625
aI626
aI644
aI646
aI647
aI677
aI703
aI756
aI757
aI758
asI41
(lp41
I23
aI24
aI25
aI27
aI28
aI98
aI99
aI103
aI104
aI105
aI106
aI136
aI148
aI149
aI153
aI248
aI249
aI250
aI251
aI252
aI253
aI255
aI256
aI257
aI258
aI261
aI282
aI283
aI289
aI291
aI292
aI293
aI294
aI296
aI298
aI299
aI300
aI301
aI302
aI304
aI305
aI306
aI307
aI308
aI309
aI310
aI313
aI360
aI361
aI362
aI363
aI364
aI365
aI366
aI367
aI368
aI369
aI370
aI371
aI373
aI374
aI376
aI377
aI378
aI379
aI380
aI381
aI382
aI383
aI384
aI385
aI386
aI387
aI388
aI389
aI390
aI566
aI662
aI716
aI717
aI756
aI757
aI758
asI42
(lp42
I360
aI361
aI362
aI363
aI364
aI365
aI366
aI367
aI383
aI384
aI385
aI386
aI387
aI388
aI389
aI390
aI443
aI444
aI445
aI446
aI447
aI448
aI449
aI450
aI451
aI462
aI463
aI464
aI465
aI466
aI467
aI522
aI523
aI524
aI525
aI526
aI527
aI535
aI536
aI538
aI566
aI574
aI575
aI576
aI577
aI578
aI581
aI583
aI584
aI585
aI587
aI588
aI589
aI618
aI623
aI624
aI626
aI627
aI629
aI631
aI633
aI635
aI637
aI644
aI646
aI647
aI672
aI675
aI677
aI703
aI749
aI756
aI757
aI758
aI778
aI780
aI781
aI805
aI806
aI808
aI810
asI43
(lp43
I566
aI660
aI664
aI667
aI669
aI673
aI676
aI756
aI757
asI44
(lp44
I391
aI392
aI505
aI506
aI507
aI508
aI509
aI522
aI523
aI524
aI525
aI526
aI536
aI553
aI554
aI555
aI756
aI757
aI758
aI773
aI774
aI775
aI778
aI780
aI781
aI783
aI805
aI825
aI827
aI828
aI829
aI840
asI45
(lp45
I391
aI392
aI393
aI394
aI553
aI554
aI555
aI564
aI756
asI46
(lp46
I391
aI392
aI393
aI394
aI395
aI396
aI469
aI470
aI471
aI472
aI473
aI485
aI553
aI554
aI555
aI564
aI565
aI567
aI569
aI570
aI573
aI732
aI738
aI739
aI740
aI754
aI756
aI757
aI758
aI787
aI790
aI792
aI793
aI794
aI795
asI47
(lp47
I391
aI392
aI397
aI399
aI407
aI408
aI409
aI410
aI411
aI412
aI413
aI414
aI415
aI416
aI417
aI418
aI419
aI420
aI421
aI422
aI423
aI424
aI425
aI438
aI440
aI553
aI554
aI555
aI562
aI563
aI564
aI565
aI751
aI752
aI753
aI756
asI48
(lp48
I23
aI24
aI25
aI26
aI27
aI28
aI29
aI30
aI36
aI37
aI38
aI39
aI40
aI41
aI42
aI43
aI52
aI53
aI54
aI55
aI56
aI58
aI96
aI97
aI98
aI99
aI103
aI107
aI112
aI114
aI115
aI116
aI117
aI118
aI120
aI121
aI122
aI123
aI124
aI126
aI127
aI128
aI129
aI130
aI131
aI132
aI133
aI134
aI139
aI140
aI144
aI146
aI147
aI148
aI149
aI150
aI151
aI152
aI153
aI154
aI155
aI156
aI157
aI159
aI167
aI168
aI169
aI170
aI171
aI172
aI173
aI174
aI175
aI176
aI177
aI178
aI179
aI180
aI181
aI182
aI183
aI184
aI185
aI186
aI191
aI192
aI194
aI211
aI212
aI213
aI214
aI215
aI216
aI217
aI218
aI219
aI220
aI221
aI223
aI224
aI225
aI227
aI241
aI242
aI243
aI244
aI245
aI246
aI247
aI248
aI249
aI253
aI284
aI287
aI289
aI290
aI291
aI292
aI293
aI294
aI295
aI296
aI297
aI298
aI299
aI300
aI301
aI302
aI303
aI304
aI305
aI306
aI307
aI308
aI309
aI310
aI312
aI313
aI331
aI333
aI334
aI356
aI360
aI361
aI362
aI363
aI364
aI365
aI366
aI367
aI368
aI369
aI370
aI371
aI373
aI374
aI376
aI377
aI378
aI379
aI380
aI381
aI382
aI383
aI384
aI385
aI386
aI387
aI388
aI389
aI390
aI391
aI392
aI393
aI396
aI443
aI444
aI445
aI446
aI447
aI448
aI449
aI450
aI451
aI452
aI453
aI454
aI455
aI456
aI457
aI458
aI459
aI460
aI461
aI462
aI463
aI464
aI465
aI466
aI467
aI468
aI469
aI470
aI471
aI472
aI473
aI474
aI475
aI476
aI477
aI478
aI479
aI480
aI481
aI482
aI483
aI484
aI485
aI486
aI487
aI488
aI489
aI490
aI491
aI492
aI493
aI494
aI495
aI496
aI497
aI498
aI499
aI500
aI501
aI502
aI503
aI504
aI553
aI554
aI555
aI556
aI557
aI558
aI559
aI560
aI561
aI562
aI563
aI564
aI565
aI566
aI567
aI568
aI569
aI570
aI571
aI572
aI573
aI590
aI591
aI592
aI593
aI594
aI595
aI596
aI597
aI598
aI599
aI600
aI601
aI602
aI603
aI606
aI615
aI618
aI622
aI623
aI624
aI625
aI626
aI645
aI646
aI648
aI675
aI680
aI681
aI682
aI683
aI684
aI685
aI686
aI687
aI688
aI689
aI690
aI702
aI706
aI707
aI708
aI709
aI710
aI711
aI712
aI713
aI715
aI732
aI754
aI756
aI757
aI758
aI759
aI766
aI768
aI770
aI771
aI783
aI784
aI785
aI787
aI790
aI791
aI792
aI793
aI794
aI795
aI814
aI815
aI852
aI857
aI858
aI859
aI860
aI861
aI863
asI49
(lp49
I443
aI444
aI445
aI446
aI447
aI448
aI449
aI450
aI466
aI469
aI470
aI471
aI472
aI473
aI486
aI567
aI569
aI570
aI573
aI610
aI611
aI618
aI623
aI624
aI626
aI644
aI648
aI649
aI650
aI651
aI658
aI703
aI732
aI754
aI756
aI757
aI758
aI790
aI792
aI793
aI794
aI795
aI830
aI835
aI837
aI839
asI50
(lp50
I726
aI731
aI756
aI757
aI862
asI51
(lp51
I505
aI506
aI507
aI508
aI509
aI510
aI518
aI519
aI520
aI521
aI747
aI748
aI749
aI750
aI756
aI757
aI758
aI783
aI786
aI825
aI826
aI827
aI828
aI829
aI840
aI841
aI843
aI844
asI52
(lp52
I756
aI757
aI773
aI776
aI805
asI53
(lp53
I23
aI24
aI25
aI26
aI27
aI28
aI29
aI30
aI36
aI37
aI38
aI39
aI40
aI41
aI42
aI43
aI52
aI53
aI54
aI55
aI56
aI58
aI98
aI99
aI100
aI101
aI102
aI103
aI107
aI112
aI113
aI114
aI135
aI138
aI139
aI148
aI149
aI150
aI151
aI152
aI153
aI190
aI211
aI212
aI213
aI220
aI223
aI225
aI227
aI241
aI242
aI243
aI244
aI245
aI246
aI247
aI248
aI249
aI250
aI251
aI252
aI253
aI255
aI256
aI257
aI258
aI261
aI282
aI283
aI284
aI289
aI290
aI291
aI292
aI293
aI294
aI295
aI296
aI297
aI298
aI299
aI300
aI301
aI302
aI304
aI305
aI306
aI307
aI308
aI309
aI310
aI312
aI313
aI360
aI361
aI362
aI363
aI364
aI365
aI366
aI367
aI368
aI369
aI370
aI372
aI373
aI374
aI376
aI377
aI378
aI379
aI380
aI381
aI382
aI383
aI384
aI385
aI386
aI387
aI388
aI389
aI390
aI391
aI392
aI443
aI444
aI445
aI446
aI447
aI448
aI449
aI450
aI451
aI452
aI453
aI454
aI455
aI456
aI457
aI458
aI459
aI460
aI461
aI462
aI463
aI464
aI465
aI466
aI467
aI468
aI553
aI554
aI555
aI556
aI557
aI558
aI559
aI560
aI561
aI562
aI563
aI564
aI565
aI566
aI618
aI622
aI624
aI625
aI626
aI644
aI646
aI647
aI666
aI675
aI678
aI703
aI707
aI708
aI709
aI710
aI720
aI721
aI756
aI757
aI758
aI863
asI54
(lp54
I732
aI756
aI757
aI788
asI55
(lp55
I443
aI444
aI445
aI446
aI447
aI448
aI449
aI450
aI451
aI462
aI463
aI464
aI465
aI466
aI467
aI469
aI470
aI471
aI472
aI473
aI474
aI483
aI484
aI485
aI486
aI487
aI567
aI569
aI570
aI573
aI606
aI615
aI618
aI623
aI624
aI626
aI627
aI629
aI630
aI631
aI633
aI635
aI636
aI637
aI640
aI643
aI645
aI646
aI648
aI703
aI704
aI732
aI741
aI742
aI744
aI749
aI751
aI752
aI753
aI754
aI756
aI757
aI758
aI790
aI792
aI793
aI794
aI795
aI862
asI56
(lp56
I505
aI506
aI507
aI508
aI509
aI510
aI518
aI519
aI520
aI521
aI522
aI523
aI524
aI525
aI526
aI527
aI535
aI536
aI538
aI749
aI751
aI752
aI753
aI756
aI757
aI758
aI775
aI778
aI780
aI781
aI783
aI786
aI805
aI806
aI808
aI809
aI810
aI813
aI825
aI827
aI828
aI829
aI840
aI841
aI843
asI57
(lp57
I23
aI24
aI25
aI26
aI27
aI28
aI29
aI30
aI36
aI37
aI38
aI39
aI40
aI41
aI42
aI43
aI52
aI53
aI54
aI55
aI56
aI58
aI98
aI99
aI103
aI107
aI112
aI114
aI115
aI116
aI117
aI118
aI120
aI121
aI122
aI124
aI126
aI128
aI129
aI130
aI133
aI140
aI147
aI148
aI149
aI150
aI151
aI152
aI153
aI154
aI155
aI156
aI157
aI159
aI181
aI182
aI223
aI225
aI227
aI248
aI249
aI253
aI289
aI290
aI291
aI292
aI293
aI294
aI295
aI296
aI297
aI298
aI299
aI300
aI301
aI302
aI303
aI304
aI305
aI306
aI307
aI308
aI309
aI310
aI312
aI313
aI317
aI318
aI320
aI321
aI327
aI328
aI329
aI330
aI331
aI332
aI333
aI334
aI335
aI336
aI338
aI339
aI340
aI341
aI349
aI350
aI352
aI353
aI354
aI355
aI359
aI360
aI361
aI362
aI363
aI364
aI365
aI366
aI390
aI393
aI396
aI488
aI489
aI490
aI491
aI492
aI493
aI566
aI590
aI591
aI592
aI593
aI677
aI689
aI690
aI702
aI756
aI757
aI758
aI766
aI768
aI770
aI771
aI852
aI858
aI859
aI860
aI861
asI58
(lp58
I391
aI392
aI393
aI394
aI395
aI396
aI469
aI470
aI471
aI472
aI473
aI485
aI553
aI554
aI555
aI564
aI565
aI567
aI569
aI570
aI573
aI732
aI735
aI736
aI737
aI754
aI756
aI757
aI758
aI783
aI787
aI790
aI792
aI793
aI794
aI795
asI59
(lp59
I751
aI752
aI753
asI60
(lp60
I393
aI396
aI469
aI470
aI471
aI472
aI473
aI485
aI567
aI569
aI570
aI573
aI732
aI738
aI740
aI754
aI756
aI757
aI758
aI790
aI792
aI793
aI794
aI795
asI61
(lp61
I391
aI392
aI397
aI399
aI435
aI553
aI554
aI555
aI562
aI563
aI564
aI565
aI756
asI62
(lp62
I23
aI24
aI25
aI26
aI27
aI28
aI29
aI30
aI36
aI37
aI38
aI39
aI40
aI41
aI42
aI43
aI52
aI53
aI54
aI55
aI56
aI58
aI93
aI98
aI99
aI103
aI107
aI112
aI114
aI115
aI116
aI117
aI118
aI121
aI123
aI139
aI144
aI148
aI149
aI150
aI151
aI152
aI153
aI175
aI176
aI179
aI180
aI181
aI182
aI183
aI211
aI212
aI213
aI214
aI220
aI223
aI225
aI227
aI248
aI249
aI253
aI284
aI289
aI290
aI291
aI292
aI293
aI294
aI295
aI296
aI297
aI298
aI299
aI300
aI301
aI302
aI303
aI304
aI305
aI306
aI307
aI308
aI309
aI310
aI312
aI313
aI317
aI318
aI320
aI321
aI327
aI328
aI329
aI330
aI331
aI332
aI333
aI334
aI335
aI336
aI338
aI339
aI340
aI341
aI349
aI350
aI352
aI353
aI354
aI355
aI359
aI360
aI361
aI362
aI363
aI364
aI365
aI366
aI390
aI443
aI444
aI445
aI446
aI447
aI448
aI449
aI450
aI463
aI469
aI470
aI471
aI472
aI473
aI474
aI566
aI567
aI569
aI570
aI573
aI618
aI622
aI624
aI625
aI626
aI645
aI646
aI648
aI677
aI703
aI713
aI715
aI732
aI754
aI756
aI757
aI758
aI790
aI791
aI792
aI793
aI794
aI795
asI63
(lp63
I1
aI2
aI3
aI20
aI21
aI22
aI24
aI25
aI26
aI27
aI28
aI73
aI93
aI96
aI98
aI99
aI103
aI107
aI112
aI114
aI115
aI116
aI117
aI118
aI119
aI149
aI150
aI152
aI223
aI225
aI227
aI248
aI264
aI265
aI266
aI267
aI268
aI269
aI277
aI278
aI284
aI289
aI290
aI291
aI292
aI293
aI294
aI295
aI296
aI298
aI299
aI300
aI301
aI302
aI303
aI305
aI306
aI307
aI308
aI309
aI310
aI311
aI313
aI314
aI722
aI723
aI756
aI781
aI782
aI783
aI805
aI826
aI827
aI840
aI862
asI64
(lp64
I23
aI24
aI25
aI26
aI27
aI28
aI29
aI30
aI36
aI37
aI38
aI39
aI40
aI41
aI42
aI43
aI52
aI53
aI54
aI55
aI56
aI58
aI98
aI99
aI103
aI107
aI112
aI114
aI139
aI148
aI149
aI150
aI151
aI152
aI211
aI212
aI213
aI220
aI223
aI225
aI227
aI248
aI249
aI253
aI284
aI289
aI290
aI291
aI292
aI293
aI294
aI295
aI296
aI298
aI299
aI300
aI301
aI302
aI304
aI305
aI306
aI307
aI308
aI309
aI310
aI312
aI313
aI360
aI361
aI362
aI363
aI364
aI365
aI366
aI390
aI443
aI444
aI445
aI446
aI447
aI448
aI449
aI450
aI451
aI566
aI618
aI622
aI624
aI625
aI626
aI644
aI646
aI647
aI677
aI703
aI756
aI757
aI758
asI65
(lp65
I23
aI24
aI25
aI26
aI27
aI28
aI98
aI99
aI103
aI107
aI108
aI109
aI110
aI111
aI112
aI114
aI137
aI139
aI148
aI149
aI150
aI152
aI211
aI212
aI213
aI220
aI223
aI225
aI227
aI248
aI249
aI250
aI251
aI252
aI253
aI255
aI256
aI257
aI258
aI261
aI284
aI289
aI290
aI291
aI292
aI293
aI294
aI295
aI296
aI298
aI299
aI300
aI301
aI302
aI304
aI305
aI306
aI307
aI308
aI309
aI310
aI313
aI360
aI361
aI362
aI363
aI364
aI365
aI366
aI367
aI368
aI369
aI370
aI371
aI373
aI375
aI376
aI377
aI378
aI379
aI380
aI381
aI382
aI383
aI384
aI385
aI386
aI387
aI388
aI389
aI390
aI443
aI444
aI445
aI446
aI447
aI448
aI449
aI450
aI451
aI452
aI453
aI454
aI455
aI456
aI457
aI458
aI459
aI460
aI461
aI462
aI463
aI464
aI465
aI466
aI467
aI468
aI566
aI618
aI622
aI623
aI624
aI625
aI626
aI644
aI646
aI647
aI675
aI679
aI703
aI724
aI725
aI756
aI757
aI758
asI66
(lp66
I360
aI361
aI362
aI363
aI364
aI365
aI366
aI387
aI443
aI444
aI445
aI446
aI447
aI448
aI449
aI450
aI566
aI618
aI623
aI624
aI626
aI644
aI646
aI647
aI669
aI670
aI675
aI677
aI703
aI756
aI757
aI758
asI67
(lp67
I23
aI24
aI25
aI26
aI27
aI28
aI96
aI98
aI99
aI103
aI107
aI112
aI114
aI115
aI116
aI117
aI118
aI121
aI123
aI139
aI142
aI144
aI148
aI149
aI150
aI152
aI160
aI162
aI163
aI164
aI165
aI166
aI175
aI176
aI179
aI180
aI181
aI182
aI183
aI211
aI212
aI213
aI214
aI215
aI216
aI217
aI218
aI219
aI220
aI223
aI225
aI227
aI248
aI249
aI253
aI284
aI289
aI290
aI291
aI292
aI293
aI294
aI295
aI296
aI297
aI298
aI299
aI300
aI301
aI302
aI303
aI304
aI305
aI306
aI307
aI308
aI309
aI310
aI313
aI331
aI333
aI334
aI356
aI360
aI361
aI362
aI363
aI364
aI365
aI366
aI367
aI368
aI369
aI370
aI371
aI373
aI374
aI376
aI377
aI378
aI379
aI380
aI381
aI382
aI383
aI384
aI385
aI386
aI387
aI388
aI389
aI390
aI443
aI444
aI445
aI446
aI447
aI448
aI449
aI450
aI451
aI452
aI453
aI454
aI455
aI456
aI457
aI458
aI459
aI460
aI461
aI462
aI463
aI464
aI465
aI466
aI467
aI468
aI469
aI470
aI471
aI472
aI473
aI474
aI475
aI476
aI477
aI478
aI479
aI480
aI481
aI482
aI483
aI484
aI485
aI486
aI487
aI539
aI540
aI541
aI542
aI543
aI544
aI545
aI546
aI547
aI548
aI549
aI550
aI551
aI552
aI566
aI569
aI570
aI573
aI618
aI622
aI623
aI624
aI625
aI626
aI644
aI646
aI647
aI648
aI663
aI675
aI703
aI714
aI715
aI732
aI754
aI756
aI757
aI758
aI783
aI784
aI785
aI790
aI791
aI792
aI793
aI794
aI795
aI796
aI799
aI801
aI802
aI803
aI804
aI846
asI68
(lp68
I443
aI444
aI445
aI446
aI447
aI448
aI449
aI450
aI462
aI469
aI470
aI471
aI472
aI473
aI567
aI569
aI570
aI573
aI604
aI605
aI606
aI618
aI623
aI624
aI626
aI645
aI646
aI648
aI680
aI703
aI732
aI754
aI756
aI757
aI758
aI790
aI792
aI793
aI794
aI795
aI814
aI815
asI69
(lp69
I360
aI361
aI362
aI363
aI364
aI365
aI366
aI367
aI383
aI384
aI385
aI386
aI387
aI388
aI389
aI390
aI443
aI444
aI445
aI446
aI447
aI448
aI449
aI450
aI451
aI462
aI463
aI464
aI465
aI466
aI467
aI566
aI574
aI575
aI576
aI578
aI579
aI580
aI581
aI583
aI584
aI585
aI587
aI589
aI618
aI623
aI624
aI626
aI627
aI629
aI631
aI633
aI635
aI637
aI644
aI646
aI647
aI671
aI675
aI677
aI703
aI749
aI756
aI757
aI758
asI70
(lp70
I391
aI392
aI397
aI398
aI399
aI400
aI401
aI402
aI403
aI404
aI405
aI406
aI435
aI439
aI441
aI553
aI554
aI555
aI562
aI563
aI564
aI565
aI751
aI752
aI753
aI756
asI71
(lp71
I569
aI570
aI573
aI680
aI681
aI682
aI688
aI749
aI754
aI814
aI815
aI819
aI820
aI821
asI72
(lp72
I469
aI470
aI471
aI472
aI473
aI474
aI483
aI484
aI485
aI486
aI487
aI567
aI569
aI570
aI573
aI732
aI741
aI742
aI744
aI749
aI754
aI756
aI757
aI758
aI790
aI792
aI793
aI794
aI795
aI862
asI73
(lp73
I469
aI470
aI471
aI472
aI473
aI474
aI483
aI484
aI485
aI486
aI487
aI567
aI569
aI570
aI573
aI732
aI741
aI742
aI744
aI745
aI747
aI748
aI749
aI750
aI754
aI756
aI757
aI758
aI790
aI791
aI792
aI793
aI794
aI795
aI862
asI74
(lp74
I393
aI396
aI590
aI591
aI592
aI602
aI689
aI690
aI692
aI701
aI756
aI757
aI758
aI759
aI765
aI767
aI770
aI771
aI852
aI858
aI860
aI861
asI75
(lp75
I391
aI392
aI397
aI399
aI435
aI469
aI470
aI471
aI472
aI473
aI474
aI483
aI484
aI485
aI486
aI487
aI553
aI554
aI555
aI562
aI563
aI564
aI565
aI567
aI569
aI570
aI573
aI732
aI741
aI742
aI743
aI744
aI746
aI749
aI751
aI752
aI753
aI754
aI756
aI757
aI758
aI787
aI790
aI792
aI793
aI794
aI795
aI862
asI76
(lp76
I23
aI24
aI25
aI26
aI27
aI28
aI29
aI30
aI31
aI32
aI34
aI35
aI40
aI41
aI42
aI43
aI44
aI45
aI46
aI47
aI48
aI49
aI50
aI51
aI57
aI98
aI99
aI103
aI107
aI112
aI114
aI139
aI148
aI149
aI150
aI151
aI152
aI211
aI212
aI213
aI220
aI223
aI225
aI227
aI248
aI249
aI253
aI284
aI289
aI290
aI291
aI292
aI293
aI294
aI295
aI296
aI298
aI299
aI300
aI301
aI302
aI304
aI305
aI306
aI307
aI308
aI309
aI310
aI312
aI313
aI360
aI361
aI362
aI363
aI364
aI365
aI366
aI390
aI443
aI444
aI445
aI446
aI447
aI448
aI449
aI450
aI451
aI566
aI618
aI622
aI624
aI625
aI626
aI644
aI646
aI647
aI677
aI703
aI756
aI757
aI758
asI77
(lp77
I23
aI24
aI25
aI26
aI27
aI28
aI96
aI98
aI99
aI100
aI101
aI102
aI103
aI107
aI112
aI114
aI115
aI116
aI117
aI118
aI121
aI123
aI135
aI139
aI142
aI144
aI148
aI149
aI150
aI152
aI160
aI161
aI162
aI163
aI164
aI165
aI166
aI175
aI176
aI179
aI180
aI181
aI182
aI183
aI211
aI212
aI213
aI214
aI215
aI216
aI217
aI218
aI219
aI220
aI223
aI225
aI227
aI248
aI249
aI250
aI251
aI252
aI253
aI284
aI289
aI290
aI291
aI292
aI293
aI294
aI295
aI296
aI297
aI298
aI299
aI300
aI301
aI302
aI303
aI304
aI305
aI306
aI307
aI308
aI309
aI310
aI313
aI331
aI333
aI334
aI356
aI360
aI361
aI362
aI363
aI364
aI365
aI366
aI367
aI368
aI369
aI370
aI372
aI373
aI374
aI376
aI377
aI378
aI379
aI380
aI381
aI382
aI383
aI384
aI385
aI386
aI387
aI388
aI389
aI390
aI443
aI444
aI445
aI446
aI447
aI448
aI449
aI450
aI451
aI452
aI453
aI454
aI455
aI456
aI457
aI458
aI459
aI460
aI461
aI462
aI463
aI464
aI465
aI466
aI467
aI468
aI469
aI470
aI471
aI472
aI473
aI474
aI475
aI476
aI477
aI478
aI479
aI480
aI481
aI482
aI483
aI484
aI485
aI486
aI487
aI539
aI540
aI541
aI542
aI543
aI544
aI545
aI546
aI547
aI548
aI549
aI550
aI551
aI552
aI566
aI569
aI570
aI573
aI618
aI622
aI624
aI625
aI626
aI644
aI646
aI647
aI648
aI663
aI675
aI678
aI703
aI714
aI715
aI720
aI721
aI732
aI754
aI756
aI757
aI758
aI783
aI784
aI785
aI790
aI791
aI792
aI793
aI794
aI795
aI796
aI799
aI801
aI803
aI804
aI846
asI78
(lp78
I625
aI626
aI756
asI79
(lp79
I443
aI444
aI445
aI446
aI447
aI448
aI449
aI450
aI463
aI469
aI470
aI471
aI472
aI473
aI486
aI567
aI569
aI570
aI573
aI607
aI608
aI618
aI623
aI624
aI626
aI645
aI646
aI648
aI703
aI732
aI754
aI756
aI757
aI758
aI790
aI792
aI793
aI794
aI795
asI80
(lp80
I23
aI24
aI25
aI26
aI27
aI28
aI99
aI103
aI107
aI112
aI114
aI148
aI149
aI150
aI152
aI211
aI212
aI213
aI223
aI225
aI227
aI253
aI284
aI289
aI290
aI291
aI292
aI293
aI294
aI295
aI296
aI298
aI299
aI300
aI301
aI302
aI304
aI305
aI306
aI307
aI313
aI360
aI361
aI362
aI363
aI364
aI365
aI366
aI389
aI443
aI444
aI445
aI446
aI447
aI448
aI449
aI450
aI566
aI622
aI624
aI625
aI626
aI644
aI646
aI647
aI677
aI703
aI756
aI757
aI758
asI81
(lp81
I393
aI396
aI488
aI489
aI490
aI491
aI492
aI493
aI590
aI591
aI592
aI600
aI615
aI621
aI624
aI625
aI626
aI644
aI646
aI647
aI689
aI690
aI702
aI703
aI704
aI705
aI756
aI757
aI758
aI759
aI766
aI770
aI771
aI852
aI858
aI860
aI861
asI82
(lp82
I23
aI24
aI25
aI26
aI27
aI28
aI96
aI98
aI99
aI103
aI107
aI112
aI114
aI115
aI116
aI117
aI118
aI121
aI123
aI139
aI142
aI144
aI148
aI149
aI150
aI152
aI160
aI163
aI164
aI165
aI166
aI175
aI176
aI179
aI180
aI181
aI182
aI183
aI211
aI212
aI213
aI214
aI215
aI216
aI217
aI218
aI219
aI220
aI223
aI225
aI227
aI248
aI249
aI253
aI284
aI289
aI290
aI291
aI292
aI293
aI294
aI295
aI296
aI297
aI298
aI299
aI300
aI301
aI302
aI303
aI304
aI305
aI306
aI307
aI308
aI309
aI310
aI313
aI331
aI333
aI334
aI356
aI360
aI361
aI362
aI363
aI364
aI365
aI366
aI367
aI368
aI369
aI370
aI371
aI373
aI374
aI376
aI377
aI378
aI379
aI380
aI381
aI382
aI383
aI384
aI385
aI386
aI387
aI388
aI389
aI390
aI443
aI444
aI445
aI446
aI447
aI448
aI449
aI450
aI451
aI452
aI453
aI454
aI455
aI456
aI457
aI458
aI459
aI460
aI461
aI462
aI463
aI464
aI465
aI466
aI467
aI468
aI469
aI470
aI471
aI472
aI473
aI474
aI475
aI476
aI477
aI478
aI479
aI480
aI481
aI482
aI483
aI484
aI485
aI486
aI487
aI539
aI540
aI541
aI542
aI543
aI544
aI545
aI546
aI547
aI548
aI549
aI550
aI551
aI552
aI566
aI569
aI570
aI573
aI618
aI622
aI623
aI624
aI625
aI626
aI644
aI646
aI647
aI648
aI663
aI675
aI703
aI714
aI715
aI732
aI754
aI756
aI757
aI758
aI783
aI784
aI785
aI790
aI791
aI792
aI793
aI794
aI795
aI796
aI799
aI801
aI802
aI803
aI804
aI846
asI83
(lp83
I23
aI24
aI25
aI26
aI27
aI28
aI29
aI30
aI31
aI32
aI34
aI35
aI36
aI37
aI38
aI39
aI40
aI41
aI42
aI43
aI44
aI45
aI46
aI47
aI48
aI49
aI50
aI51
aI52
aI53
aI54
aI55
aI56
aI57
aI58
aI98
aI99
aI103
aI107
aI112
aI114
aI115
aI116
aI117
aI118
aI120
aI121
aI122
aI124
aI126
aI128
aI129
aI130
aI133
aI140
aI147
aI148
aI149
aI150
aI151
aI152
aI153
aI154
aI155
aI156
aI157
aI159
aI181
aI182
aI183
aI223
aI225
aI227
aI248
aI249
aI253
aI286
aI289
aI290
aI291
aI292
aI293
aI294
aI295
aI296
aI297
aI298
aI299
aI300
aI301
aI302
aI303
aI304
aI305
aI306
aI307
aI308
aI309
aI310
aI312
aI313
aI331
aI332
aI333
aI334
aI356
aI360
aI361
aI362
aI363
aI364
aI365
aI366
aI367
aI368
aI369
aI370
aI371
aI373
aI374
aI376
aI377
aI378
aI379
aI380
aI381
aI382
aI383
aI384
aI385
aI386
aI387
aI388
aI389
aI390
aI393
aI396
aI488
aI489
aI490
aI491
aI492
aI493
aI494
aI495
aI496
aI497
aI498
aI499
aI500
aI501
aI502
aI503
aI504
aI566
aI590
aI591
aI592
aI593
aI594
aI595
aI596
aI597
aI598
aI599
aI600
aI601
aI602
aI675
aI689
aI690
aI702
aI756
aI757
aI758
aI759
aI766
aI768
aI769
aI770
aI771
aI852
aI858
aI859
aI860
aI861
asI84
(lp84
I469
aI470
aI471
aI472
aI473
aI474
aI483
aI484
aI485
aI486
aI487
aI567
aI569
aI570
aI573
aI732
aI741
aI742
aI744
aI749
aI754
aI756
aI757
aI758
aI790
aI792
aI793
aI794
aI795
aI862
asI85
(lp85
I360
aI361
aI362
aI363
aI364
aI365
aI366
aI367
aI383
aI384
aI385
aI386
aI387
aI388
aI389
aI390
aI391
aI392
aI397
aI399
aI435
aI442
aI443
aI444
aI445
aI446
aI447
aI448
aI449
aI450
aI451
aI462
aI463
aI464
aI465
aI466
aI467
aI553
aI554
aI555
aI562
aI563
aI564
aI565
aI566
aI574
aI575
aI576
aI577
aI578
aI581
aI582
aI583
aI584
aI585
aI587
aI589
aI618
aI623
aI624
aI626
aI627
aI629
aI631
aI633
aI635
aI637
aI644
aI646
aI647
aI666
aI675
aI677
aI703
aI749
aI756
aI757
aI758
asI86
(lp86
I505
aI506
aI507
aI508
aI509
aI522
aI523
aI524
aI525
aI526
aI538
aI756
aI757
aI758
aI776
aI777
aI778
aI780
aI781
aI783
aI805
aI825
aI827
aI828
aI829
aI840
asI87
(lp87
I360
aI361
aI362
aI363
aI364
aI365
aI366
aI388
aI522
aI523
aI524
aI525
aI526
aI566
aI673
aI674
aI677
aI756
aI757
aI758
aI778
aI780
aI781
aI805
asI88
(lp88
I23
aI24
aI25
aI26
aI27
aI28
aI67
aI87
aI98
aI99
aI103
aI107
aI112
aI114
aI115
aI116
aI117
aI118
aI121
aI123
aI139
aI144
aI148
aI149
aI150
aI152
aI172
aI173
aI174
aI175
aI176
aI177
aI178
aI179
aI180
aI181
aI182
aI183
aI184
aI191
aI211
aI212
aI213
aI214
aI220
aI221
aI223
aI224
aI225
aI227
aI241
aI242
aI243
aI244
aI245
aI246
aI247
aI248
aI249
aI253
aI284
aI287
aI289
aI290
aI291
aI292
aI293
aI294
aI295
aI296
aI297
aI298
aI299
aI300
aI301
aI302
aI303
aI304
aI305
aI306
aI307
aI308
aI309
aI310
aI313
aI331
aI332
aI333
aI334
aI356
aI360
aI361
aI362
aI363
aI364
aI365
aI366
aI367
aI368
aI369
aI370
aI371
aI373
aI374
aI376
aI377
aI378
aI379
aI380
aI381
aI382
aI383
aI384
aI385
aI386
aI387
aI388
aI389
aI390
aI391
aI392
aI443
aI444
aI445
aI446
aI447
aI448
aI449
aI450
aI451
aI452
aI453
aI454
aI455
aI456
aI457
aI458
aI459
aI460
aI461
aI462
aI463
aI464
aI465
aI466
aI467
aI468
aI469
aI470
aI471
aI472
aI473
aI474
aI475
aI476
aI477
aI478
aI479
aI480
aI481
aI482
aI483
aI484
aI485
aI486
aI487
aI553
aI554
aI555
aI556
aI557
aI558
aI559
aI560
aI561
aI562
aI563
aI564
aI565
aI566
aI567
aI569
aI570
aI573
aI606
aI618
aI622
aI623
aI624
aI625
aI626
aI645
aI646
aI648
aI675
aI703
aI707
aI708
aI709
aI710
aI713
aI715
aI732
aI754
aI756
aI757
aI758
aI787
aI790
aI791
aI792
aI793
aI794
aI795
aI863
asI89
(lp89
I756
aI757
aI824
aI840
asI90
(lp90
I393
aI396
aI488
aI489
aI490
aI491
aI492
aI493
aI494
aI502
aI503
aI590
aI591
aI592
aI593
aI600
aI601
aI602
aI689
aI690
aI693
aI695
aI696
aI697
aI700
aI702
aI749
aI751
aI752
aI753
aI756
aI757
aI758
aI759
aI766
aI769
aI770
aI852
aI853
aI854
aI858
aI860
aI861
asI91
(lp91
I391
aI392
aI395
aI469
aI470
aI471
aI472
aI473
aI485
aI553
aI554
aI555
aI564
aI567
aI569
aI570
aI573
aI732
aI736
aI737
aI754
aI756
aI757
aI758
aI787
aI790
aI792
aI793
aI794
aI795
asI92
(lp92
I23
aI24
aI25
aI26
aI27
aI28
aI73
aI93
aI98
aI99
aI103
aI107
aI112
aI114
aI115
aI116
aI117
aI118
aI120
aI123
aI139
aI144
aI148
aI149
aI150
aI152
aI175
aI176
aI179
aI180
aI181
aI182
aI183
aI211
aI212
aI213
aI214
aI220
aI223
aI225
aI227
aI248
aI249
aI253
aI284
aI287
aI289
aI290
aI291
aI292
aI293
aI294
aI295
aI296
aI297
aI298
aI299
aI300
aI301
aI302
aI303
aI304
aI305
aI306
aI307
aI308
aI309
aI310
aI313
aI331
aI332
aI333
aI334
aI356
aI360
aI361
aI362
aI363
aI364
aI365
aI366
aI367
aI368
aI369
aI370
aI371
aI373
aI374
aI376
aI377
aI378
aI379
aI380
aI381
aI382
aI383
aI384
aI385
aI386
aI387
aI388
aI389
aI390
aI443
aI444
aI445
aI446
aI447
aI448
aI449
aI450
aI451
aI452
aI453
aI454
aI455
aI456
aI457
aI458
aI459
aI460
aI461
aI462
aI463
aI464
aI465
aI466
aI467
aI468
aI469
aI470
aI471
aI472
aI473
aI474
aI475
aI476
aI477
aI478
aI479
aI480
aI481
aI482
aI483
aI484
aI485
aI486
aI487
aI566
aI569
aI570
aI573
aI606
aI618
aI622
aI623
aI624
aI625
aI626
aI645
aI646
aI648
aI675
aI703
aI713
aI715
aI732
aI754
aI756
aI757
aI758
aI790
aI791
aI792
aI793
aI794
aI795
asI93
(lp93
I393
aI396
aI488
aI489
aI490
aI491
aI492
aI502
aI504
aI689
aI690
aI701
aI756
aI757
aI758
aI766
aI769
aI770
asI94
(lp94
I23
aI24
aI25
aI26
aI27
aI28
aI29
aI37
aI40
aI41
aI42
aI43
aI52
aI55
aI56
aI98
aI99
aI100
aI101
aI102
aI103
aI104
aI105
aI106
aI107
aI112
aI113
aI114
aI115
aI116
aI117
aI135
aI136
aI138
aI139
aI141
aI142
aI148
aI149
aI150
aI152
aI153
aI160
aI161
aI162
aI163
aI164
aI166
aI190
aI211
aI212
aI213
aI220
aI223
aI225
aI227
aI241
aI242
aI243
aI244
aI245
aI246
aI247
aI248
aI249
aI250
aI251
aI252
aI253
aI255
aI256
aI257
aI258
aI261
aI276
aI277
aI278
aI281
aI282
aI283
aI284
aI289
aI290
aI291
aI292
aI293
aI294
aI295
aI296
aI297
aI298
aI299
aI300
aI301
aI302
aI304
aI305
aI306
aI307
aI308
aI309
aI310
aI313
aI360
aI361
aI362
aI363
aI364
aI365
aI366
aI367
aI368
aI369
aI370
aI372
aI373
aI374
aI376
aI377
aI378
aI379
aI380
aI381
aI382
aI383
aI384
aI385
aI386
aI387
aI388
aI389
aI390
aI391
aI392
aI397
aI399
aI435
aI442
aI443
aI444
aI445
aI446
aI447
aI448
aI449
aI450
aI451
aI452
aI453
aI454
aI455
aI456
aI457
aI458
aI459
aI460
aI461
aI462
aI463
aI464
aI465
aI466
aI467
aI468
aI522
aI523
aI524
aI525
aI526
aI527
aI528
aI529
aI530
aI531
aI532
aI533
aI534
aI535
aI536
aI537
aI538
aI539
aI540
aI541
aI542
aI543
aI544
aI545
aI546
aI547
aI548
aI549
aI550
aI551
aI552
aI553
aI554
aI555
aI556
aI557
aI558
aI559
aI560
aI561
aI562
aI563
aI564
aI565
aI566
aI574
aI575
aI576
aI579
aI580
aI581
aI582
aI583
aI584
aI585
aI586
aI587
aI588
aI589
aI618
aI622
aI624
aI625
aI626
aI627
aI629
aI631
aI633
aI635
aI637
aI644
aI646
aI647
aI662
aI663
aI666
aI671
aI672
aI675
aI677
aI678
aI703
aI707
aI708
aI709
aI710
aI716
aI717
aI720
aI721
aI749
aI756
aI757
aI758
aI778
aI779
aI781
aI782
aI799
aI801
aI803
aI804
aI805
aI806
aI808
aI810
aI846
aI847
aI849
aI863
asI95
(lp95
I590
aI591
aI592
aI593
aI600
aI601
aI602
aI747
aI748
aI749
aI750
aI756
aI757
aI758
aI852
aI853
aI854
aI855
aI858
aI859
aI860
aI861
asI96
(lp96
I391
aI392
aI393
aI394
aI395
aI396
aI553
aI554
aI555
aI564
aI756
asI97
(lp97
I756
aI782
aI805
asI98
(lp98
I1
aI2
aI3
aI20
aI21
aI22
aI24
aI25
aI26
aI27
aI28
aI98
aI99
aI103
aI107
aI112
aI114
aI115
aI116
aI117
aI118
aI120
aI121
aI122
aI124
aI126
aI128
aI129
aI130
aI133
aI149
aI150
aI152
aI155
aI156
aI181
aI182
aI223
aI225
aI227
aI289
aI290
aI291
aI292
aI293
aI294
aI295
aI296
aI297
aI298
aI299
aI300
aI301
aI302
aI303
aI305
aI306
aI307
aI310
aI311
aI313
aI314
aI317
aI318
aI319
aI331
aI332
aI333
aI334
aI336
aI337
aI689
aI756
aI770
aI771
aI852
aI860
asI99
(lp99
I732
aI756
aI757
aI792
aI794
aI795
asI100
(lp100
I360
aI361
aI362
aI363
aI364
aI365
aI366
aI383
aI539
aI540
aI541
aI542
aI566
aI646
aI647
aI664
aI665
aI677
aI756
aI757
aI758
aI799
aI802
aI803
aI846
asI101
(lp101
I23
aI24
aI25
aI26
aI27
aI28
aI93
aI98
aI99
aI103
aI107
aI112
aI114
aI115
aI116
aI117
aI118
aI121
aI123
aI139
aI144
aI148
aI149
aI150
aI152
aI175
aI176
aI179
aI180
aI181
aI182
aI183
aI211
aI212
aI213
aI214
aI220
aI223
aI225
aI227
aI248
aI249
aI253
aI284
aI289
aI290
aI291
aI292
aI293
aI294
aI295
aI296
aI297
aI298
aI299
aI300
aI301
aI302
aI303
aI304
aI305
aI306
aI307
aI308
aI309
aI310
aI313
aI317
aI318
aI320
aI321
aI327
aI328
aI329
aI330
aI331
aI332
aI333
aI334
aI335
aI336
aI338
aI339
aI340
aI341
aI349
aI350
aI352
aI353
aI354
aI355
aI358
aI360
aI361
aI362
aI363
aI364
aI365
aI366
aI390
aI443
aI444
aI445
aI446
aI447
aI448
aI449
aI450
aI463
aI469
aI470
aI471
aI472
aI473
aI474
aI566
aI567
aI569
aI570
aI573
aI618
aI622
aI624
aI625
aI626
aI645
aI646
aI648
aI677
aI703
aI713
aI715
aI732
aI754
aI756
aI757
aI758
aI790
aI791
aI792
aI793
aI794
aI795
asI102
(lp102
I1
aI2
aI3
aI20
aI21
aI22
aI24
aI25
aI26
aI27
aI28
aI98
aI99
aI103
aI107
aI112
aI114
aI115
aI116
aI117
aI118
aI120
aI121
aI122
aI124
aI126
aI128
aI129
aI130
aI133
aI149
aI150
aI152
aI155
aI156
aI181
aI182
aI223
aI225
aI227
aI289
aI290
aI291
aI292
aI293
aI294
aI295
aI296
aI297
aI298
aI299
aI300
aI301
aI302
aI303
aI305
aI306
aI307
aI310
aI311
aI313
aI314
aI318
aI322
aI324
aI325
aI326
aI331
aI332
aI333
aI334
aI335
aI337
aI342
aI343
aI344
aI345
aI346
aI348
aI689
aI756
aI770
aI771
aI852
aI860
asI103
(lp103
I567
aI568
aI569
aI570
aI571
aI572
aI573
asI104
(lp104
I391
aI392
aI397
aI399
aI435
aI442
aI443
aI444
aI445
aI446
aI447
aI448
aI449
aI450
aI451
aI462
aI463
aI464
aI465
aI466
aI467
aI469
aI470
aI471
aI472
aI473
aI474
aI483
aI484
aI485
aI486
aI487
aI553
aI554
aI555
aI562
aI563
aI564
aI565
aI567
aI569
aI570
aI573
aI606
aI612
aI618
aI623
aI624
aI626
aI627
aI628
aI629
aI630
aI631
aI633
aI635
aI637
aI639
aI640
aI645
aI646
aI648
aI703
aI732
aI741
aI742
aI744
aI749
aI751
aI752
aI753
aI754
aI756
aI757
aI758
aI790
aI792
aI793
aI794
aI795
aI862
asI105
(lp105
I23
aI24
aI25
aI26
aI27
aI28
aI93
aI98
aI99
aI103
aI107
aI112
aI114
aI115
aI116
aI117
aI118
aI121
aI123
aI139
aI144
aI148
aI149
aI150
aI152
aI175
aI176
aI179
aI180
aI181
aI182
aI183
aI211
aI212
aI213
aI214
aI220
aI223
aI225
aI227
aI248
aI249
aI253
aI284
aI289
aI290
aI291
aI292
aI293
aI294
aI295
aI296
aI297
aI298
aI299
aI300
aI301
aI302
aI303
aI304
aI305
aI306
aI307
aI308
aI309
aI310
aI313
aI317
aI318
aI320
aI321
aI327
aI328
aI329
aI330
aI331
aI332
aI333
aI334
aI335
aI336
aI338
aI339
aI340
aI341
aI349
aI350
aI352
aI353
aI354
aI355
aI356
aI358
aI360
aI361
aI362
aI363
aI364
aI365
aI366
aI390
aI443
aI444
aI445
aI446
aI447
aI448
aI449
aI450
aI463
aI469
aI470
aI471
aI472
aI473
aI474
aI486
aI566
aI567
aI569
aI570
aI573
aI618
aI622
aI624
aI625
aI626
aI645
aI646
aI648
aI677
aI703
aI713
aI715
aI732
aI754
aI756
aI757
aI758
aI790
aI791
aI792
aI793
aI794
aI795
asI106
(lp106
I93
aI149
aI150
aI152
aI227
aI235
aI248
aI255
aI258
aI289
aI302
aI308
aI309
aI313
aI624
aI625
aI626
aI732
aI756
aI792
aI793
aI795
asI107
(lp107
I391
aI392
aI394
aI396
aI553
aI554
aI555
aI564
aI756
asI108
(lp108
I23
aI24
aI25
aI26
aI27
aI28
aI67
aI73
aI87
aI93
aI98
aI99
aI103
aI107
aI112
aI114
aI115
aI116
aI117
aI118
aI120
aI121
aI122
aI123
aI124
aI125
aI139
aI144
aI145
aI148
aI149
aI150
aI152
aI175
aI176
aI179
aI180
aI181
aI182
aI183
aI211
aI212
aI213
aI214
aI215
aI220
aI223
aI225
aI227
aI237
aI238
aI239
aI240
aI248
aI249
aI253
aI284
aI289
aI290
aI291
aI292
aI293
aI294
aI295
aI296
aI297
aI298
aI299
aI300
aI301
aI302
aI303
aI304
aI305
aI306
aI307
aI308
aI309
aI310
aI313
aI331
aI333
aI334
aI356
aI360
aI361
aI362
aI363
aI364
aI365
aI366
aI367
aI368
aI369
aI370
aI371
aI373
aI374
aI376
aI377
aI378
aI379
aI380
aI381
aI382
aI383
aI384
aI385
aI386
aI387
aI388
aI389
aI390
aI443
aI444
aI445
aI446
aI447
aI448
aI449
aI450
aI451
aI452
aI453
aI454
aI455
aI456
aI457
aI458
aI459
aI460
aI461
aI462
aI463
aI464
aI465
aI466
aI467
aI468
aI469
aI470
aI471
aI472
aI473
aI474
aI475
aI476
aI477
aI478
aI479
aI480
aI481
aI482
aI483
aI484
aI485
aI486
aI487
aI566
aI567
aI569
aI570
aI573
aI606
aI609
aI618
aI622
aI623
aI624
aI625
aI626
aI645
aI648
aI649
aI650
aI651
aI652
aI653
aI654
aI655
aI656
aI657
aI658
aI659
aI675
aI703
aI713
aI715
aI718
aI719
aI732
aI754
aI756
aI757
aI758
aI790
aI791
aI792
aI793
aI794
aI795
aI830
aI835
aI837
aI838
aI839
asI109
(lp109
I469
aI470
aI471
aI472
aI473
aI486
aI539
aI540
aI541
aI542
aI550
aI567
aI569
aI570
aI573
aI646
aI648
aI732
aI754
aI756
aI757
aI758
aI790
aI792
aI793
aI794
aI795
aI797
aI798
aI799
aI802
aI803
aI846
asI110
(lp110
I756
aI757
aI783
aI786
asI111
(lp111
I391
aI392
aI397
aI399
aI435
aI442
aI505
aI506
aI507
aI508
aI509
aI510
aI518
aI519
aI520
aI521
aI522
aI523
aI524
aI525
aI526
aI527
aI535
aI536
aI538
aI553
aI554
aI555
aI562
aI563
aI564
aI565
aI749
aI751
aI752
aI753
aI756
aI757
aI758
aI772
aI775
aI778
aI780
aI781
aI783
aI786
aI805
aI806
aI807
aI808
aI809
aI810
aI812
aI813
aI825
aI827
aI828
aI829
aI840
aI841
aI843
asI112
(lp112
I443
aI444
aI445
aI446
aI447
aI448
aI449
aI450
aI451
aI462
aI463
aI464
aI465
aI466
aI467
aI469
aI470
aI471
aI472
aI473
aI474
aI483
aI484
aI485
aI486
aI487
aI567
aI569
aI570
aI573
aI603
aI606
aI618
aI623
aI624
aI626
aI627
aI629
aI630
aI631
aI633
aI634
aI635
aI637
aI640
aI642
aI645
aI646
aI648
aI680
aI681
aI682
aI688
aI703
aI732
aI741
aI742
aI744
aI749
aI751
aI752
aI753
aI754
aI756
aI757
aI758
aI790
aI792
aI793
aI794
aI795
aI814
aI815
aI819
aI820
aI821
aI862
asI113
(lp113
I23
aI24
aI25
aI26
aI27
aI28
aI29
aI30
aI36
aI37
aI38
aI39
aI40
aI41
aI42
aI43
aI52
aI53
aI54
aI55
aI56
aI58
aI98
aI99
aI103
aI107
aI112
aI114
aI139
aI148
aI149
aI150
aI151
aI152
aI211
aI212
aI213
aI220
aI223
aI225
aI227
aI248
aI249
aI253
aI284
aI289
aI290
aI291
aI292
aI293
aI294
aI295
aI296
aI298
aI299
aI300
aI301
aI302
aI304
aI305
aI306
aI307
aI308
aI309
aI310
aI312
aI313
aI360
aI361
aI362
aI363
aI364
aI365
aI366
aI390
aI443
aI444
aI445
aI446
aI447
aI448
aI449
aI450
aI451
aI566
aI618
aI622
aI624
aI625
aI626
aI644
aI646
aI647
aI677
aI703
aI756
aI757
aI758
asI114
(lp114
I360
aI361
aI362
aI363
aI364
aI365
aI366
aI367
aI383
aI384
aI385
aI386
aI387
aI388
aI389
aI390
aI443
aI444
aI445
aI446
aI447
aI448
aI449
aI450
aI451
aI462
aI463
aI464
aI465
aI466
aI467
aI566
aI574
aI575
aI576
aI579
aI580
aI581
aI583
aI584
aI585
aI587
aI589
aI618
aI623
aI624
aI626
aI627
aI629
aI631
aI633
aI635
aI637
aI644
aI646
aI647
aI662
aI671
aI675
aI677
aI703
aI749
aI756
aI757
aI758
asI115
(lp115
I469
aI470
aI471
aI472
aI473
aI474
aI483
aI484
aI485
aI486
aI487
aI539
aI540
aI541
aI542
aI543
aI550
aI551
aI567
aI569
aI570
aI573
aI646
aI648
aI732
aI741
aI742
aI744
aI747
aI748
aI749
aI750
aI751
aI752
aI753
aI754
aI756
aI757
aI758
aI790
aI792
aI793
aI794
aI795
aI796
aI799
aI801
aI802
aI803
aI846
aI847
aI848
aI849
aI850
aI851
aI862
asI116
(lp116
I443
aI444
aI445
aI446
aI447
aI448
aI449
aI450
aI465
aI469
aI470
aI471
aI472
aI473
aI567
aI569
aI570
aI573
aI606
aI616
aI617
aI618
aI623
aI624
aI626
aI644
aI645
aI646
aI647
aI648
aI703
aI704
aI732
aI754
aI756
aI757
aI758
aI790
aI792
aI793
aI794
aI795
asI117
(lp117
I0
aI23
aI24
aI25
aI26
aI27
aI28
aI98
aI99
aI103
aI107
aI112
aI113
aI114
aI138
aI139
aI148
aI149
aI150
aI152
aI188
aI189
aI190
aI191
aI194
aI195
aI196
aI197
aI198
aI199
aI200
aI201
aI202
aI203
aI204
aI205
aI206
aI207
aI208
aI209
aI210
aI211
aI212
aI213
aI214
aI215
aI216
aI217
aI218
aI220
aI221
aI222
aI223
aI224
aI225
aI226
aI227
aI241
aI242
aI243
aI244
aI245
aI246
aI247
aI248
aI249
aI253
aI255
aI256
aI257
aI258
aI261
aI282
aI283
aI284
aI285
aI289
aI290
aI291
aI292
aI293
aI294
aI295
aI296
aI297
aI298
aI299
aI300
aI301
aI302
aI304
aI305
aI306
aI307
aI308
aI309
aI310
aI313
aI360
aI361
aI362
aI363
aI364
aI365
aI366
aI367
aI368
aI369
aI370
aI371
aI373
aI374
aI376
aI377
aI378
aI379
aI380
aI381
aI382
aI383
aI384
aI385
aI386
aI387
aI388
aI389
aI390
aI392
aI443
aI444
aI445
aI446
aI447
aI448
aI449
aI450
aI451
aI452
aI453
aI454
aI455
aI456
aI457
aI458
aI459
aI460
aI461
aI462
aI463
aI464
aI465
aI466
aI467
aI468
aI553
aI554
aI555
aI556
aI557
aI558
aI559
aI560
aI561
aI562
aI563
aI564
aI565
aI566
aI618
aI622
aI623
aI624
aI625
aI626
aI644
aI646
aI647
aI675
aI703
aI707
aI708
aI709
aI710
aI756
aI757
aI758
aI863
asI118
(lp118
I756
asI119
(lp119
I505
aI506
aI507
aI508
aI509
aI510
aI518
aI519
aI520
aI521
aI749
aI756
aI757
aI758
aI783
aI786
aI825
aI827
aI828
aI829
aI840
aI841
aI843
asI120
(lp120
I522
aI523
aI524
aI525
aI526
aI527
aI535
aI536
aI538
aI749
aI756
aI757
aI758
aI778
aI780
aI781
aI805
aI806
aI808
aI810
asI121
(lp121
I391
aI392
aI397
aI399
aI435
aI442
aI443
aI444
aI445
aI446
aI447
aI448
aI449
aI450
aI451
aI462
aI463
aI464
aI465
aI466
aI467
aI469
aI470
aI471
aI472
aI473
aI474
aI483
aI484
aI485
aI486
aI487
aI553
aI554
aI555
aI562
aI563
aI564
aI565
aI567
aI569
aI570
aI573
aI603
aI606
aI609
aI612
aI615
aI618
aI623
aI624
aI626
aI627
aI628
aI629
aI630
aI631
aI632
aI633
aI634
aI635
aI636
aI637
aI639
aI640
aI641
aI642
aI643
aI645
aI646
aI648
aI649
aI650
aI651
aI652
aI658
aI659
aI680
aI681
aI682
aI688
aI703
aI704
aI732
aI741
aI742
aI744
aI749
aI751
aI752
aI753
aI754
aI756
aI757
aI758
aI790
aI792
aI793
aI794
aI795
aI814
aI815
aI819
aI820
aI821
aI830
aI831
aI832
aI833
aI834
aI835
aI837
aI839
aI862
asI122
(lp122
I391
aI392
aI393
aI394
aI395
aI396
aI469
aI470
aI471
aI472
aI473
aI485
aI553
aI554
aI555
aI564
aI565
aI567
aI569
aI570
aI573
aI732
aI735
aI736
aI737
aI754
aI756
aI757
aI758
aI787
aI790
aI792
aI793
aI794
aI795
asI123
(lp123
I1
aI2
aI3
aI20
aI21
aI22
aI24
aI25
aI26
aI27
aI28
aI98
aI99
aI103
aI107
aI112
aI114
aI149
aI150
aI152
aI212
aI213
aI223
aI225
aI227
aI284
aI289
aI290
aI291
aI292
aI293
aI294
aI295
aI296
aI298
aI299
aI300
aI301
aI302
aI305
aI306
aI307
aI310
aI311
aI313
aI314
aI624
aI625
aI626
aI756
asI124
(lp124
I2
aI3
aI20
aI21
aI24
aI25
aI26
aI27
aI28
aI98
aI99
aI103
aI107
aI108
aI109
aI149
aI255
aI256
aI257
aI258
aI260
aI261
aI284
aI289
aI291
aI292
aI293
aI294
aI296
aI298
aI299
aI300
aI301
aI302
aI305
aI306
aI307
aI310
aI311
aI313
aI724
aI725
aI756
asI125
(lp125
I539
aI540
aI541
aI542
aI551
aI552
aI646
aI647
aI756
aI757
aI758
aI799
aI802
aI803
aI846
asI126
(lp126
I783
aI828
aI829
aI840
asI127
(lp127
I23
aI24
aI25
aI27
aI28
aI98
aI99
aI103
aI104
aI105
aI106
aI136
aI148
aI149
aI153
aI248
aI249
aI250
aI251
aI252
aI253
aI255
aI256
aI257
aI258
aI261
aI282
aI283
aI289
aI290
aI291
aI292
aI293
aI294
aI296
aI298
aI299
aI300
aI301
aI302
aI304
aI305
aI306
aI307
aI308
aI309
aI310
aI313
aI360
aI361
aI362
aI363
aI364
aI365
aI366
aI367
aI368
aI369
aI370
aI371
aI373
aI374
aI376
aI377
aI378
aI379
aI380
aI381
aI382
aI383
aI384
aI385
aI386
aI387
aI388
aI389
aI390
aI566
aI671
aI716
aI717
aI756
aI757
aI758
asI128
(lp128
I756
aI852
aI861
asI129
(lp129
I23
aI24
aI25
aI26
aI27
aI28
aI29
aI30
aI36
aI37
aI38
aI39
aI40
aI41
aI42
aI43
aI52
aI53
aI54
aI55
aI56
aI58
aI98
aI99
aI103
aI107
aI112
aI114
aI115
aI116
aI117
aI118
aI120
aI121
aI122
aI124
aI126
aI128
aI129
aI130
aI133
aI140
aI147
aI148
aI149
aI150
aI151
aI152
aI153
aI154
aI155
aI156
aI157
aI159
aI181
aI182
aI223
aI225
aI227
aI248
aI249
aI253
aI289
aI290
aI291
aI292
aI293
aI294
aI295
aI296
aI297
aI298
aI299
aI300
aI301
aI302
aI303
aI304
aI305
aI306
aI307
aI308
aI309
aI310
aI312
aI313
aI315
aI316
aI318
aI320
aI327
aI328
aI331
aI333
aI335
aI336
aI338
aI341
aI349
aI350
aI351
aI352
aI354
aI357
aI360
aI361
aI362
aI363
aI364
aI365
aI366
aI390
aI393
aI396
aI488
aI489
aI490
aI491
aI492
aI493
aI566
aI590
aI591
aI592
aI593
aI677
aI689
aI690
aI702
aI756
aI757
aI758
aI766
aI768
aI770
aI771
aI852
aI858
aI859
aI860
aI861
asI130
(lp130
I393
aI396
aI469
aI470
aI471
aI472
aI473
aI485
aI567
aI569
aI570
aI573
aI732
aI734
aI754
aI756
aI757
aI758
aI790
aI792
aI793
aI794
aI795
asI131
(lp131
I747
aI748
aI749
aI750
asI132
(lp132
I391
aI392
aI395
aI469
aI470
aI471
aI472
aI473
aI485
aI553
aI554
aI555
aI564
aI567
aI569
aI570
aI573
aI732
aI739
aI740
aI754
aI756
aI757
aI758
aI787
aI790
aI792
aI793
aI794
aI795
asI133
(lp133
I443
aI444
aI445
aI446
aI447
aI448
aI449
aI450
aI451
aI462
aI463
aI464
aI465
aI466
aI467
aI469
aI470
aI471
aI472
aI473
aI474
aI483
aI484
aI485
aI486
aI487
aI567
aI569
aI570
aI573
aI606
aI618
aI622
aI623
aI624
aI626
aI627
aI629
aI630
aI631
aI633
aI635
aI637
aI638
aI640
aI645
aI646
aI648
aI703
aI732
aI741
aI742
aI744
aI747
aI748
aI749
aI750
aI751
aI752
aI753
aI754
aI756
aI757
aI758
aI790
aI792
aI793
aI794
aI795
aI862
asI134
(lp134
I23
aI24
aI25
aI26
aI27
aI28
aI98
aI99
aI103
aI107
aI112
aI114
aI115
aI116
aI117
aI118
aI120
aI121
aI122
aI124
aI126
aI128
aI129
aI130
aI133
aI140
aI147
aI148
aI149
aI150
aI152
aI154
aI155
aI156
aI157
aI159
aI181
aI182
aI223
aI225
aI227
aI248
aI249
aI253
aI289
aI290
aI291
aI292
aI293
aI294
aI295
aI296
aI297
aI298
aI299
aI300
aI301
aI302
aI303
aI304
aI305
aI306
aI307
aI308
aI309
aI310
aI313
aI316
aI317
aI318
aI320
aI321
aI327
aI328
aI329
aI330
aI331
aI332
aI333
aI334
aI335
aI336
aI338
aI339
aI340
aI341
aI349
aI350
aI351
aI352
aI353
aI354
aI355
aI358
aI360
aI361
aI362
aI363
aI364
aI365
aI366
aI390
aI393
aI396
aI488
aI489
aI490
aI491
aI492
aI493
aI566
aI590
aI591
aI592
aI593
aI677
aI689
aI690
aI702
aI756
aI757
aI758
aI766
aI768
aI770
aI771
aI852
aI858
aI859
aI860
aI861
asI135
(lp135
I391
aI392
aI396
aI397
aI399
aI435
aI442
aI488
aI489
aI490
aI491
aI492
aI493
aI494
aI502
aI503
aI553
aI554
aI555
aI562
aI563
aI564
aI565
aI590
aI591
aI592
aI593
aI600
aI601
aI602
aI689
aI690
aI693
aI694
aI695
aI696
aI697
aI699
aI700
aI702
aI749
aI751
aI752
aI753
aI756
aI757
aI758
aI759
aI762
aI766
aI769
aI770
aI852
aI853
aI854
aI858
aI860
aI861
asI136
(lp136
I391
aI392
aI397
aI398
aI399
aI400
aI401
aI402
aI403
aI404
aI405
aI406
aI435
aI553
aI554
aI555
aI562
aI563
aI564
aI565
aI590
aI591
aI592
aI593
aI600
aI601
aI602
aI749
aI751
aI752
aI753
aI756
aI757
aI758
aI852
aI853
aI854
aI856
aI857
aI858
aI860
aI861
asI137
(lp137
I862
asI138
(lp138
I23
aI24
aI25
aI26
aI27
aI28
aI96
aI98
aI99
aI103
aI107
aI112
aI114
aI115
aI116
aI117
aI118
aI121
aI123
aI139
aI144
aI148
aI149
aI150
aI152
aI172
aI173
aI175
aI176
aI177
aI178
aI179
aI180
aI181
aI182
aI183
aI188
aI189
aI190
aI195
aI196
aI197
aI198
aI199
aI200
aI201
aI202
aI203
aI204
aI205
aI206
aI208
aI209
aI211
aI212
aI213
aI214
aI220
aI221
aI223
aI224
aI225
aI227
aI241
aI242
aI243
aI244
aI245
aI246
aI247
aI248
aI249
aI253
aI255
aI256
aI257
aI258
aI261
aI282
aI283
aI284
aI289
aI290
aI291
aI292
aI293
aI294
aI295
aI296
aI297
aI298
aI299
aI300
aI301
aI302
aI303
aI304
aI305
aI306
aI307
aI308
aI309
aI310
aI313
aI331
aI332
aI333
aI334
aI356
aI360
aI361
aI362
aI363
aI364
aI365
aI366
aI367
aI368
aI369
aI370
aI371
aI373
aI374
aI376
aI377
aI378
aI379
aI380
aI381
aI382
aI383
aI384
aI385
aI386
aI387
aI388
aI389
aI390
aI392
aI443
aI444
aI445
aI446
aI447
aI448
aI449
aI450
aI451
aI452
aI453
aI454
aI455
aI456
aI457
aI458
aI459
aI460
aI461
aI462
aI463
aI464
aI465
aI466
aI467
aI468
aI469
aI470
aI471
aI472
aI473
aI474
aI475
aI476
aI477
aI478
aI479
aI480
aI481
aI482
aI483
aI484
aI485
aI486
aI487
aI553
aI554
aI555
aI556
aI557
aI558
aI559
aI560
aI561
aI562
aI563
aI564
aI565
aI566
aI569
aI570
aI573
aI606
aI618
aI622
aI623
aI624
aI625
aI626
aI645
aI646
aI648
aI675
aI703
aI707
aI708
aI709
aI710
aI713
aI715
aI732
aI754
aI756
aI757
aI758
aI783
aI784
aI785
aI787
aI790
aI791
aI792
aI793
aI794
aI795
aI863
asI139
(lp139
I505
aI506
aI507
aI508
aI509
aI510
aI518
aI519
aI520
aI521
aI522
aI523
aI524
aI525
aI526
aI527
aI535
aI536
aI538
aI747
aI748
aI749
aI750
aI751
aI752
aI753
aI756
aI757
aI758
aI775
aI778
aI779
aI780
aI781
aI783
aI786
aI805
aI806
aI808
aI809
aI810
aI811
aI813
aI825
aI827
aI828
aI829
aI840
aI841
aI843
asI140
(lp140
I391
aI392
aI394
aI396
aI488
aI489
aI490
aI491
aI492
aI503
aI553
aI554
aI555
aI564
aI590
aI591
aI592
aI689
aI690
aI702
aI756
aI757
aI758
aI759
aI763
aI764
aI766
aI769
aI770
aI852
aI858
aI860
aI861
asI141
(lp141
I391
aI392
aI469
aI470
aI471
aI472
aI473
aI485
aI553
aI554
aI555
aI567
aI569
aI570
aI573
aI732
aI754
aI756
aI757
aI758
aI788
aI789
aI790
aI792
aI793
aI794
aI795
asI142
(lp142
I360
aI361
aI362
aI363
aI364
aI365
aI366
aI367
aI383
aI384
aI385
aI386
aI387
aI388
aI389
aI390
aI443
aI444
aI445
aI446
aI447
aI448
aI449
aI450
aI451
aI462
aI463
aI464
aI465
aI466
aI467
aI566
aI574
aI575
aI576
aI577
aI579
aI580
aI581
aI583
aI584
aI585
aI587
aI589
aI618
aI623
aI624
aI626
aI627
aI629
aI631
aI633
aI635
aI637
aI644
aI646
aI647
aI662
aI675
aI677
aI703
aI749
aI756
aI757
aI758
asI143
(lp143
I756
aI757
aI797
aI846
asI144
(lp144
I393
aI396
aI469
aI470
aI471
aI472
aI473
aI485
aI567
aI569
aI570
aI573
aI732
aI735
aI737
aI754
aI756
aI757
aI758
aI790
aI792
aI793
aI794
aI795
asI145
(lp145
I23
aI24
aI25
aI26
aI27
aI28
aI98
aI99
aI103
aI107
aI112
aI114
aI115
aI116
aI117
aI118
aI120
aI121
aI122
aI124
aI126
aI128
aI129
aI130
aI133
aI140
aI147
aI148
aI149
aI150
aI152
aI154
aI155
aI156
aI157
aI159
aI181
aI182
aI183
aI223
aI225
aI227
aI248
aI249
aI253
aI286
aI289
aI290
aI291
aI292
aI293
aI294
aI295
aI296
aI297
aI298
aI299
aI300
aI301
aI302
aI303
aI304
aI305
aI306
aI307
aI308
aI309
aI310
aI313
aI316
aI317
aI318
aI320
aI321
aI322
aI323
aI324
aI325
aI326
aI329
aI330
aI331
aI332
aI333
aI334
aI335
aI337
aI338
aI339
aI340
aI341
aI342
aI343
aI344
aI345
aI346
aI347
aI348
aI351
aI352
aI353
aI354
aI355
aI358
aI360
aI361
aI362
aI363
aI364
aI365
aI366
aI390
aI393
aI396
aI488
aI489
aI490
aI491
aI492
aI493
aI566
aI590
aI591
aI592
aI593
aI602
aI677
aI689
aI690
aI702
aI756
aI757
aI758
aI766
aI768
aI770
aI771
aI852
aI858
aI859
aI860
aI861
asI146
(lp146
I391
aI392
aI393
aI394
aI395
aI396
aI469
aI470
aI471
aI472
aI473
aI485
aI553
aI554
aI555
aI556
aI557
aI558
aI559
aI560
aI561
aI562
aI563
aI564
aI565
aI567
aI569
aI570
aI573
aI732
aI733
aI734
aI735
aI736
aI737
aI754
aI756
aI757
aI758
aI783
aI787
aI790
aI792
aI793
aI794
aI795
asI147
(lp147
I391
aI392
aI397
aI398
aI399
aI435
aI437
aI553
aI554
aI555
aI562
aI563
aI564
aI565
aI756
asI148
(lp148
I469
aI470
aI471
aI472
aI473
aI483
aI484
aI567
aI569
aI570
aI573
aI606
aI620
aI624
aI625
aI626
aI644
aI645
aI646
aI648
aI732
aI754
aI756
aI757
aI758
aI790
aI792
aI793
aI794
aI795
asI149
(lp149
I360
aI361
aI362
aI363
aI364
aI365
aI366
aI367
aI383
aI384
aI385
aI386
aI387
aI388
aI389
aI390
aI443
aI444
aI445
aI446
aI447
aI448
aI449
aI450
aI451
aI462
aI463
aI464
aI465
aI466
aI467
aI539
aI540
aI541
aI542
aI543
aI550
aI551
aI566
aI574
aI575
aI576
aI577
aI578
aI581
aI583
aI584
aI585
aI586
aI587
aI589
aI618
aI623
aI624
aI626
aI627
aI629
aI631
aI633
aI635
aI637
aI644
aI646
aI647
aI663
aI675
aI677
aI703
aI749
aI756
aI757
aI758
aI799
aI802
aI803
aI846
aI847
aI849
asI150
(lp150
I391
aI392
aI443
aI444
aI445
aI446
aI447
aI448
aI449
aI450
aI467
aI469
aI470
aI471
aI472
aI473
aI553
aI554
aI555
aI567
aI569
aI570
aI573
aI606
aI613
aI614
aI618
aI623
aI624
aI626
aI645
aI646
aI648
aI703
aI732
aI754
aI756
aI757
aI758
aI790
aI792
aI793
aI794
aI795
asI151
(lp151
I756
aI757
aI852
aI860
asI152
(lp152
I23
aI24
aI25
aI26
aI27
aI28
aI73
aI93
aI98
aI99
aI103
aI107
aI112
aI114
aI115
aI116
aI117
aI118
aI121
aI123
aI139
aI144
aI148
aI149
aI150
aI152
aI172
aI173
aI175
aI176
aI177
aI179
aI180
aI181
aI182
aI183
aI184
aI185
aI186
aI192
aI211
aI212
aI213
aI214
aI220
aI221
aI223
aI224
aI225
aI227
aI241
aI242
aI243
aI244
aI245
aI246
aI247
aI248
aI249
aI253
aI284
aI289
aI290
aI291
aI292
aI293
aI294
aI295
aI296
aI297
aI298
aI299
aI300
aI301
aI302
aI303
aI304
aI305
aI306
aI307
aI308
aI309
aI310
aI313
aI331
aI332
aI333
aI334
aI356
aI360
aI361
aI362
aI363
aI364
aI365
aI366
aI367
aI368
aI369
aI370
aI371
aI373
aI374
aI376
aI377
aI378
aI379
aI380
aI381
aI382
aI383
aI384
aI385
aI386
aI387
aI388
aI389
aI390
aI392
aI443
aI444
aI445
aI446
aI447
aI448
aI449
aI450
aI451
aI452
aI453
aI454
aI455
aI456
aI457
aI458
aI459
aI460
aI461
aI462
aI463
aI464
aI465
aI466
aI467
aI468
aI469
aI470
aI471
aI472
aI473
aI474
aI475
aI476
aI477
aI478
aI479
aI480
aI481
aI482
aI483
aI484
aI485
aI486
aI487
aI553
aI554
aI555
aI556
aI557
aI558
aI559
aI560
aI561
aI562
aI563
aI564
aI565
aI566
aI569
aI570
aI573
aI606
aI618
aI622
aI623
aI624
aI625
aI626
aI645
aI646
aI648
aI675
aI703
aI707
aI708
aI709
aI710
aI713
aI715
aI732
aI754
aI756
aI757
aI758
aI787
aI790
aI791
aI792
aI793
aI794
aI795
aI863
asI153
(lp153
I732
aI756
aI757
aI792
aI793
aI795
asI154
(lp154
I443
aI444
aI445
aI446
aI447
aI448
aI449
aI450
aI464
aI468
aI618
aI623
aI624
aI626
aI644
aI646
aI647
aI703
aI756
aI757
aI758
asI155
(lp155
I391
aI392
aI393
aI394
aI395
aI396
aI469
aI470
aI471
aI472
aI473
aI485
aI553
aI554
aI555
aI564
aI565
aI567
aI569
aI570
aI573
aI732
aI738
aI739
aI740
aI754
aI756
aI757
aI758
aI783
aI787
aI790
aI792
aI793
aI794
aI795
asI156
(lp156
I505
aI506
aI507
aI508
aI509
aI510
aI518
aI519
aI520
aI521
aI522
aI523
aI524
aI525
aI526
aI527
aI535
aI536
aI538
aI749
aI751
aI752
aI753
aI756
aI757
aI758
aI775
aI778
aI780
aI781
aI783
aI786
aI805
aI806
aI808
aI809
aI810
aI813
aI825
aI827
aI828
aI829
aI840
aI841
aI843
asI157
(lp157
I732
aI756
aI793
aI794
aI795
asI158
(lp158
I569
aI570
aI573
aI680
aI681
aI682
aI688
aI747
aI748
aI749
aI750
aI754
aI815
aI819
aI821
aI822
asI159
(lp159
I23
aI24
aI25
aI26
aI27
aI28
aI29
aI30
aI36
aI37
aI38
aI39
aI40
aI41
aI42
aI43
aI52
aI53
aI54
aI55
aI56
aI58
aI67
aI87
aI98
aI99
aI103
aI107
aI112
aI114
aI115
aI116
aI117
aI118
aI121
aI123
aI142
aI144
aI148
aI149
aI150
aI151
aI152
aI160
aI162
aI163
aI164
aI165
aI166
aI175
aI176
aI179
aI180
aI181
aI182
aI183
aI223
aI225
aI227
aI248
aI249
aI250
aI251
aI252
aI253
aI284
aI289
aI290
aI291
aI292
aI293
aI294
aI295
aI296
aI297
aI298
aI299
aI300
aI301
aI302
aI303
aI304
aI305
aI306
aI307
aI308
aI309
aI310
aI312
aI313
aI331
aI332
aI333
aI334
aI356
aI360
aI361
aI362
aI363
aI364
aI365
aI366
aI367
aI368
aI369
aI370
aI371
aI373
aI374
aI376
aI377
aI378
aI379
aI380
aI381
aI382
aI383
aI384
aI385
aI386
aI387
aI388
aI389
aI390
aI469
aI470
aI471
aI472
aI473
aI474
aI475
aI476
aI477
aI478
aI479
aI480
aI481
aI482
aI483
aI484
aI485
aI486
aI487
aI539
aI540
aI541
aI542
aI543
aI544
aI545
aI546
aI547
aI548
aI549
aI550
aI551
aI552
aI566
aI569
aI570
aI573
aI646
aI648
aI663
aI714
aI715
aI732
aI754
aI756
aI757
aI758
aI790
aI791
aI792
aI793
aI794
aI795
aI796
aI799
aI801
aI802
aI803
aI804
aI846
asI160
(lp160
I23
aI24
aI25
aI26
aI27
aI28
aI29
aI30
aI36
aI37
aI38
aI39
aI40
aI41
aI42
aI43
aI52
aI53
aI54
aI55
aI56
aI58
aI98
aI99
aI103
aI107
aI112
aI114
aI139
aI148
aI149
aI150
aI151
aI152
aI211
aI212
aI213
aI220
aI223
aI225
aI227
aI248
aI249
aI253
aI284
aI289
aI290
aI291
aI292
aI293
aI294
aI295
aI296
aI298
aI299
aI300
aI301
aI302
aI304
aI305
aI306
aI307
aI308
aI309
aI310
aI312
aI313
aI360
aI361
aI362
aI363
aI364
aI365
aI366
aI390
aI443
aI444
aI445
aI446
aI447
aI448
aI449
aI450
aI451
aI566
aI618
aI622
aI624
aI625
aI626
aI644
aI646
aI647
aI677
aI703
aI756
aI757
aI758
asI161
(lp161
I23
aI24
aI25
aI26
aI27
aI28
aI96
aI98
aI99
aI103
aI107
aI112
aI113
aI114
aI115
aI116
aI117
aI118
aI119
aI138
aI141
aI143
aI148
aI149
aI150
aI152
aI184
aI188
aI189
aI191
aI194
aI195
aI196
aI197
aI198
aI199
aI200
aI201
aI203
aI204
aI205
aI206
aI208
aI209
aI221
aI223
aI224
aI225
aI227
aI241
aI242
aI243
aI244
aI245
aI246
aI247
aI248
aI249
aI250
aI253
aI262
aI263
aI264
aI265
aI266
aI267
aI268
aI269
aI270
aI271
aI272
aI273
aI274
aI275
aI276
aI277
aI278
aI279
aI280
aI281
aI284
aI286
aI287
aI289
aI290
aI291
aI292
aI293
aI294
aI295
aI296
aI297
aI298
aI299
aI300
aI301
aI302
aI303
aI304
aI305
aI306
aI307
aI308
aI309
aI310
aI313
aI360
aI361
aI362
aI363
aI364
aI365
aI366
aI367
aI368
aI369
aI370
aI371
aI373
aI374
aI376
aI377
aI378
aI379
aI380
aI381
aI382
aI383
aI384
aI385
aI386
aI387
aI388
aI389
aI390
aI392
aI505
aI506
aI507
aI508
aI509
aI510
aI511
aI512
aI513
aI514
aI515
aI516
aI517
aI518
aI519
aI520
aI521
aI522
aI523
aI524
aI525
aI526
aI527
aI528
aI529
aI530
aI531
aI532
aI533
aI534
aI535
aI536
aI537
aI538
aI553
aI554
aI555
aI556
aI557
aI558
aI559
aI560
aI561
aI562
aI563
aI564
aI565
aI566
aI672
aI707
aI708
aI709
aI710
aI722
aI723
aI756
aI757
aI758
aI772
aI775
aI778
aI779
aI780
aI781
aI782
aI783
aI784
aI785
aI805
aI823
aI825
aI826
aI827
aI828
aI829
aI840
aI863
asI162
(lp162
I393
aI396
aI488
aI489
aI490
aI491
aI492
aI493
aI590
aI591
aI592
aI602
aI689
aI690
aI702
aI756
aI757
aI758
aI760
aI761
aI766
aI769
aI770
aI852
aI858
aI860
aI861
asI163
(lp163
I443
aI444
aI445
aI446
aI447
aI448
aI449
aI450
aI451
aI462
aI463
aI464
aI465
aI466
aI467
aI469
aI470
aI471
aI472
aI473
aI474
aI483
aI484
aI485
aI486
aI487
aI567
aI569
aI570
aI573
aI606
aI618
aI623
aI624
aI626
aI627
aI629
aI630
aI631
aI633
aI635
aI637
aI640
aI645
aI646
aI648
aI703
aI732
aI741
aI742
aI744
aI749
aI751
aI752
aI753
aI754
aI756
aI757
aI758
aI790
aI792
aI793
aI794
aI795
aI862
asI164
(lp164
I604
aI607
aI610
aI613
aI616
aI626
aI756
aI757
asI165
(lp165
I568
aI569
aI570
aI571
aI572
aI573
aI680
aI681
aI682
aI688
aI749
aI754
aI814
aI815
aI818
aI819
aI820
aI821
asI166
(lp166
I391
aI392
aI426
aI427
aI428
aI429
aI430
aI431
aI432
aI433
aI434
aI553
aI554
aI555
aI556
aI557
aI558
aI559
aI560
aI561
aI562
aI563
aI564
aI565
aI756
asI167
(lp167
I469
aI470
aI471
aI472
aI473
aI486
aI567
aI569
aI570
aI573
aI646
aI647
aI732
aI754
aI756
aI757
aI758
aI790
aI792
aI793
aI794
aI795
aI796
aI800
aI803
aI804
aI846
asI168
(lp168
I360
aI361
aI362
aI363
aI364
aI365
aI366
aI367
aI443
aI444
aI445
aI446
aI447
aI448
aI449
aI450
aI566
aI618
aI623
aI624
aI626
aI644
aI646
aI647
aI660
aI661
aI675
aI677
aI703
aI756
aI757
aI758
asI169
(lp169
I23
aI24
aI25
aI26
aI27
aI28
aI29
aI30
aI31
aI32
aI35
aI40
aI41
aI42
aI43
aI44
aI45
aI46
aI47
aI48
aI49
aI51
aI57
aI98
aI99
aI103
aI107
aI112
aI114
aI139
aI148
aI149
aI150
aI151
aI152
aI211
aI212
aI213
aI220
aI223
aI225
aI227
aI248
aI249
aI253
aI284
aI289
aI290
aI291
aI292
aI293
aI294
aI295
aI296
aI298
aI299
aI300
aI301
aI302
aI304
aI305
aI306
aI307
aI308
aI309
aI310
aI312
aI313
aI360
aI361
aI362
aI363
aI364
aI365
aI366
aI390
aI443
aI444
aI445
aI446
aI447
aI448
aI449
aI450
aI451
aI566
aI618
aI622
aI624
aI625
aI626
aI644
aI646
aI647
aI677
aI703
aI756
aI757
aI758
asI170
(lp170
I443
aI444
aI445
aI446
aI447
aI448
aI449
aI450
aI451
aI462
aI463
aI464
aI465
aI466
aI467
aI618
aI623
aI624
aI626
aI627
aI629
aI631
aI633
aI635
aI637
aI644
aI646
aI647
aI703
aI749
aI756
aI757
aI758
asI171
(lp171
I469
aI470
aI471
aI472
aI473
aI486
aI567
aI569
aI570
aI573
aI606
aI619
aI624
aI625
aI626
aI646
aI647
aI732
aI754
aI756
aI757
aI758
aI790
aI792
aI793
aI794
aI795
as.