(dp0
I1
(lp1
I28
aI29
aI30
aI31
aI32
aI33
aI34
aI35
aI36
aI37
aI41
aI55
asI2
(lp2
I28
aI29
aI30
aI31
aI32
aI33
aI34
aI35
aI36
aI37
aI41
aI55
asI3
(lp3
I28
aI29
aI30
aI31
aI32
aI33
aI34
aI35
aI36
aI37
aI41
aI55
asI4
(lp4
I28
aI29
aI30
aI31
aI32
aI33
aI34
aI35
aI36
aI37
aI41
aI55
asI5
(lp5
I0
aI4
aI6
aI7
aI8
aI9
aI10
aI28
aI29
aI30
aI31
aI32
aI33
aI34
aI35
aI36
aI37
aI39
aI40
aI41
aI44
aI45
aI46
aI48
aI49
aI55
asI6
(lp6
I28
aI29
aI30
aI31
aI32
aI33
aI34
aI35
aI36
aI37
aI41
aI55
asI7
(lp7
I6
aI7
aI8
aI9
aI10
aI28
aI29
aI30
aI31
aI32
aI33
aI34
aI35
aI36
aI37
aI41
aI55
asI9
(lp8
I28
aI29
aI30
aI31
aI32
aI33
aI34
aI35
aI36
aI37
aI41
aI52
aI55
asI10
(lp9
I0
aI1
aI4
aI6
aI7
aI8
aI9
aI10
aI18
aI23
aI24
aI26
aI28
aI29
aI30
aI31
aI32
aI33
aI34
aI35
aI36
aI37
aI39
aI40
aI41
aI45
aI46
aI48
aI49
aI50
aI53
aI55
asI11
(lp10
I0
aI3
aI4
aI5
aI6
aI7
aI8
aI9
aI10
aI18
aI19
aI28
aI29
aI30
aI31
aI32
aI33
aI34
aI35
aI36
aI37
aI39
aI40
aI41
aI45
aI46
aI48
aI49
aI50
aI55
asI12
(lp11
I28
aI29
aI30
aI31
aI32
aI33
aI34
aI35
aI36
aI37
aI41
aI55
asI13
(lp12
I0
aI4
aI6
aI7
aI8
aI9
aI10
aI28
aI29
aI30
aI31
aI32
aI33
aI34
aI35
aI36
aI37
aI39
aI40
aI41
aI45
aI46
aI48
aI49
aI55
asI14
(lp13
I28
aI29
aI30
aI31
aI32
aI33
aI34
aI35
aI36
aI37
aI41
aI55
asI15
(lp14
I28
aI29
aI30
aI31
aI32
aI33
aI34
aI35
aI36
aI37
aI41
aI55
asI16
(lp15
I28
aI29
aI30
aI31
aI32
aI33
aI34
aI35
aI36
aI37
aI41
aI55
asI17
(lp16
I0
aI3
aI4
aI5
aI6
aI7
aI8
aI9
aI10
aI14
aI15
aI16
aI17
aI28
aI29
aI30
aI31
aI32
aI33
aI34
aI35
aI36
aI37
aI39
aI40
aI41
aI45
aI46
aI48
aI49
aI50
aI51
aI55
asI18
(lp17
I28
aI29
aI30
aI31
aI32
aI33
aI34
aI35
aI36
aI37
aI41
aI55
asI19
(lp18
I0
aI4
aI6
aI7
aI8
aI9
aI10
aI18
aI28
aI29
aI30
aI31
aI32
aI33
aI34
aI35
aI36
aI37
aI39
aI40
aI41
aI45
aI46
aI48
aI49
aI50
aI51
aI55
asI20
(lp19
I5
aI6
aI7
aI8
aI9
aI10
aI32
aI33
aI34
aI35
aI39
aI40
aI41
aI45
aI55
asI21
(lp20
I28
aI29
aI30
aI31
aI32
aI33
aI34
aI35
aI36
aI37
aI41
aI55
asI23
(lp21
I28
aI29
aI30
aI31
aI32
aI33
aI34
aI35
aI36
aI37
aI41
aI55
asI24
(lp22
I28
aI29
aI30
aI31
aI32
aI33
aI34
aI35
aI36
aI37
aI41
aI55
asI25
(lp23
I28
aI29
aI30
aI31
aI32
aI33
aI34
aI35
aI36
aI37
aI41
aI55
asI26
(lp24
I28
aI29
aI30
aI31
aI32
aI33
aI34
aI35
aI36
aI37
aI41
aI55
asI27
(lp25
I28
aI29
aI30
aI31
aI32
aI33
aI34
aI35
aI36
aI37
aI41
aI55
asI28
(lp26
I28
aI29
aI30
aI31
aI32
aI33
aI34
aI35
aI36
aI37
aI41
aI55
asI29
(lp27
I28
aI29
aI30
aI31
aI32
aI33
aI34
aI35
aI36
aI37
aI41
aI55
asI30
(lp28
I28
aI29
aI30
aI31
aI32
aI33
aI34
aI35
aI36
aI37
aI41
aI55
asI31
(lp29
I28
aI29
aI30
aI31
aI32
aI33
aI34
aI35
aI36
aI37
aI41
aI55
asI32
(lp30
I28
aI29
aI30
aI31
aI32
aI33
aI34
aI35
aI36
aI37
aI41
aI55
asI33
(lp31
I28
aI29
aI30
aI31
aI32
aI33
aI34
aI35
aI36
aI37
aI41
aI55
asI34
(lp32
I28
aI29
aI30
aI31
aI32
aI33
aI34
aI35
aI36
aI37
aI41
aI55
asI36
(lp33
I6
aI7
aI8
aI9
aI10
aI28
aI29
aI30
aI31
aI32
aI33
aI34
aI35
aI36
aI37
aI41
aI55
asI37
(lp34
I21
aI22
aI25
aI27
aI28
aI29
aI30
aI31
aI32
aI33
aI34
aI35
aI36
aI37
aI41
aI55
asI38
(lp35
I28
aI29
aI30
aI31
aI32
aI33
aI34
aI35
aI36
aI37
aI41
aI55
asI39
(lp36
I28
aI29
aI30
aI31
aI32
aI33
aI34
aI35
aI36
aI37
aI41
aI55
asI40
(lp37
I28
aI29
aI30
aI31
aI32
aI33
aI34
aI35
aI36
aI37
aI41
aI55
asI41
(lp38
I28
aI29
aI30
aI31
aI32
aI33
aI34
aI35
aI36
aI37
aI41
aI55
asI42
(lp39
I0
aI4
aI6
aI7
aI8
aI9
aI10
aI18
aI28
aI29
aI30
aI31
aI32
aI33
aI34
aI35
aI36
aI37
aI39
aI40
aI41
aI45
aI46
aI48
aI49
aI50
aI55
asI43
(lp40
I28
aI29
aI30
aI31
aI32
aI33
aI34
aI35
aI36
aI37
aI41
aI55
asI44
(lp41
I28
aI29
aI30
aI31
aI32
aI33
aI34
aI35
aI36
aI37
aI41
aI55
asI45
(lp42
I28
aI29
aI30
aI31
aI32
aI33
aI34
aI35
aI55
asI46
(lp43
I6
aI7
aI8
aI9
aI10
aI28
aI29
aI30
aI31
aI32
aI33
aI34
aI35
aI36
aI37
aI41
aI55
asI47
(lp44
I28
aI29
aI30
aI31
aI32
aI33
aI34
aI35
aI36
aI37
aI41
aI55
asI48
(lp45
I0
aI4
aI6
aI7
aI8
aI9
aI10
aI13
aI28
aI29
aI30
aI31
aI32
aI33
aI34
aI35
aI36
aI37
aI39
aI40
aI41
aI42
aI43
aI44
aI45
aI46
aI48
aI49
aI55
asI49
(lp46
I0
aI3
aI4
aI5
aI6
aI7
aI8
aI9
aI10
aI11
aI18
aI19
aI20
aI28
aI29
aI30
aI31
aI32
aI33
aI34
aI35
aI36
aI37
aI39
aI40
aI41
aI45
aI46
aI47
aI48
aI49
aI50
aI51
aI55
asI50
(lp47
I28
aI29
aI30
aI31
aI32
aI33
aI34
aI35
aI36
aI37
aI41
aI55
asI51
(lp48
I28
aI29
aI30
aI31
aI32
aI33
aI34
aI35
aI36
aI37
aI41
aI55
asI52
(lp49
I28
aI29
aI30
aI31
aI32
aI33
aI34
aI35
aI36
aI37
aI41
aI55
asI53
(lp50
I28
aI29
aI30
aI31
aI32
aI33
aI34
aI35
aI36
aI37
aI41
aI55
asI54
(lp51
I0
aI2
aI4
aI6
aI7
aI8
aI9
aI10
aI18
aI28
aI29
aI30
aI31
aI32
aI33
aI34
aI35
aI36
aI37
aI38
aI39
aI40
aI41
aI42
aI43
aI45
aI46
aI48
aI49
aI50
aI51
aI54
aI55
asI55
(lp52
I28
aI29
aI30
aI31
aI32
aI33
aI34
aI35
aI55
asI56
(lp53
I0
aI4
aI6
aI7
aI8
aI9
aI10
aI18
aI28
aI29
aI30
aI31
aI32
aI33
aI34
aI35
aI36
aI37
aI39
aI40
aI41
aI45
aI46
aI48
aI49
aI50
aI55
asI58
(lp54
I0
aI2
aI4
aI6
aI7
aI8
aI9
aI10
aI12
aI13
aI18
aI28
aI29
aI30
aI31
aI32
aI33
aI34
aI35
aI36
aI37
aI38
aI39
aI40
aI41
aI42
aI43
aI45
aI46
aI48
aI49
aI50
aI54
aI55
asI59
(lp55
I28
aI29
aI30
aI31
aI32
aI33
aI34
aI35
aI36
aI37
aI41
aI55
asI60
(lp56
I28
aI29
aI30
aI31
aI32
aI33
aI34
aI35
aI36
aI37
aI41
aI55
asI61
(lp57
I28
aI29
aI30
aI31
aI32
aI33
aI34
aI35
aI36
aI37
aI41
aI55
asI62
(lp58
I28
aI29
aI30
aI31
aI32
aI33
aI34
aI35
aI36
aI37
aI41
aI55
asI63
(lp59
I28
aI29
aI30
aI31
aI32
aI33
aI34
aI35
aI36
aI37
aI41
aI55
asI64
(lp60
I28
aI29
aI30
aI31
aI32
aI33
aI34
aI35
aI36
aI37
aI41
aI55
asI65
(lp61
I28
aI29
aI30
aI31
aI32
aI33
aI34
aI35
aI36
aI37
aI41
aI55
as.