(dp0
I1
(lp1
I3
aI10
aI11
aI16
aI17
aI18
aI19
aI20
asI2
(lp2
I112
aI149
asI3
(lp3
I61
aI113
aI114
aI115
aI116
aI117
aI118
aI166
asI4
(lp4
I61
aI67
asI5
(lp5
I55
aI56
aI58
aI59
aI60
aI61
aI63
aI64
aI65
asI6
(lp6
I21
asI7
(lp7
I13
aI14
aI15
aI45
aI166
asI8
(lp8
I88
asI9
(lp9
I53
aI54
aI61
asI10
(lp10
I43
aI52
aI100
aI112
aI149
asI11
(lp11
I43
aI52
aI68
aI69
aI70
aI71
aI72
aI73
aI74
aI75
aI83
aI84
aI86
aI90
aI91
aI93
aI96
aI97
aI99
aI149
aI165
asI12
(lp12
I43
aI52
aI70
aI75
aI78
aI94
aI149
aI160
aI162
asI13
(lp13
I142
aI143
aI144
aI149
asI14
(lp14
I111
aI149
asI15
(lp15
I3
aI10
aI11
asI16
(lp16
I1
aI3
aI10
aI11
asI17
(lp17
I12
aI28
aI29
aI30
aI31
asI18
(lp18
I43
aI52
aI70
aI71
aI72
aI75
aI84
aI86
aI87
aI90
aI92
aI96
aI98
aI149
aI165
asI19
(lp19
I149
aI152
aI153
asI20
(lp20
I61
asI21
(lp21
I0
asI22
(lp22
I44
aI47
aI51
aI149
aI155
aI156
asI23
(lp23
I43
aI52
aI119
aI149
asI24
(lp24
I43
aI52
aI100
aI111
aI149
asI25
(lp25
I49
aI50
aI149
asI26
(lp26
I43
aI52
aI149
aI151
aI152
aI153
asI30
(lp27
I48
aI128
aI129
aI130
aI131
aI132
aI149
asI31
(lp28
I76
aI77
aI78
aI79
aI80
aI81
aI82
aI89
aI95
aI149
aI160
aI161
aI162
asI33
(lp29
I146
aI147
aI148
aI149
aI157
aI158
aI159
asI34
(lp30
I47
aI149
asI37
(lp31
I61
asI38
(lp32
I138
aI139
aI140
aI149
asI39
(lp33
I24
aI88
asI40
(lp34
I43
aI52
aI119
aI126
aI149
asI41
(lp35
I0
aI3
aI10
aI11
asI42
(lp36
I43
aI52
aI100
aI149
asI43
(lp37
I3
aI4
aI5
aI6
aI7
aI8
aI9
aI10
aI11
aI19
aI20
asI44
(lp38
I10
aI11
asI45
(lp39
I83
aI84
aI86
aI87
aI96
aI98
aI149
asI46
(lp40
I43
aI52
aI145
aI146
aI148
aI149
asI47
(lp41
I26
aI27
aI32
aI33
aI34
aI35
aI36
aI37
aI38
aI39
aI40
aI41
aI42
asI49
(lp42
I61
aI62
asI51
(lp43
I23
asI52
(lp44
I146
aI148
aI149
asI53
(lp45
I46
aI150
asI56
(lp46
I43
aI52
aI149
aI154
aI155
aI156
asI57
(lp47
I83
aI84
aI85
aI86
aI87
aI97
aI99
aI149
asI58
(lp48
I8
aI19
asI59
(lp49
I3
aI10
aI11
asI60
(lp50
I133
aI134
aI135
aI136
aI149
asI61
(lp51
I61
asI62
(lp52
I149
aI152
aI153
asI63
(lp53
I57
aI61
asI66
(lp54
I142
aI143
aI144
aI149
asI67
(lp55
I2
aI3
aI10
aI11
aI19
aI20
asI68
(lp56
I43
aI52
aI137
aI138
aI139
aI140
aI149
asI69
(lp57
I17
aI19
asI70
(lp58
I19
aI22
asI71
(lp59
I10
aI11
asI72
(lp60
I61
asI74
(lp61
I3
aI7
aI8
aI10
aI11
aI19
aI20
asI75
(lp62
I127
aI149
asI77
(lp63
I3
aI10
aI11
aI19
aI20
asI78
(lp64
I61
asI81
(lp65
I101
aI102
aI103
aI104
aI105
aI106
aI107
aI108
aI109
aI110
aI149
asI82
(lp66
I3
aI10
aI11
asI83
(lp67
I126
aI149
asI84
(lp68
I7
aI8
aI19
asI86
(lp69
I43
aI52
aI141
aI142
aI143
aI144
aI149
asI87
(lp70
I61
asI88
(lp71
I25
aI27
aI32
aI33
aI34
aI35
aI36
aI37
aI38
aI39
aI40
aI41
aI42
asI89
(lp72
I149
aI155
aI156
asI90
(lp73
I2
aI19
asI91
(lp74
I32
aI33
aI88
asI93
(lp75
I3
aI10
aI11
asI94
(lp76
I61
aI66
asI95
(lp77
I19
aI20
aI22
asI97
(lp78
I3
aI10
aI11
asI98
(lp79
I43
aI52
aI119
aI127
aI149
asI100
(lp80
I138
aI139
aI140
aI149
asI101
(lp81
I149
asI102
(lp82
I3
aI10
aI11
asI103
(lp83
I120
aI121
aI122
aI123
aI124
aI125
aI149
aI163
aI164
as.