(dp0
I1
(lp1
I2
aI3
aI5
aI6
aI7
aI10
aI12
aI13
aI14
aI15
aI16
aI17
aI18
aI19
aI20
aI21
aI22
aI23
aI24
aI25
aI26
aI28
aI29
aI30
aI31
aI32
aI33
aI34
aI36
aI37
aI38
aI39
aI40
aI41
aI42
aI43
aI44
aI45
aI46
aI47
aI48
aI49
aI50
aI51
aI52
aI53
aI54
aI55
aI56
aI57
aI58
aI59
aI60
aI61
aI63
aI64
aI66
aI221
aI224
aI228
aI229
aI230
aI232
aI237
aI238
aI240
aI244
aI245
aI248
aI249
aI251
aI252
aI253
aI295
aI296
aI457
aI458
aI462
aI463
aI464
aI472
aI473
aI474
aI517
aI518
aI519
asI2
(lp2
I126
aI129
aI131
aI134
aI142
aI150
aI155
aI156
aI157
aI164
aI168
aI170
aI180
aI182
aI183
aI184
aI185
aI186
aI187
aI188
aI189
aI190
aI191
aI192
aI195
aI196
aI197
aI198
aI200
aI204
aI205
aI206
aI207
aI208
aI209
aI213
aI215
aI216
aI217
aI218
aI219
aI220
aI221
aI222
aI223
aI224
aI225
aI228
aI229
aI230
aI231
aI232
aI233
aI234
aI235
aI236
aI237
aI238
aI239
aI240
aI241
aI242
aI243
aI246
aI247
aI249
aI250
aI251
aI254
aI255
aI256
aI264
aI265
aI266
aI267
aI269
aI270
aI272
aI273
aI275
aI276
aI277
aI278
aI282
aI283
aI284
aI285
aI286
aI299
aI300
aI301
aI339
aI340
aI341
aI342
aI343
aI344
aI345
aI346
aI357
aI360
aI361
aI423
aI424
aI425
aI426
aI427
aI428
aI429
aI430
aI441
aI442
aI444
aI445
aI447
aI453
aI456
aI475
aI476
aI477
aI478
aI479
aI480
aI481
aI483
aI485
aI495
aI496
aI497
aI498
aI499
aI500
asI3
(lp3
I1
aI2
aI4
aI5
aI67
aI68
aI69
aI73
aI74
aI77
aI79
aI80
aI81
aI82
aI83
aI84
aI86
aI87
aI88
aI89
aI90
aI91
aI92
aI93
aI94
aI95
aI96
aI97
aI98
aI99
aI100
aI101
aI114
aI115
aI116
aI117
aI118
aI123
aI124
aI125
asI4
(lp4
I221
aI224
aI228
aI229
aI230
aI232
aI237
aI238
aI240
aI244
aI245
aI248
aI249
aI251
aI252
aI253
aI400
aI401
aI402
aI406
aI407
aI464
aI509
aI510
aI511
aI512
asI5
(lp5
I1
aI2
aI4
aI5
aI67
aI68
aI69
aI70
aI71
aI72
aI73
aI75
aI77
aI82
aI83
aI84
aI85
aI86
aI87
aI88
aI89
aI90
aI91
aI92
aI93
aI94
aI95
aI102
aI103
aI104
aI105
aI106
aI107
aI108
aI109
aI110
aI114
aI115
aI116
aI117
aI119
aI121
aI123
aI124
aI125
aI221
aI224
aI228
aI229
aI230
aI232
aI237
aI238
aI240
aI244
aI245
aI248
aI249
aI251
aI252
aI253
aI295
aI457
aI458
aI459
aI460
aI461
aI464
aI465
aI467
aI469
aI471
aI517
aI518
aI519
asI6
(lp6
I363
asI7
(lp7
I221
aI224
aI228
aI229
aI230
aI232
aI237
aI238
aI240
aI244
aI245
aI248
aI249
aI251
aI252
aI253
aI393
aI394
aI395
aI396
aI397
aI464
aI465
aI467
aI469
aI471
aI501
aI502
aI504
asI8
(lp8
I2
aI3
aI5
aI6
aI7
aI10
aI12
aI13
aI14
aI15
aI16
aI17
aI18
aI19
aI20
aI21
aI22
aI23
aI24
aI25
aI26
aI28
aI29
aI30
aI31
aI32
aI33
aI34
aI36
aI37
aI38
aI39
aI40
aI41
aI42
aI43
aI44
aI45
aI46
aI47
aI48
aI49
aI50
aI51
aI52
aI53
aI54
aI55
aI56
aI57
aI58
aI59
aI60
aI61
aI63
aI64
aI66
asI9
(lp9
I2
aI5
aI221
aI224
aI228
aI229
aI230
aI232
aI237
aI240
aI244
aI249
aI251
aI252
aI465
aI466
aI468
aI470
aI502
aI504
aI506
aI508
aI510
aI512
aI514
aI516
aI518
aI519
asI10
(lp10
I0
aI2
aI3
aI5
aI6
aI7
aI10
aI12
aI13
aI14
aI15
aI16
aI17
aI18
aI19
aI20
aI21
aI22
aI23
aI24
aI25
aI26
aI28
aI47
aI62
aI65
asI11
(lp11
I126
aI157
aI182
aI184
aI185
aI186
aI187
aI188
aI189
aI190
aI191
aI192
aI193
aI194
aI195
aI196
aI197
aI198
aI200
aI201
aI202
aI203
aI204
aI205
aI206
aI207
aI208
aI209
aI210
aI211
aI212
aI213
aI215
aI216
aI217
aI218
aI219
aI220
aI221
aI222
aI223
aI224
aI225
aI228
aI229
aI230
aI231
aI232
aI233
aI234
aI235
aI236
aI237
aI238
aI239
aI240
aI241
aI242
aI243
aI246
aI247
aI249
aI250
aI251
aI254
aI255
aI256
aI264
aI265
aI266
aI267
aI269
aI270
aI272
aI273
aI275
aI276
aI277
aI278
aI282
aI283
aI284
aI285
aI286
aI299
aI300
aI301
aI339
aI340
aI341
aI342
aI343
aI344
aI345
aI346
aI357
aI360
aI361
aI423
aI424
aI425
aI426
aI427
aI428
aI429
aI430
aI441
aI442
aI444
aI445
aI447
aI453
aI456
aI475
aI476
aI477
aI478
aI479
aI480
aI481
aI483
aI485
aI495
aI496
aI497
aI498
aI499
aI500
asI12
(lp12
I220
aI221
aI223
aI224
aI228
aI229
aI230
aI231
aI232
aI235
aI237
aI238
aI240
aI241
aI242
aI243
aI247
aI249
aI250
aI251
aI264
aI265
aI266
aI267
aI269
aI270
aI272
aI273
aI275
aI276
aI277
aI278
aI282
aI283
aI288
aI289
aI290
aI291
aI299
aI300
aI301
aI304
aI305
aI311
aI317
aI318
aI320
aI321
aI323
aI324
aI327
aI328
aI331
aI332
aI333
aI337
aI339
aI340
aI341
aI345
aI347
aI348
aI349
aI350
aI351
aI352
aI353
aI354
aI357
aI361
aI423
aI424
aI425
aI426
aI427
aI429
aI430
aI431
aI432
aI433
aI434
aI435
aI436
aI437
aI475
aI476
aI477
aI478
aI479
aI480
aI481
aI483
aI484
aI485
aI486
asI13
(lp13
I220
aI221
aI223
aI224
aI228
aI229
aI230
aI231
aI232
aI235
aI237
aI238
aI240
aI241
aI242
aI243
aI247
aI249
aI250
aI251
aI264
aI265
aI266
aI267
aI268
aI269
aI270
aI271
aI272
aI273
aI275
aI276
aI277
aI278
aI282
aI283
aI284
aI285
aI286
aI287
aI299
aI300
aI301
aI304
aI305
aI311
aI317
aI318
aI320
aI321
aI323
aI324
aI327
aI330
aI331
aI332
aI333
aI334
aI335
aI336
aI337
aI338
aI339
aI340
aI341
aI342
aI343
aI344
aI345
aI346
aI347
aI348
aI349
aI353
aI357
aI360
aI361
aI423
aI424
aI425
aI426
aI427
aI428
aI429
aI430
aI431
aI432
aI433
aI435
aI436
aI437
aI475
aI476
aI477
aI478
aI479
aI480
aI481
aI483
aI484
aI485
aI486
asI14
(lp14
I1
aI2
aI4
aI5
aI70
aI71
aI72
aI75
aI78
aI83
aI84
aI85
aI102
aI103
aI104
aI105
aI106
aI107
aI108
aI109
aI110
aI114
aI116
aI119
aI120
aI121
aI124
aI125
asI15
(lp15
I2
aI5
aI6
aI7
aI10
aI12
aI13
aI14
aI15
aI16
aI17
aI18
aI19
aI20
aI21
aI22
aI23
aI24
aI25
aI26
aI28
aI30
aI31
aI32
aI33
aI34
aI35
aI38
aI39
aI40
aI41
aI42
aI43
aI44
aI45
aI47
aI48
aI49
aI50
aI52
aI53
aI54
aI55
aI56
aI57
aI58
aI59
aI60
aI61
aI63
aI64
aI66
aI221
aI224
aI228
aI229
aI230
aI232
aI237
aI238
aI240
aI244
aI245
aI248
aI249
aI251
aI252
aI253
aI295
aI457
aI458
aI462
aI463
aI464
aI472
aI473
aI474
aI517
aI518
aI519
asI16
(lp16
I0
aI2
aI3
aI5
aI6
aI8
aI9
aI11
aI13
aI14
aI15
aI16
aI23
aI24
aI25
aI27
aI28
aI47
aI62
aI65
asI17
(lp17
I126
aI127
aI128
aI129
aI130
aI131
aI132
aI133
aI134
aI135
aI136
aI137
aI138
aI139
aI140
aI141
aI142
aI143
aI145
aI146
aI147
aI148
aI149
aI151
aI152
aI153
aI154
aI155
aI156
aI157
aI158
aI159
aI160
aI163
aI164
aI165
aI166
aI167
aI168
aI169
aI170
aI171
aI175
aI176
aI177
aI178
aI179
aI180
aI181
aI185
aI186
aI187
aI189
aI190
aI195
aI196
aI197
aI198
aI208
aI213
aI217
aI218
aI220
aI221
aI222
aI223
aI224
aI225
aI228
aI229
aI230
aI231
aI232
aI234
aI235
aI236
aI237
aI238
aI239
aI240
aI241
aI242
aI243
aI246
aI247
aI249
aI250
aI251
aI254
aI255
aI256
aI264
aI265
aI266
aI267
aI269
aI270
aI272
aI273
aI275
aI276
aI277
aI278
aI282
aI283
aI284
aI285
aI286
aI299
aI301
aI339
aI340
aI341
aI342
aI343
aI344
aI346
aI357
aI360
aI423
aI424
aI425
aI426
aI427
aI428
aI429
aI430
aI475
aI476
aI477
aI478
aI479
aI480
aI481
aI483
aI485
asI18
(lp18
I221
aI224
aI228
aI229
aI230
aI232
aI237
aI238
aI240
aI244
aI245
aI248
aI249
aI251
aI252
aI253
aI398
aI403
aI404
aI464
aI472
aI473
aI474
aI491
aI492
aI493
aI494
aI505
aI506
aI508
asI19
(lp19
I221
aI224
aI228
aI229
aI230
aI232
aI237
aI238
aI240
aI244
aI245
aI248
aI249
aI251
aI252
aI253
aI393
aI394
aI395
aI396
aI397
aI464
aI465
aI467
aI469
aI471
aI487
aI488
aI489
aI490
aI505
aI506
aI508
asI20
(lp20
I1
aI2
aI4
aI5
aI70
aI71
aI72
aI75
aI78
aI83
aI84
aI85
aI102
aI103
aI104
aI105
aI106
aI107
aI108
aI109
aI110
aI114
aI116
aI119
aI120
aI121
aI124
aI125
asI21
(lp21
I126
aI157
aI182
aI184
aI185
aI186
aI187
aI188
aI189
aI190
aI191
aI192
aI195
aI196
aI197
aI198
aI200
aI204
aI205
aI206
aI207
aI208
aI209
aI213
aI215
aI217
aI218
aI219
aI220
aI221
aI222
aI223
aI224
aI225
aI228
aI229
aI230
aI231
aI232
aI233
aI234
aI235
aI236
aI237
aI238
aI239
aI240
aI241
aI242
aI243
aI246
aI247
aI249
aI250
aI251
aI254
aI255
aI256
aI264
aI265
aI266
aI267
aI269
aI270
aI272
aI273
aI275
aI276
aI277
aI278
aI282
aI283
aI284
aI285
aI286
aI299
aI300
aI301
aI339
aI340
aI341
aI342
aI343
aI344
aI345
aI346
aI357
aI360
aI361
aI423
aI424
aI425
aI426
aI427
aI428
aI429
aI430
aI441
aI442
aI444
aI445
aI447
aI453
aI456
aI475
aI476
aI477
aI478
aI479
aI480
aI481
aI483
aI485
aI495
aI496
aI497
aI498
aI499
aI500
asI22
(lp22
I2
aI5
aI221
aI224
aI228
aI229
aI230
aI232
aI237
aI240
aI244
aI249
aI251
aI252
aI502
aI504
aI506
aI508
aI510
aI512
aI514
aI516
aI518
aI519
asI23
(lp23
I220
aI221
aI223
aI224
aI228
aI229
aI230
aI231
aI232
aI235
aI237
aI238
aI240
aI241
aI242
aI243
aI247
aI249
aI250
aI251
aI264
aI265
aI266
aI267
aI269
aI270
aI272
aI273
aI275
aI276
aI277
aI278
aI282
aI283
aI292
aI293
aI294
aI299
aI300
aI301
aI302
aI303
aI304
aI305
aI306
aI307
aI308
aI309
aI310
aI311
aI312
aI313
aI314
aI315
aI316
aI318
aI319
aI320
aI321
aI323
aI324
aI327
aI331
aI332
aI333
aI337
aI339
aI340
aI341
aI345
aI347
aI348
aI349
aI353
aI357
aI361
aI423
aI424
aI425
aI426
aI427
aI429
aI430
aI431
aI432
aI433
aI435
aI436
aI437
aI440
aI475
aI476
aI477
aI478
aI479
aI480
aI481
aI482
aI483
aI485
aI486
asI24
(lp24
I221
aI224
aI228
aI229
aI230
aI232
aI237
aI238
aI240
aI244
aI245
aI248
aI249
aI251
aI252
aI253
aI392
aI401
aI404
aI405
aI464
aI472
aI473
aI474
aI492
aI494
aI505
aI506
aI507
aI508
asI25
(lp25
I126
aI157
aI182
aI184
aI185
aI186
aI188
aI189
aI190
aI191
aI192
aI195
aI196
aI197
aI198
aI199
aI200
aI204
aI205
aI206
aI207
aI208
aI209
aI213
aI214
aI215
aI217
aI218
aI219
aI220
aI221
aI222
aI223
aI224
aI225
aI226
aI227
aI228
aI229
aI230
aI231
aI232
aI233
aI234
aI235
aI236
aI237
aI238
aI239
aI240
aI241
aI242
aI243
aI246
aI247
aI249
aI250
aI251
aI254
aI255
aI256
aI264
aI265
aI266
aI267
aI269
aI270
aI272
aI273
aI275
aI276
aI277
aI278
aI282
aI283
aI284
aI285
aI286
aI299
aI300
aI301
aI339
aI340
aI341
aI342
aI343
aI344
aI345
aI346
aI357
aI360
aI361
aI423
aI424
aI425
aI426
aI427
aI428
aI429
aI430
aI441
aI442
aI443
aI444
aI445
aI446
aI447
aI448
aI449
aI450
aI451
aI452
aI453
aI454
aI455
aI456
aI475
aI476
aI477
aI478
aI479
aI480
aI481
aI483
aI485
aI495
aI496
aI497
aI498
aI499
aI500
asI26
(lp26
I1
aI2
aI4
aI5
aI67
aI68
aI69
aI70
aI71
aI72
aI73
aI75
aI77
aI82
aI83
aI84
aI85
aI86
aI87
aI88
aI89
aI90
aI91
aI92
aI93
aI94
aI95
aI102
aI103
aI104
aI105
aI106
aI107
aI108
aI109
aI110
aI114
aI115
aI116
aI117
aI119
aI121
aI123
aI124
aI125
aI221
aI224
aI228
aI229
aI230
aI232
aI237
aI238
aI240
aI244
aI245
aI248
aI249
aI251
aI252
aI253
aI295
aI457
aI458
aI459
aI460
aI461
aI464
aI465
aI467
aI469
aI471
aI517
aI518
aI519
asI27
(lp27
I221
aI224
aI228
aI229
aI230
aI232
aI237
aI238
aI240
aI249
aI250
aI251
asI28
(lp28
I220
aI221
aI223
aI224
aI228
aI229
aI230
aI231
aI232
aI235
aI237
aI238
aI240
aI241
aI242
aI243
aI247
aI249
aI250
aI251
aI257
aI258
aI259
aI260
aI264
aI265
aI266
aI267
aI269
aI270
aI272
aI273
aI275
aI276
aI277
aI278
aI282
aI283
aI297
aI298
aI299
aI300
aI301
aI339
aI340
aI341
aI345
aI355
aI356
aI357
aI358
aI359
aI361
aI363
aI364
aI408
aI409
aI410
aI411
aI412
aI413
aI414
aI415
aI416
aI417
aI418
aI419
aI420
aI422
aI423
aI424
aI425
aI426
aI427
aI429
aI430
aI438
aI439
aI475
aI476
aI477
aI478
aI479
aI480
aI481
aI483
aI485
aI486
asI29
(lp29
I220
aI221
aI223
aI224
aI231
aI232
aI235
aI237
aI238
aI240
aI241
aI242
aI243
aI247
aI249
aI250
aI251
aI261
aI262
aI263
aI264
aI265
aI266
aI267
aI269
aI270
aI272
aI273
aI275
aI276
aI277
aI278
aI282
aI283
aI284
aI285
aI286
aI299
aI300
aI301
aI339
aI340
aI341
aI342
aI343
aI344
aI345
aI346
aI357
aI360
aI361
aI362
aI365
aI366
aI367
aI368
aI369
aI370
aI371
aI372
aI373
aI374
aI375
aI376
aI377
aI378
aI379
aI380
aI381
aI382
aI383
aI384
aI385
aI386
aI387
aI388
aI389
aI390
aI391
aI423
aI424
aI425
aI426
aI427
aI428
aI429
aI430
aI475
aI476
aI477
aI478
aI479
aI480
aI481
aI483
aI485
aI486
asI30
(lp30
I221
aI224
aI228
aI229
aI230
aI232
aI237
aI238
aI240
aI244
aI245
aI248
aI249
aI251
aI252
aI253
aI392
aI398
aI399
aI401
aI403
aI404
aI405
aI464
aI472
aI473
aI474
aI501
aI502
aI503
aI504
asI31
(lp31
I220
aI221
aI223
aI224
aI228
aI229
aI230
aI231
aI232
aI235
aI237
aI238
aI240
aI241
aI242
aI243
aI247
aI249
aI250
aI251
aI257
aI258
aI259
aI260
aI264
aI265
aI266
aI267
aI269
aI270
aI272
aI273
aI275
aI276
aI277
aI278
aI282
aI283
aI297
aI298
aI299
aI301
aI304
aI305
aI311
aI317
aI318
aI320
aI321
aI322
aI323
aI324
aI325
aI326
aI327
aI329
aI331
aI332
aI333
aI337
aI347
aI348
aI349
aI353
aI363
aI408
aI409
aI410
aI411
aI412
aI413
aI414
aI415
aI416
aI417
aI418
aI419
aI420
aI421
aI423
aI424
aI425
aI426
aI427
aI429
aI430
aI431
aI432
aI433
aI435
aI436
aI437
aI438
aI439
aI475
aI476
aI477
aI478
aI479
aI480
aI481
aI483
aI485
aI486
asI32
(lp32
I221
aI224
aI228
aI229
aI230
aI232
aI237
aI238
aI240
aI244
aI245
aI248
aI249
aI251
aI252
aI253
aI400
aI401
aI402
aI406
aI407
aI464
aI513
aI514
aI515
aI516
asI33
(lp33
I1
aI2
aI4
aI5
aI76
aI78
aI83
aI84
aI85
aI102
aI111
aI112
aI113
aI114
aI116
aI120
aI121
aI122
aI124
aI125
asI34
(lp34
I221
aI224
aI228
aI229
aI230
aI232
aI237
aI238
aI240
aI244
aI245
aI248
aI249
aI251
aI252
aI253
aI398
aI399
aI403
aI404
aI464
aI472
aI473
aI474
aI501
aI502
aI504
asI35
(lp35
I2
aI5
aI6
aI7
aI10
aI12
aI13
aI14
aI15
aI16
aI17
aI18
aI19
aI20
aI21
aI22
aI23
aI24
aI25
aI26
aI28
aI30
aI31
aI32
aI33
aI34
aI35
aI38
aI39
aI40
aI41
aI42
aI43
aI44
aI45
aI47
aI48
aI49
aI50
aI52
aI53
aI54
aI55
aI56
aI57
aI58
aI59
aI60
aI61
aI63
aI64
aI66
asI36
(lp36
I126
aI127
aI133
aI137
aI138
aI139
aI140
aI141
aI144
aI146
aI148
aI152
aI153
aI157
aI161
aI162
aI167
aI169
aI172
aI173
aI174
aI175
aI177
aI178
aI182
aI184
aI185
aI186
aI187
aI188
aI189
aI190
aI191
aI192
aI193
aI195
aI196
aI197
aI198
aI200
aI202
aI203
aI204
aI205
aI206
aI207
aI208
aI209
aI210
aI211
aI212
aI213
aI214
aI215
aI217
aI218
aI219
aI220
aI221
aI222
aI223
aI224
aI225
aI228
aI229
aI230
aI231
aI232
aI233
aI234
aI235
aI236
aI237
aI238
aI239
aI240
aI241
aI242
aI243
aI246
aI247
aI249
aI250
aI251
aI254
aI255
aI256
aI264
aI265
aI266
aI267
aI269
aI270
aI272
aI273
aI274
aI275
aI276
aI277
aI278
aI279
aI280
aI281
aI282
aI283
aI284
aI285
aI286
aI287
aI299
aI300
aI301
aI339
aI340
aI341
aI342
aI343
aI344
aI345
aI346
aI357
aI360
aI361
aI423
aI424
aI425
aI426
aI427
aI428
aI429
aI430
aI441
aI442
aI444
aI445
aI447
aI453
aI456
aI475
aI476
aI477
aI478
aI479
aI480
aI481
aI483
aI484
aI485
aI486
aI495
aI496
aI497
aI498
aI499
aI500
as.