(dp0
I1
(lp1
I0
aI1
aI2
aI3
aI4
aI5
aI6
aI7
aI8
aI10
aI11
aI12
aI13
aI14
aI15
aI16
aI123
aI232
aI233
aI234
aI235
aI236
aI237
aI238
aI239
aI240
asI2
(lp2
I0
aI1
aI2
aI3
aI4
aI5
aI6
aI7
aI8
aI9
aI12
aI13
aI14
aI15
aI16
aI233
aI234
aI235
aI236
aI238
aI239
aI240
asI3
(lp3
I22
aI23
aI24
aI25
aI26
aI27
aI28
aI29
aI30
aI31
aI32
aI33
aI34
aI35
aI36
aI37
aI38
aI39
aI40
aI41
aI411
asI4
(lp4
I0
aI1
aI2
aI3
aI4
aI5
aI6
aI7
aI8
aI10
aI11
aI12
aI13
aI14
aI15
aI16
aI18
aI19
aI20
asI5
(lp5
I0
aI1
aI2
aI3
aI4
aI5
aI6
aI7
aI8
aI10
aI11
aI12
aI13
asI6
(lp6
I0
aI1
aI2
aI3
aI4
aI5
aI6
aI7
aI8
aI10
aI11
aI12
aI13
aI14
aI15
aI16
aI18
aI373
aI374
asI7
(lp7
I0
aI1
aI2
aI3
aI4
aI5
aI6
aI7
aI8
aI12
aI13
aI14
aI16
aI18
aI61
aI81
aI89
aI90
aI91
aI92
aI93
aI94
aI95
aI96
aI97
aI98
aI99
aI100
aI101
aI102
aI103
aI104
aI105
aI106
aI107
aI108
aI109
aI110
aI111
aI112
aI113
aI114
aI115
aI116
aI117
aI118
aI119
aI120
aI121
aI122
aI124
aI125
aI126
aI127
aI128
aI129
aI130
aI131
aI132
aI133
aI134
aI135
aI136
aI137
aI138
aI139
aI140
aI141
aI142
aI143
aI144
aI145
aI146
aI147
aI148
aI149
asI8
(lp8
I0
aI1
aI2
aI3
aI4
aI5
aI6
aI7
aI8
aI12
aI13
aI94
aI96
aI98
aI99
aI103
aI106
aI109
aI110
aI165
aI166
aI233
aI235
asI9
(lp9
I63
aI77
aI78
aI88
aI206
aI207
aI208
aI209
aI210
aI211
aI212
aI213
aI214
aI215
aI216
aI217
aI218
aI219
aI220
aI221
aI222
aI223
aI224
aI225
aI226
aI227
aI228
aI229
aI230
aI231
aI244
aI245
aI246
aI247
aI248
aI249
aI250
aI251
aI252
aI253
aI254
aI255
aI256
aI257
aI258
aI259
aI260
aI261
aI262
asI10
(lp10
I0
aI2
aI3
aI4
aI5
aI6
aI7
aI8
aI10
aI11
aI12
aI13
aI14
aI16
aI18
aI101
aI102
asI11
(lp11
I42
aI43
aI44
aI45
aI46
aI47
aI48
aI49
aI50
aI51
aI52
aI53
aI54
aI55
aI56
aI57
aI58
asI12
(lp12
I46
aI52
aI175
aI177
aI180
aI201
aI202
aI203
aI204
aI205
aI206
aI207
aI208
aI209
aI210
aI212
aI213
aI214
aI215
aI216
aI217
aI218
aI219
aI220
aI221
aI222
aI223
aI224
aI225
aI226
aI228
aI229
aI230
aI231
aI241
aI242
aI243
aI263
aI264
aI265
aI267
aI268
aI269
aI271
aI272
aI273
aI274
aI275
aI276
aI277
aI278
aI279
aI280
aI281
aI290
aI318
aI319
aI320
aI321
aI322
aI323
aI324
aI325
aI326
aI327
aI328
asI13
(lp13
I0
aI2
aI3
aI4
aI5
aI6
aI7
aI8
aI10
aI11
aI12
aI13
aI14
aI16
aI18
aI97
aI101
aI102
asI14
(lp14
I42
aI43
aI44
aI45
aI46
aI47
aI48
aI49
aI50
aI51
aI52
aI53
aI54
aI55
aI57
aI58
aI173
aI174
aI175
aI176
aI177
aI178
aI179
aI180
aI186
aI190
aI191
aI192
aI193
aI194
aI195
aI196
aI197
aI198
aI199
aI200
asI15
(lp15
I0
aI2
aI3
aI4
aI5
aI6
aI7
aI8
aI12
aI13
aI14
aI16
aI18
aI61
aI81
aI89
aI90
aI92
aI93
aI94
aI96
aI97
aI98
aI99
aI100
aI101
aI102
aI103
aI104
aI105
aI106
aI107
aI108
aI109
aI110
aI111
aI112
aI113
aI114
aI115
aI116
aI117
aI118
aI119
aI120
aI121
aI122
aI123
aI124
aI125
aI126
aI127
aI128
aI129
aI130
aI131
aI132
aI133
aI134
aI135
aI136
aI137
aI138
aI139
aI140
aI141
aI142
aI143
aI144
aI145
aI146
aI147
aI148
aI149
asI16
(lp16
I177
aI241
aI242
aI243
aI318
aI327
asI17
(lp17
I0
aI1
aI2
aI3
aI4
aI5
aI6
aI7
aI8
aI9
aI10
aI11
aI12
aI13
aI14
aI15
aI16
aI233
aI234
aI235
aI236
aI238
aI239
aI240
asI18
(lp18
I61
aI81
aI113
aI115
aI119
aI120
aI124
aI125
aI130
aI132
aI133
aI134
aI138
aI140
aI143
aI144
aI146
aI148
aI149
aI390
aI391
aI392
aI393
aI394
aI395
aI396
aI397
aI398
aI399
aI400
aI401
asI19
(lp19
I116
aI147
asI20
(lp20
I201
aI202
aI203
aI204
aI205
aI265
aI268
aI269
aI275
aI276
aI278
aI279
aI280
aI281
aI290
aI321
aI322
aI326
asI21
(lp21
I0
aI1
aI2
aI4
aI5
aI6
aI7
aI8
aI9
aI12
aI18
aI61
aI81
aI89
aI90
aI92
aI94
aI96
aI97
aI98
aI99
aI100
aI103
aI104
aI106
aI107
aI109
aI110
aI111
aI114
aI116
aI117
aI121
aI122
aI126
aI128
aI133
aI135
aI136
aI139
aI142
aI147
aI333
aI334
aI335
asI22
(lp22
I61
aI81
asI23
(lp23
I22
aI23
aI24
aI25
aI26
aI27
aI28
aI29
aI30
aI31
aI32
aI33
aI34
aI35
aI36
aI37
aI38
aI39
aI40
aI41
asI24
(lp24
I201
aI202
aI203
aI204
aI205
aI206
aI207
aI208
aI209
aI210
aI212
aI213
aI214
aI215
aI216
aI217
aI218
aI219
aI220
aI221
aI222
aI223
aI224
aI225
aI226
aI228
aI229
aI230
aI231
aI241
aI242
aI243
aI263
aI264
aI265
aI267
aI268
aI269
aI271
aI272
aI273
aI274
aI275
aI276
aI277
aI278
aI279
aI280
aI281
aI290
aI319
aI321
aI322
aI323
aI324
aI325
aI326
asI25
(lp25
I46
aI52
aI57
aI63
aI69
aI75
aI77
aI78
aI79
aI82
aI88
aI171
aI172
aI173
aI174
aI175
aI177
aI178
aI179
aI180
aI186
aI190
aI206
aI207
aI208
aI209
aI210
aI212
aI213
aI214
aI215
aI216
aI217
aI218
aI219
aI220
aI221
aI222
aI223
aI224
aI225
aI226
aI228
aI229
aI230
aI231
aI320
aI328
aI336
aI337
aI338
aI339
aI340
asI26
(lp26
I2
aI12
aI42
aI43
aI44
aI45
aI47
aI48
aI49
aI50
aI51
aI53
aI54
aI55
aI58
aI59
aI60
aI61
aI63
aI64
aI67
aI68
aI70
aI71
aI72
aI73
aI74
aI77
aI78
aI79
aI80
aI81
aI84
aI85
aI87
aI88
aI170
asI27
(lp27
I0
aI1
aI2
aI3
aI4
aI5
aI6
aI7
aI8
aI12
aI13
aI14
aI16
aI18
aI42
aI43
aI44
aI45
aI47
aI48
aI49
aI50
aI51
aI53
aI54
aI55
aI58
aI59
aI60
aI61
aI63
aI64
aI67
aI68
aI70
aI71
aI72
aI73
aI80
aI81
aI84
aI85
aI87
aI88
aI89
aI90
aI91
aI92
aI93
aI94
aI95
aI96
aI97
aI98
aI99
aI100
aI101
aI102
aI103
aI104
aI105
aI106
aI108
aI109
aI110
aI280
aI281
aI282
aI283
aI286
aI287
aI288
aI289
aI290
aI291
aI294
aI296
aI297
aI299
aI301
aI302
aI303
aI304
aI305
aI337
aI338
aI339
aI340
aI341
aI342
aI343
aI344
aI345
aI346
aI347
aI348
aI349
aI350
aI351
aI352
aI353
aI354
aI355
aI356
asI28
(lp28
I0
aI1
aI2
aI3
aI4
aI5
aI6
aI7
aI8
aI12
aI13
aI14
aI16
aI18
aI61
aI81
aI89
aI90
aI91
aI92
aI93
aI94
aI95
aI96
aI97
aI98
aI99
aI100
aI101
aI102
aI103
aI104
aI105
aI106
aI107
aI108
aI109
aI110
aI116
aI137
aI147
aI167
aI168
aI169
asI29
(lp29
I0
aI2
aI3
aI4
aI5
aI6
aI7
aI8
aI10
aI11
aI12
aI13
aI14
aI15
aI16
aI95
aI374
aI385
asI30
(lp30
I42
aI43
aI44
aI45
aI47
aI48
aI49
aI50
aI51
aI53
aI54
aI55
aI58
aI191
aI192
aI193
aI194
aI195
aI196
aI197
aI198
aI199
aI200
aI307
aI308
aI309
aI310
aI311
asI31
(lp31
I0
aI1
aI2
aI3
aI4
aI5
aI6
aI7
aI8
aI10
aI11
aI12
aI13
aI14
aI16
aI18
aI91
aI95
aI101
aI102
asI32
(lp32
I42
aI43
aI44
aI45
aI47
aI48
aI49
aI50
aI51
aI53
aI54
aI55
aI58
aI191
aI192
aI193
aI194
aI195
aI196
aI197
aI198
aI199
aI200
asI33
(lp33
I116
aI147
aI206
aI207
asI34
(lp34
I42
aI43
aI44
aI45
aI46
aI47
aI48
aI49
aI50
aI51
aI52
aI53
aI54
aI55
aI57
aI58
aI173
aI174
aI175
aI177
aI178
aI179
aI180
aI186
aI190
aI191
aI192
aI193
aI194
aI195
aI196
aI197
aI198
aI199
aI200
asI35
(lp35
I0
aI1
aI2
aI3
aI4
aI5
aI6
aI7
aI8
aI9
aI10
aI11
aI12
aI13
asI36
(lp36
I0
aI1
aI2
aI3
aI4
aI5
aI6
aI7
aI8
aI10
aI11
aI12
aI13
aI14
aI15
aI16
aI18
aI19
aI20
asI37
(lp37
I2
aI12
aI42
aI43
aI44
aI45
aI47
aI48
aI49
aI50
aI51
aI53
aI54
aI55
aI58
aI59
aI60
aI61
aI63
aI64
aI67
aI68
aI69
aI70
aI71
aI72
aI73
aI74
aI75
aI77
aI78
aI79
aI80
aI81
aI82
aI84
aI85
aI87
aI88
aI171
aI172
aI337
aI338
aI339
aI340
asI38
(lp38
I201
aI202
aI203
aI204
aI205
asI39
(lp39
I201
aI202
aI203
aI204
aI205
asI40
(lp40
I201
aI202
aI203
aI204
aI205
aI263
aI264
aI265
aI266
aI267
aI268
aI269
aI271
aI272
aI273
aI274
aI275
aI276
aI277
aI278
aI279
asI41
(lp41
I201
aI202
aI203
aI204
aI205
aI263
aI264
aI265
aI267
aI268
aI269
aI271
aI272
aI273
aI274
aI275
aI276
aI277
aI278
aI279
aI280
aI281
aI290
aI321
aI322
aI326
asI42
(lp42
I42
aI43
aI44
aI45
aI46
aI47
aI48
aI49
aI50
aI51
aI52
aI53
aI54
aI55
aI57
aI58
aI173
aI174
aI175
aI176
aI177
aI178
aI179
aI180
aI181
aI182
aI183
aI184
aI185
aI186
aI187
aI188
aI189
aI190
asI43
(lp43
I42
aI43
aI44
aI45
aI47
aI48
aI49
aI50
aI51
aI53
aI54
aI55
aI58
aI61
aI63
aI64
aI67
aI73
aI74
aI77
aI78
aI79
aI81
aI84
aI85
aI87
aI88
aI284
aI285
aI291
aI292
aI369
aI370
aI371
asI44
(lp44
I2
aI12
aI42
aI43
aI44
aI45
aI47
aI48
aI49
aI50
aI51
aI53
aI54
aI55
aI58
aI59
aI60
aI61
aI62
aI63
aI64
aI65
aI66
aI67
aI68
aI70
aI71
aI72
aI73
aI74
aI76
aI77
aI78
aI79
aI80
aI81
aI83
aI84
aI85
aI86
aI87
aI88
aI171
aI172
asI45
(lp45
I0
aI2
aI8
aI9
aI10
aI11
aI12
aI13
aI116
aI147
aI334
aI402
aI403
aI404
aI405
asI46
(lp46
I42
aI43
aI44
aI45
aI47
aI48
aI49
aI50
aI51
aI53
aI54
aI55
aI58
aI61
aI63
aI64
aI67
aI73
aI74
aI77
aI78
aI79
aI81
aI84
aI85
aI87
aI88
aI284
aI285
aI291
aI292
aI364
aI365
aI366
aI367
aI368
aI369
aI370
aI371
aI372
asI47
(lp47
I206
aI207
asI48
(lp48
I23
aI24
aI26
aI27
aI31
aI33
aI35
aI37
aI41
aI152
aI154
aI160
aI161
aI163
aI329
aI330
aI331
aI332
asI49
(lp49
I46
aI52
aI175
aI177
aI180
aI201
aI202
aI203
aI204
aI205
aI206
aI207
aI208
aI209
aI210
aI212
aI213
aI214
aI215
aI216
aI217
aI218
aI219
aI220
aI221
aI222
aI223
aI224
aI225
aI226
aI228
aI229
aI230
aI231
aI241
aI242
aI243
aI263
aI264
aI265
aI267
aI268
aI269
aI271
aI272
aI273
aI274
aI275
aI276
aI277
aI278
aI279
aI318
aI319
aI320
aI323
aI324
aI325
aI327
aI328
asI50
(lp50
I0
aI1
aI2
aI3
aI4
aI5
aI6
aI7
aI8
aI10
aI11
aI12
aI13
aI14
aI15
aI16
aI18
aI19
aI97
asI51
(lp51
I0
aI1
aI2
aI3
aI4
aI5
aI6
aI7
aI8
aI10
aI11
aI12
aI13
aI14
aI15
aI16
aI232
aI233
aI234
aI235
aI236
aI237
aI238
aI239
aI240
asI52
(lp52
I201
aI202
aI203
aI204
aI205
aI263
aI264
aI265
aI267
aI268
aI269
aI271
aI272
aI273
aI274
aI275
aI276
aI277
aI278
aI279
asI53
(lp53
I380
aI381
aI382
aI383
aI384
asI54
(lp54
I206
aI207
aI208
aI209
aI210
aI211
aI212
aI213
aI214
aI215
aI216
aI217
aI218
aI219
aI220
aI221
aI222
aI223
aI224
aI225
aI226
aI227
aI228
aI229
aI230
aI231
asI55
(lp55
I241
aI242
aI243
asI56
(lp56
I0
aI1
aI2
aI3
aI4
aI5
aI6
aI7
aI8
aI10
aI11
aI12
aI13
aI116
aI147
aI406
aI407
aI408
aI409
asI57
(lp57
I42
aI43
aI44
aI45
aI47
aI48
aI49
aI50
aI51
aI53
aI54
aI55
aI58
aI67
aI85
aI280
aI281
aI282
aI283
aI284
aI285
aI286
aI287
aI288
aI289
aI290
aI291
aI292
aI293
aI294
aI295
aI296
aI297
aI298
aI299
aI300
aI301
aI302
aI303
aI304
aI305
aI306
asI58
(lp58
I42
aI43
aI44
aI45
aI46
aI47
aI48
aI49
aI50
aI51
aI52
aI53
aI54
aI55
aI57
aI58
aI173
aI174
aI175
aI177
aI178
aI179
aI180
aI181
aI182
aI183
aI184
aI185
aI186
aI187
aI188
aI189
aI190
asI59
(lp59
I0
aI1
aI2
aI3
aI4
aI5
aI6
aI7
aI8
aI10
aI11
aI12
aI13
aI116
aI147
aI165
aI166
aI386
aI387
aI388
aI389
asI60
(lp60
I0
aI1
aI2
aI3
aI4
aI5
aI6
aI7
aI8
aI9
aI10
aI11
aI12
aI13
aI14
aI16
aI18
aI91
aI95
aI101
aI102
asI61
(lp61
I42
aI43
aI44
aI45
aI46
aI47
aI48
aI49
aI50
aI51
aI52
aI53
aI54
aI55
aI57
aI58
aI173
aI174
aI175
aI177
aI178
aI179
aI180
aI186
aI190
aI191
aI192
aI193
aI194
aI195
aI196
aI197
aI198
aI199
aI200
aI307
aI308
aI309
aI310
aI311
asI62
(lp62
I0
aI1
aI2
aI3
aI4
aI5
aI6
aI7
aI8
aI12
aI13
aI14
aI15
aI16
aI18
aI19
aI97
asI63
(lp63
I206
aI207
aI208
aI209
aI210
aI211
aI212
aI213
aI214
aI215
aI216
aI217
aI218
aI219
aI220
aI221
aI222
aI223
aI224
aI225
aI226
aI228
aI229
aI230
aI231
aI312
aI313
aI314
aI315
aI316
aI317
asI64
(lp64
I0
aI1
aI2
aI3
aI4
aI5
aI6
aI7
aI8
aI10
aI11
aI12
aI13
aI14
aI15
aI16
aI18
aI61
aI81
aI89
aI90
aI92
aI94
aI96
aI98
aI99
aI100
aI103
aI104
aI106
aI109
aI110
aI111
aI112
aI113
aI115
aI117
aI119
aI121
aI122
aI124
aI125
aI127
aI128
aI129
aI130
aI131
aI134
aI138
aI139
aI140
aI141
aI142
aI143
aI144
aI145
aI148
asI65
(lp65
I201
aI202
aI203
aI204
aI205
aI263
aI264
aI265
aI266
aI267
aI268
aI269
aI270
aI271
aI272
aI273
aI274
aI275
aI276
aI277
aI278
aI279
asI66
(lp66
I42
aI43
aI44
aI45
aI47
aI48
aI49
aI50
aI51
aI53
aI54
aI55
aI58
aI67
aI284
aI285
aI291
aI292
aI375
aI376
aI377
aI378
aI379
asI67
(lp67
I46
aI52
aI57
aI173
aI174
aI175
aI177
aI178
aI179
aI180
aI186
aI190
aI206
aI207
aI208
aI209
aI210
aI211
aI212
aI213
aI214
aI215
aI216
aI217
aI218
aI219
aI220
aI221
aI222
aI223
aI224
aI225
aI226
aI228
aI229
aI230
aI231
aI320
aI328
aI336
asI68
(lp68
I0
aI1
aI2
aI3
aI4
aI5
aI6
aI7
aI8
aI12
aI13
aI14
aI16
aI18
aI91
aI95
aI101
aI102
aI165
aI166
asI69
(lp69
I0
aI2
aI3
aI4
aI5
aI6
aI7
aI8
aI10
aI11
aI12
aI13
aI14
aI16
aI18
aI97
aI101
aI102
asI70
(lp70
I206
aI207
aI208
aI209
aI210
aI211
aI212
aI213
aI214
aI215
aI216
aI217
aI218
aI219
aI220
aI221
aI222
aI223
aI224
aI225
aI226
aI228
aI229
aI230
aI231
aI244
aI245
aI246
aI247
aI248
aI249
aI250
aI251
aI252
aI253
aI254
aI255
aI256
aI257
aI258
aI259
aI260
aI261
aI262
asI71
(lp71
I201
aI202
aI203
aI204
aI205
aI265
aI268
aI269
aI275
aI276
aI278
aI279
asI72
(lp72
I2
aI12
aI42
aI43
aI44
aI45
aI47
aI48
aI49
aI50
aI51
aI53
aI54
aI55
aI58
aI59
aI60
aI61
aI63
aI64
aI67
aI68
aI69
aI70
aI71
aI72
aI73
aI74
aI75
aI77
aI78
aI79
aI80
aI81
aI82
aI84
aI85
aI87
aI88
aI171
aI172
asI73
(lp73
I0
aI1
aI2
aI3
aI4
aI5
aI6
aI7
aI8
aI12
aI13
aI14
aI16
aI18
aI61
aI81
aI89
aI90
aI91
aI92
aI93
aI94
aI95
aI96
aI97
aI98
aI99
aI100
aI101
aI102
aI103
aI104
aI105
aI106
aI107
aI108
aI109
aI110
asI74
(lp74
I22
aI30
aI41
aI410
asI75
(lp75
I0
aI1
aI2
aI3
aI4
aI5
aI6
aI7
aI8
aI10
aI11
aI12
aI13
aI14
aI15
aI16
aI232
aI233
aI234
aI235
aI236
aI237
aI238
aI239
aI240
asI76
(lp76
I0
aI1
aI2
aI3
aI4
aI5
aI6
aI7
aI8
aI9
aI10
aI11
aI12
aI13
aI14
aI16
aI18
aI91
aI95
aI101
aI102
asI77
(lp77
I2
aI12
aI42
aI43
aI44
aI45
aI47
aI48
aI49
aI50
aI51
aI53
aI54
aI55
aI58
aI59
aI60
aI61
aI62
aI63
aI64
aI65
aI66
aI67
aI68
aI69
aI70
aI71
aI72
aI73
aI74
aI75
aI76
aI77
aI78
aI79
aI80
aI81
aI82
aI83
aI84
aI85
aI86
aI87
aI88
asI78
(lp78
I201
aI202
aI203
aI204
aI205
aI206
aI207
aI208
aI209
aI210
aI212
aI213
aI214
aI215
aI216
aI217
aI218
aI219
aI220
aI221
aI222
aI223
aI224
aI225
aI226
aI228
aI229
aI230
aI231
aI241
aI242
aI243
aI263
aI264
aI265
aI267
aI268
aI269
aI271
aI272
aI273
aI274
aI275
aI276
aI277
aI278
aI279
aI319
aI323
aI324
aI325
asI79
(lp79
I206
aI207
aI208
aI209
aI210
aI212
aI213
aI214
aI215
aI216
aI217
aI218
aI219
aI220
aI221
aI222
aI223
aI224
aI225
aI226
aI228
aI229
aI230
aI231
aI336
aI337
aI338
aI339
aI340
asI80
(lp80
I0
aI1
aI2
aI3
aI4
aI5
aI6
aI7
aI8
aI10
aI11
aI12
aI13
aI14
aI15
aI16
aI17
aI18
aI19
aI20
aI21
asI81
(lp81
I22
aI23
aI24
aI25
aI26
aI27
aI28
aI29
aI30
aI31
aI32
aI33
aI34
aI35
aI36
aI37
aI38
aI39
aI40
aI41
aI150
aI151
aI152
aI153
aI154
aI155
aI156
aI157
aI158
aI159
aI160
aI161
aI162
aI163
aI164
asI82
(lp82
I0
aI1
aI2
aI3
aI4
aI5
aI6
aI7
aI8
aI10
aI11
aI12
aI13
aI14
aI16
aI18
aI91
aI95
aI101
aI102
aI165
aI166
asI83
(lp83
I22
aI23
aI24
aI25
aI26
aI27
aI28
aI29
aI30
aI31
aI32
aI33
aI34
aI35
aI36
aI37
aI38
aI39
aI40
aI41
asI84
(lp84
I42
aI43
aI44
aI45
aI46
aI47
aI48
aI49
aI50
aI51
aI52
aI53
aI54
aI55
aI56
aI57
aI58
asI85
(lp85
I22
aI23
aI24
aI25
aI26
aI27
aI28
aI29
aI30
aI31
aI32
aI33
aI34
aI35
aI36
aI37
aI38
aI39
aI40
aI41
asI86
(lp86
I42
aI43
aI44
aI45
aI47
aI48
aI49
aI50
aI51
aI53
aI54
aI55
aI58
aI61
aI63
aI64
aI67
aI73
aI74
aI77
aI78
aI79
aI81
aI84
aI85
aI87
aI88
aI284
aI285
aI291
aI292
aI371
asI87
(lp87
I247
aI248
aI251
aI254
aI260
aI357
aI358
aI359
aI360
aI361
aI362
aI363
as.