(dp0
I1
(lp1
I1
aI4
aI5
aI6
aI7
aI156
aI157
aI161
aI165
aI176
aI177
aI198
asI2
(lp2
I26
aI28
aI29
aI30
aI31
aI32
aI33
aI34
aI35
aI36
aI37
aI39
asI3
(lp3
I1
aI4
aI5
aI6
aI7
aI25
aI41
aI42
aI43
aI44
aI45
aI46
aI47
aI153
aI155
aI161
aI165
aI196
aI201
asI4
(lp4
I1
aI4
aI5
aI6
aI10
aI11
aI13
aI14
aI15
aI17
aI18
aI20
aI49
aI50
aI52
aI53
aI54
aI56
aI58
aI62
aI68
aI69
aI70
aI72
aI73
aI74
aI75
aI76
aI77
aI78
aI80
aI81
aI83
aI84
aI146
aI147
aI148
aI149
aI150
aI151
aI152
aI158
aI159
aI161
aI165
aI182
aI183
aI184
aI192
aI193
asI5
(lp5
I1
aI4
aI5
aI6
aI7
aI25
aI26
aI28
aI29
aI30
aI31
aI32
aI33
aI34
aI35
aI36
aI37
aI39
aI156
aI157
aI161
aI165
aI201
asI6
(lp6
I68
aI69
aI70
aI72
aI73
aI74
aI75
aI76
aI77
aI78
aI80
aI81
aI83
aI84
aI192
aI193
asI7
(lp7
I1
aI4
aI5
aI6
aI7
aI120
aI122
aI156
aI157
aI161
aI165
aI197
asI8
(lp8
I1
aI2
aI4
aI5
aI6
aI9
aI13
aI14
aI15
aI17
aI18
aI20
aI60
aI61
aI66
aI67
aI68
aI69
aI71
aI72
aI73
aI74
aI75
aI76
aI78
aI79
aI80
aI81
aI84
aI139
aI140
aI141
aI142
aI145
aI146
aI147
aI148
aI161
aI165
aI170
aI171
aI172
aI173
aI178
aI181
aI182
aI183
aI185
aI186
aI187
asI9
(lp9
I1
aI2
aI4
aI5
aI6
aI9
aI13
aI14
aI15
aI17
aI18
aI20
aI60
aI61
aI66
aI67
aI68
aI69
aI72
aI73
aI74
aI76
aI78
aI79
aI80
aI84
aI139
aI140
aI141
aI142
aI145
aI146
aI147
aI148
aI161
aI165
aI170
aI171
aI172
aI173
aI178
aI181
aI182
aI183
aI185
aI186
aI187
asI10
(lp10
I0
aI1
aI2
aI4
aI5
aI6
aI9
aI13
aI14
aI15
aI17
aI18
aI20
aI60
aI61
aI66
aI67
aI69
aI72
aI73
aI74
aI76
aI79
aI80
aI84
aI139
aI140
aI141
aI142
aI145
aI146
aI147
aI148
aI161
aI165
aI170
aI171
aI172
aI173
aI178
aI179
aI180
aI181
aI182
aI183
aI185
aI186
aI187
asI11
(lp11
I1
aI2
aI4
aI5
aI6
aI9
aI13
aI14
aI15
aI17
aI18
aI20
aI60
aI61
aI66
aI70
aI72
aI73
aI74
aI75
aI76
aI82
aI84
aI139
aI146
aI147
aI148
aI161
aI165
aI182
aI183
asI12
(lp12
I28
aI29
aI30
aI31
aI32
aI33
aI34
aI36
aI37
aI39
asI13
(lp13
I1
aI2
aI4
aI5
aI6
aI9
aI13
aI14
aI15
aI17
aI18
aI20
aI60
aI61
aI66
aI67
aI69
aI72
aI73
aI74
aI76
aI79
aI80
aI84
aI139
aI140
aI141
aI142
aI143
aI144
aI145
aI146
aI147
aI148
aI161
aI165
aI170
aI171
aI172
aI173
aI178
aI181
aI182
aI183
aI185
aI186
aI187
asI14
(lp14
I40
aI41
aI42
aI43
aI45
aI46
aI47
asI15
(lp15
I90
aI91
aI92
aI93
aI98
aI106
asI16
(lp16
I1
aI4
aI5
aI6
aI13
aI14
aI15
aI17
aI18
aI20
aI21
aI49
aI50
aI52
aI54
aI57
aI58
aI59
aI60
aI61
aI62
aI66
aI67
aI146
aI147
aI148
aI149
aI150
aI151
aI161
aI165
aI182
aI183
aI184
asI17
(lp17
I1
aI4
aI5
aI6
aI85
aI86
aI87
aI88
aI89
aI90
aI91
aI92
aI93
aI131
aI132
aI133
aI134
aI135
aI136
aI137
aI138
aI161
aI162
aI163
aI164
aI165
asI18
(lp18
I1
aI4
aI5
aI6
aI7
aI122
aI156
aI157
aI161
aI165
aI176
aI177
aI198
asI19
(lp19
I1
aI2
aI4
aI5
aI6
aI9
aI13
aI14
aI15
aI16
aI17
aI18
aI19
aI20
aI21
aI60
aI61
aI66
aI67
aI68
aI69
aI70
aI71
aI72
aI73
aI74
aI75
aI76
aI78
aI79
aI80
aI81
aI83
aI84
aI139
aI140
aI141
aI142
aI145
aI146
aI147
aI148
aI161
aI165
aI170
aI171
aI172
aI173
aI178
aI181
aI182
aI183
aI184
aI185
aI186
aI187
asI20
(lp20
I1
aI4
aI5
aI6
aI8
aI68
aI69
aI70
aI71
aI73
aI75
aI76
aI77
aI78
aI79
aI80
aI81
aI83
aI84
aI108
aI109
aI115
aI117
aI126
aI127
aI129
aI130
aI161
aI165
aI194
aI195
asI21
(lp21
I1
aI4
aI5
aI6
aI7
aI120
aI156
aI157
aI161
aI165
aI197
asI22
(lp22
I1
aI4
aI5
aI6
aI85
aI86
aI87
aI88
aI89
aI90
aI91
aI92
aI93
aI131
aI132
aI133
aI134
aI135
aI136
aI137
aI138
aI161
aI162
aI163
aI164
aI165
asI23
(lp23
I26
aI28
aI29
aI30
aI36
aI38
asI24
(lp24
I1
aI3
aI4
aI5
aI6
aI8
aI68
aI69
aI70
aI71
aI72
aI73
aI74
aI75
aI76
aI77
aI78
aI79
aI80
aI81
aI83
aI84
aI107
aI108
aI109
aI110
aI111
aI112
aI113
aI114
aI115
aI116
aI117
aI123
aI124
aI125
aI126
aI127
aI128
aI129
aI130
aI161
aI165
aI188
aI189
aI194
aI195
asI25
(lp25
I1
aI4
aI5
aI6
aI10
aI11
aI13
aI14
aI15
aI17
aI18
aI20
aI60
aI64
aI65
aI67
aI68
aI69
aI70
aI72
aI73
aI74
aI75
aI76
aI77
aI78
aI80
aI81
aI83
aI84
aI146
aI147
aI148
aI152
aI158
aI160
aI161
aI165
aI182
aI183
aI184
aI192
aI193
asI26
(lp26
I1
aI4
aI5
aI6
aI7
aI25
aI41
aI42
aI43
aI44
aI45
aI46
aI47
aI153
aI155
aI161
aI165
aI196
aI201
asI27
(lp27
I1
aI4
aI5
aI6
aI13
aI14
aI15
aI17
aI18
aI20
aI23
aI24
aI48
aI49
aI50
aI51
aI52
aI54
aI58
aI60
aI62
aI67
aI146
aI147
aI148
aI149
aI150
aI151
aI161
aI165
aI182
aI183
aI184
asI28
(lp28
I1
aI4
aI5
aI6
aI7
aI121
aI122
aI161
aI165
aI200
asI29
(lp29
I42
aI43
aI44
aI46
aI47
asI30
(lp30
I1
aI4
aI6
aI7
aI197
aI198
aI199
aI200
aI201
asI31
(lp31
I90
aI91
aI92
aI93
aI94
aI95
aI96
aI97
aI99
aI100
aI101
aI102
aI103
aI104
aI105
aI106
aI191
asI32
(lp32
I1
aI4
aI5
aI6
aI7
aI118
aI119
aI153
aI155
aI161
aI165
aI197
asI33
(lp33
I1
aI4
aI5
aI6
aI7
aI121
aI122
aI161
aI165
aI199
asI34
(lp34
I1
aI4
aI5
aI6
aI13
aI14
aI15
aI17
aI18
aI20
aI22
aI49
aI50
aI52
aI54
aI55
aI58
aI60
aI62
aI63
aI67
aI146
aI147
aI148
aI149
aI150
aI151
aI161
aI165
aI182
aI183
aI184
asI35
(lp35
I4
aI5
aI6
aI12
aI13
aI14
aI15
aI17
aI18
aI20
aI60
aI61
aI66
aI67
aI68
aI69
aI70
aI72
aI73
aI74
aI75
aI76
aI77
aI78
aI80
aI81
aI82
aI83
aI84
aI146
aI147
aI148
aI161
aI165
aI166
aI167
aI168
aI169
aI182
aI183
aI184
aI194
aI195
asI36
(lp36
I90
aI91
aI92
aI93
aI98
aI106
aI190
aI191
asI37
(lp37
I1
aI4
aI6
aI7
aI153
aI154
aI165
aI197
aI198
aI199
aI200
aI201
asI38
(lp38
I42
aI43
aI44
aI46
aI47
asI39
(lp39
I1
aI4
aI5
aI6
aI85
aI86
aI87
aI88
aI89
aI90
aI91
aI92
aI93
aI131
aI132
aI133
aI134
aI135
aI136
aI137
aI138
aI161
aI162
aI163
aI164
aI165
asI40
(lp40
I1
aI4
aI5
aI6
aI161
aI165
asI41
(lp41
I1
aI4
aI5
aI6
aI7
aI118
aI119
aI153
aI155
aI161
aI165
aI174
aI175
aI198
asI42
(lp42
I1
aI4
aI5
aI6
aI85
aI86
aI87
aI88
aI89
aI90
aI91
aI92
aI93
aI131
aI132
aI133
aI134
aI135
aI136
aI137
aI138
aI161
aI162
aI163
aI165
asI43
(lp43
I90
aI91
aI92
aI93
aI95
aI96
aI97
aI99
aI100
aI101
aI102
aI103
aI104
aI105
aI106
asI44
(lp44
I42
aI43
aI44
aI46
aI47
asI45
(lp45
I90
aI91
aI92
aI93
aI99
aI100
aI101
aI104
aI105
aI106
aI190
asI46
(lp46
I1
aI4
aI5
aI6
aI7
aI25
aI28
aI29
aI30
aI31
aI32
aI33
aI34
aI36
aI37
aI39
aI156
aI157
aI161
aI165
aI201
asI47
(lp47
I26
aI27
aI29
aI30
aI36
aI38
as.