(dp0
I1
(lp1
I114
aI321
aI323
aI324
asI2
(lp2
I110
aI114
aI302
aI303
aI304
aI305
aI309
aI310
aI311
asI3
(lp3
I0
aI1
aI2
aI3
aI4
aI5
aI6
aI7
aI8
aI9
aI10
aI11
aI12
aI13
aI14
aI15
aI16
aI17
aI18
aI19
aI20
aI21
aI23
aI25
aI26
aI27
aI28
aI29
aI30
aI31
aI32
aI33
aI34
aI35
aI36
aI37
aI38
aI39
aI40
aI41
aI42
aI44
aI45
aI46
aI47
aI48
aI49
aI50
aI51
aI52
aI53
aI55
aI56
asI4
(lp4
I302
aI303
aI304
aI305
aI309
aI310
aI311
asI5
(lp5
I106
asI6
(lp6
I68
aI69
aI70
aI71
aI74
aI75
aI76
aI77
aI78
aI79
aI80
aI81
aI82
aI83
aI84
aI85
aI86
aI87
aI88
aI91
aI92
aI102
aI103
aI104
aI105
aI114
aI129
aI130
aI131
aI136
aI196
aI197
aI199
aI203
aI204
aI205
aI206
aI207
aI331
aI348
asI7
(lp7
I72
aI73
aI74
aI75
aI76
aI86
aI88
aI89
aI91
aI93
aI94
aI102
aI105
aI114
aI115
aI116
aI119
aI130
aI131
aI132
aI133
aI134
aI135
aI138
aI196
aI197
aI198
aI199
aI200
aI201
aI202
aI204
aI206
aI207
aI208
aI237
aI238
aI239
aI241
aI289
aI331
aI336
aI337
aI338
aI339
aI343
aI344
aI345
aI348
asI8
(lp8
I327
asI9
(lp9
I234
asI10
(lp10
I330
asI11
(lp11
I140
aI141
aI146
aI147
aI149
aI150
aI154
aI319
aI321
aI323
aI324
aI329
aI340
aI341
asI12
(lp12
I59
aI60
aI141
aI146
aI147
aI149
aI150
aI154
aI162
aI163
aI291
aI292
aI293
aI295
aI319
aI320
aI329
aI340
aI341
asI13
(lp13
I209
aI210
aI214
aI215
aI216
aI217
aI218
aI219
aI220
aI221
aI222
aI225
aI226
aI227
aI228
aI229
asI14
(lp14
I102
aI105
aI114
aI119
aI130
aI131
aI132
aI133
aI134
aI135
aI138
aI154
aI172
aI173
aI196
aI197
aI198
aI199
aI200
aI204
aI206
aI207
aI237
aI238
aI239
aI240
aI241
aI242
aI243
aI244
aI245
aI247
aI248
aI249
aI250
aI254
aI255
aI258
aI289
aI312
aI313
aI315
aI331
aI336
aI337
aI338
aI339
aI341
aI343
aI344
aI345
aI347
asI15
(lp15
I60
aI128
aI129
aI130
aI132
aI133
aI141
aI146
aI147
aI149
aI150
aI154
aI245
aI249
aI250
aI254
aI255
aI256
aI257
aI258
aI319
aI320
aI329
aI340
aI341
aI347
asI16
(lp16
I62
aI67
aI141
aI146
aI147
aI149
aI150
aI154
aI319
aI320
aI329
aI340
aI341
asI17
(lp17
I326
aI327
aI328
asI18
(lp18
I141
aI142
aI143
aI144
aI147
aI149
aI154
aI319
aI320
aI329
aI340
aI342
asI19
(lp19
I209
aI210
aI211
aI214
aI215
aI216
aI217
aI218
aI219
aI220
aI221
aI222
aI225
aI226
aI227
aI228
aI229
asI20
(lp20
I166
aI167
aI170
aI302
aI303
aI304
aI305
aI306
aI307
aI309
aI310
aI311
asI21
(lp21
I234
aI265
aI269
asI22
(lp22
I263
aI264
aI265
aI268
aI269
aI273
aI274
asI23
(lp23
I60
aI128
aI129
aI130
aI131
aI136
aI141
aI146
aI147
aI149
aI150
aI154
aI246
aI249
aI250
aI251
aI252
aI253
aI254
aI256
aI319
aI320
aI329
aI340
aI341
aI347
asI24
(lp24
I263
aI264
aI265
aI270
aI271
asI25
(lp25
I231
asI26
(lp26
I265
aI266
aI267
aI268
aI269
asI27
(lp27
I141
aI146
aI147
aI149
aI150
aI154
aI299
aI319
aI320
aI329
aI335
aI340
asI28
(lp28
I108
aI110
aI114
aI304
aI305
aI306
aI307
aI311
asI29
(lp29
I230
asI30
(lp30
I147
aI149
aI154
aI319
aI320
aI329
aI340
asI31
(lp31
I302
aI303
aI304
aI305
aI306
aI307
aI309
aI310
aI311
asI32
(lp32
I59
aI60
aI141
aI146
aI147
aI149
aI150
aI154
aI155
aI319
aI320
aI329
aI340
asI33
(lp33
I74
aI76
aI88
aI89
aI90
aI114
aI127
aI130
aI137
aI201
aI202
aI207
aI208
aI289
aI290
aI346
aI348
asI34
(lp34
I0
aI1
aI2
aI3
aI4
aI5
aI6
aI7
aI8
aI9
aI10
aI11
aI12
aI13
aI14
aI15
aI16
aI17
aI18
aI19
aI20
aI21
aI24
aI25
aI26
aI27
aI28
aI29
aI30
aI31
aI32
aI33
aI34
aI35
aI36
aI37
aI38
aI39
aI40
aI41
aI42
aI43
aI44
aI45
aI46
aI47
aI48
aI49
aI50
aI51
aI52
aI53
aI54
aI55
aI56
aI57
asI35
(lp35
I72
aI73
aI74
aI75
aI76
aI86
aI88
aI91
aI93
aI94
aI102
aI105
aI114
aI119
aI130
aI131
aI132
aI133
aI134
aI135
aI138
aI196
aI197
aI198
aI199
aI200
aI201
aI202
aI204
aI206
aI207
aI237
aI239
aI289
aI331
aI348
asI36
(lp36
I111
aI112
asI37
(lp37
I263
aI265
aI273
aI274
asI38
(lp38
I63
aI64
aI141
aI146
aI147
aI149
aI150
aI154
aI260
aI299
aI300
aI301
aI319
aI320
aI329
aI335
aI340
asI39
(lp39
I74
aI75
aI76
aI87
aI89
aI91
aI93
aI94
aI102
aI105
aI114
aI128
aI129
aI130
aI132
aI133
aI196
aI197
aI198
aI199
aI200
aI201
aI202
aI204
aI206
aI207
aI289
aI331
aI348
asI40
(lp40
I114
aI127
aI137
aI201
aI202
aI207
aI208
aI289
aI290
aI346
aI348
asI41
(lp41
I114
aI321
aI322
aI323
aI325
asI42
(lp42
I114
asI43
(lp43
I96
asI44
(lp44
I209
aI210
aI212
aI213
aI214
aI215
aI216
aI217
aI218
aI220
aI221
aI222
aI224
aI225
aI226
aI227
aI228
aI229
aI277
aI278
aI279
aI281
aI282
aI284
asI45
(lp45
I0
aI1
aI2
aI3
aI4
aI5
aI6
aI7
aI8
aI9
aI10
aI11
aI12
aI13
aI14
aI15
aI16
aI17
aI18
aI19
aI20
aI21
aI22
aI25
aI27
aI29
aI30
aI31
aI32
aI33
aI34
aI35
aI36
aI37
aI38
aI39
aI40
aI41
aI42
aI44
aI45
aI46
aI47
aI48
aI49
aI50
aI51
aI52
aI53
aI55
asI46
(lp46
I74
aI75
aI76
aI77
aI80
aI84
aI86
aI87
aI88
aI89
aI91
aI93
aI94
aI102
aI105
aI114
aI124
aI129
aI130
aI131
aI132
aI133
aI136
aI197
aI201
aI202
aI204
aI206
aI207
aI289
aI331
aI348
asI47
(lp47
I102
aI105
aI114
aI129
aI130
aI132
aI133
aI154
aI197
aI201
aI202
aI204
aI206
aI207
aI245
aI249
aI250
aI254
aI256
aI257
aI258
aI289
aI312
aI313
aI315
aI331
aI341
aI347
asI48
(lp48
I58
aI59
aI60
aI65
aI140
aI141
aI146
aI147
aI149
aI150
aI154
aI171
aI319
aI320
aI324
aI329
aI340
aI341
asI49
(lp49
I74
aI75
aI76
aI77
aI80
aI84
aI86
aI87
aI88
aI91
aI102
aI103
aI104
aI105
aI114
aI124
aI128
aI129
aI130
aI131
aI136
aI175
aI176
aI177
aI178
aI181
aI182
aI185
aI188
aI189
aI190
aI191
aI192
aI193
aI194
aI196
aI197
aI198
aI199
aI200
aI201
aI202
aI203
aI204
aI205
aI206
aI207
aI208
aI289
aI331
aI348
asI50
(lp50
I20
aI22
aI44
aI50
asI51
(lp51
I60
aI74
aI75
aI76
aI77
aI80
aI84
aI86
aI87
aI88
aI91
aI128
aI129
aI130
aI131
aI136
aI141
aI146
aI147
aI149
aI150
aI154
aI319
aI320
aI329
aI340
aI341
aI348
asI52
(lp52
I277
aI278
aI279
aI280
aI281
aI282
aI283
aI284
aI285
aI286
aI287
aI288
asI53
(lp53
I265
asI54
(lp54
I302
aI303
aI304
aI305
aI309
aI310
aI311
asI55
(lp55
I59
aI60
aI141
aI146
aI147
aI149
aI150
aI154
aI157
aI158
aI159
aI160
aI161
aI162
aI163
aI291
aI292
aI293
aI295
aI319
aI320
aI329
aI340
aI341
asI56
(lp56
I107
asI57
(lp57
I74
aI75
aI76
aI86
aI87
aI88
aI89
aI91
aI93
aI94
aI102
aI105
aI114
aI115
aI116
aI127
aI128
aI129
aI130
aI131
aI132
aI133
aI134
aI137
aI139
aI196
aI197
aI198
aI199
aI200
aI201
aI202
aI204
aI206
aI207
aI208
aI289
aI290
aI331
aI346
aI348
asI58
(lp58
I59
aI60
aI141
aI146
aI147
aI149
aI150
aI154
aI162
aI163
aI291
aI292
aI319
aI320
aI329
aI340
aI341
asI59
(lp59
I0
aI1
aI2
aI3
aI4
aI5
aI6
aI7
aI8
aI9
aI10
aI11
aI12
aI13
aI14
aI15
aI16
aI17
aI18
aI19
aI20
aI21
aI24
aI25
aI26
aI27
aI28
aI29
aI30
aI31
aI32
aI33
aI34
aI35
aI36
aI37
aI38
aI39
aI40
aI41
aI42
aI44
aI45
aI46
aI47
aI48
aI49
aI50
aI51
aI52
aI53
aI55
aI56
asI60
(lp60
I0
aI1
aI2
aI3
aI5
aI8
aI11
aI13
aI15
aI17
aI18
aI19
aI20
aI21
aI23
aI25
aI26
aI27
aI28
aI29
aI31
aI32
aI35
aI36
aI38
aI40
aI42
aI44
aI45
aI46
aI47
aI48
aI49
aI50
aI51
aI52
aI53
aI55
aI56
asI61
(lp61
I108
aI114
aI302
aI303
aI304
aI305
aI306
aI307
aI309
aI310
aI311
asI62
(lp62
I0
aI2
aI3
aI4
aI5
aI6
aI7
aI8
aI9
aI10
aI11
aI12
aI13
aI14
aI15
aI16
aI17
aI18
aI19
aI20
aI21
aI24
aI25
aI26
aI27
aI28
aI29
aI30
aI31
aI32
aI33
aI34
aI35
aI36
aI37
aI38
aI39
aI40
aI41
aI42
aI44
aI45
aI46
aI47
aI48
aI49
aI50
aI51
aI52
aI53
aI55
aI56
asI63
(lp63
I147
aI149
aI150
aI154
aI319
aI320
aI329
aI340
asI64
(lp64
I166
aI167
aI170
aI302
aI303
aI304
aI305
aI306
aI307
aI309
aI310
aI311
asI65
(lp65
I291
aI292
asI66
(lp66
I209
aI210
aI214
aI215
aI216
aI217
aI218
aI219
aI220
aI221
aI222
aI225
aI226
aI227
aI228
aI229
aI277
aI278
aI279
aI281
aI282
aI284
asI67
(lp67
I97
aI330
asI68
(lp68
I332
aI333
aI334
asI69
(lp69
I102
aI105
aI114
aI127
aI129
aI130
aI131
aI136
aI137
aI154
aI197
aI201
aI202
aI204
aI206
aI207
aI208
aI246
aI249
aI250
aI251
aI252
aI253
aI254
aI255
aI256
aI289
aI290
aI312
aI313
aI315
aI331
aI341
aI346
aI347
asI70
(lp70
I60
aI128
aI129
aI130
aI131
aI136
aI141
aI146
aI147
aI149
aI150
aI154
aI246
aI249
aI250
aI251
aI252
aI253
aI254
aI256
aI319
aI320
aI329
aI340
aI341
aI347
asI72
(lp71
I60
aI128
aI129
aI130
aI131
aI136
aI141
aI146
aI147
aI149
aI150
aI154
aI246
aI249
aI250
aI251
aI252
aI253
aI254
aI255
aI256
aI319
aI320
aI329
aI340
aI341
aI347
asI73
(lp72
I265
aI269
asI74
(lp73
I74
aI75
aI76
aI77
aI84
aI86
aI87
aI88
aI91
aI93
aI94
aI102
aI105
aI114
aI119
aI120
aI121
aI122
aI123
aI124
aI125
aI126
aI129
aI130
aI131
aI132
aI133
aI136
aI195
aI197
aI203
aI204
aI205
aI206
aI289
aI331
aI348
asI75
(lp74
I236
asI76
(lp75
I72
aI73
aI74
aI75
aI76
aI86
aI89
aI91
aI93
aI94
aI102
aI105
aI114
aI119
aI130
aI131
aI132
aI133
aI134
aI135
aI138
aI196
aI197
aI198
aI199
aI200
aI204
aI206
aI237
aI238
aI239
aI241
aI289
aI331
aI336
aI337
aI338
aI339
aI343
aI344
aI345
aI348
asI77
(lp76
I74
aI75
aI76
aI77
aI80
aI84
aI86
aI87
aI88
aI91
aI102
aI103
aI104
aI105
aI114
aI124
aI129
aI130
aI131
aI136
aI177
aI180
aI186
aI194
aI201
aI202
aI203
aI205
aI206
aI207
aI208
aI289
aI331
aI348
asI79
(lp77
I209
aI210
aI214
aI215
aI216
aI217
aI218
aI219
aI220
aI221
aI222
aI225
aI226
aI227
aI228
aI229
asI80
(lp78
I59
aI60
aI141
aI146
aI147
aI149
aI150
aI154
aI162
aI163
aI291
aI292
aI293
aI294
aI295
aI296
aI297
aI298
aI319
aI320
aI329
aI340
aI341
asI81
(lp79
I74
aI75
aI76
aI77
aI80
aI84
aI86
aI87
aI88
aI91
aI102
aI103
aI104
aI105
aI114
aI124
aI128
aI129
aI130
aI131
aI136
aI177
aI178
aI179
aI180
aI183
aI186
aI189
aI190
aI191
aI192
aI193
aI194
aI196
aI197
aI198
aI199
aI200
aI201
aI202
aI203
aI204
aI205
aI206
aI207
aI208
aI289
aI331
aI348
asI82
(lp80
I74
aI75
aI76
aI77
aI80
aI84
aI86
aI87
aI88
aI91
aI102
aI105
aI114
aI124
aI127
aI129
aI130
aI131
aI136
aI137
aI197
aI201
aI202
aI204
aI206
aI207
aI208
aI289
aI290
aI331
aI346
aI348
asI83
(lp81
I74
aI75
aI76
aI77
aI80
aI84
aI86
aI87
aI88
aI91
aI102
aI103
aI104
aI105
aI114
aI124
aI128
aI129
aI130
aI131
aI136
aI174
aI177
aI179
aI181
aI184
aI187
aI190
aI191
aI192
aI194
aI196
aI197
aI198
aI199
aI200
aI201
aI202
aI203
aI204
aI205
aI206
aI207
aI208
aI289
aI331
aI348
asI84
(lp82
I277
aI278
aI279
aI280
aI281
aI282
aI283
aI284
aI285
aI286
aI287
aI288
asI85
(lp83
I0
aI1
aI2
aI3
aI4
aI5
aI6
aI7
aI8
aI9
aI10
aI11
aI12
aI13
aI14
aI15
aI16
aI17
aI18
aI19
aI20
aI21
aI24
aI25
aI26
aI27
aI28
aI29
aI30
aI31
aI32
aI33
aI34
aI35
aI36
aI37
aI38
aI39
aI40
aI41
aI42
aI43
aI44
aI45
aI46
aI47
aI48
aI49
aI50
aI51
aI52
aI53
aI54
aI55
aI56
aI57
asI86
(lp84
I113
asI87
(lp85
I109
aI114
aI302
aI303
aI308
aI309
aI311
asI88
(lp86
I60
aI74
aI75
aI76
aI77
aI80
aI84
aI86
aI87
aI88
aI91
aI128
aI129
aI130
aI131
aI136
aI141
aI146
aI147
aI149
aI150
aI154
aI319
aI320
aI329
aI340
aI341
aI348
asI89
(lp87
I58
aI59
aI60
aI65
aI67
aI141
aI146
aI147
aI149
aI150
aI154
aI319
aI320
aI329
aI340
aI341
asI90
(lp88
I74
aI75
aI76
aI86
aI88
aI91
aI114
aI115
aI116
aI117
aI118
aI130
aI131
aI132
aI203
aI205
aI206
aI208
aI348
asI91
(lp89
I209
aI210
aI212
aI213
aI214
aI215
aI216
aI217
aI218
aI219
aI220
aI221
aI222
aI223
aI224
aI225
aI226
aI227
aI228
aI229
aI277
aI278
aI279
aI281
aI282
aI284
asI92
(lp90
I263
aI264
aI265
aI272
aI273
aI274
asI93
(lp91
I265
aI268
aI269
asI94
(lp92
I305
aI307
aI310
aI311
asI95
(lp93
I59
aI60
aI141
aI146
aI147
aI149
aI150
aI154
aI155
aI164
aI165
aI169
aI302
aI303
aI308
aI309
aI311
aI319
aI320
aI329
aI340
asI96
(lp94
I265
aI268
aI269
asI97
(lp95
I147
aI148
aI149
aI154
aI319
aI329
aI340
asI98
(lp96
I60
aI141
aI146
aI147
aI149
aI150
aI153
aI154
aI155
aI319
aI320
aI329
aI340
aI341
asI99
(lp97
I263
aI264
aI265
aI273
aI274
asI100
(lp98
I232
asI101
(lp99
I265
aI269
asI102
(lp100
I114
aI321
aI323
aI324
asI103
(lp101
I59
aI60
aI141
aI146
aI147
aI149
aI150
aI154
aI156
aI319
aI320
aI329
aI340
asI104
(lp102
I95
aI98
aI99
aI100
aI101
aI102
aI103
aI104
aI105
asI105
(lp103
I114
aI321
aI323
aI324
asI106
(lp104
I291
aI292
aI293
aI295
asI107
(lp105
I61
aI62
aI65
aI67
aI141
aI146
aI147
aI149
aI150
aI154
aI319
aI320
aI329
aI340
aI341
asI108
(lp106
I141
aI142
aI145
aI147
aI149
aI150
aI154
aI319
aI320
aI329
aI340
aI341
asI109
(lp107
I58
aI59
aI60
aI65
aI67
aI141
aI146
aI147
aI149
aI150
aI154
aI319
aI320
aI329
aI340
aI341
asI110
(lp108
I0
aI1
aI2
aI3
aI4
aI5
aI6
aI7
aI8
aI9
aI10
aI11
aI12
aI13
aI14
aI15
aI16
aI17
aI18
aI19
aI20
aI21
aI23
aI25
aI26
aI27
aI28
aI29
aI30
aI31
aI32
aI33
aI34
aI35
aI36
aI37
aI38
aI39
aI40
aI41
aI42
aI43
aI44
aI45
aI46
aI47
aI48
aI49
aI50
aI51
aI52
aI53
aI54
aI55
aI56
aI57
asI111
(lp109
I264
aI265
aI273
aI274
asI112
(lp110
I58
aI59
aI60
aI65
aI66
aI141
aI146
aI147
aI149
aI150
aI154
aI319
aI320
aI329
aI340
aI341
asI113
(lp111
I209
aI214
aI220
aI226
aI227
aI228
aI229
aI277
aI278
aI279
aI282
aI283
aI284
asI114
(lp112
I108
aI114
aI302
aI303
aI304
aI305
aI306
aI307
aI309
aI310
aI311
asI115
(lp113
I62
aI67
aI141
aI146
aI147
aI149
aI150
aI154
aI319
aI320
aI329
aI340
aI341
asI116
(lp114
I209
aI210
aI212
aI213
aI214
aI216
aI217
aI218
aI220
aI221
aI222
aI224
aI225
aI226
aI227
aI228
aI229
aI277
aI278
aI279
aI281
aI282
aI284
asI117
(lp115
I235
asI118
(lp116
I263
aI264
aI265
aI275
aI276
asI119
(lp117
I59
aI60
aI141
aI146
aI147
aI149
aI150
aI154
aI260
aI319
aI320
aI329
aI340
asI120
(lp118
I114
aI321
aI322
aI325
asI121
(lp119
I108
aI110
aI114
aI302
aI304
aI305
aI306
aI307
asI122
(lp120
I233
asI123
(lp121
I59
aI60
aI141
aI146
aI147
aI149
aI150
aI154
aI262
aI319
aI320
aI329
aI340
aI341
asI124
(lp122
I141
aI142
aI143
aI144
aI147
aI149
aI154
aI319
aI320
aI329
aI340
aI342
asI125
(lp123
I147
aI148
aI149
aI154
aI319
aI329
aI340
asI126
(lp124
I214
aI218
aI220
aI222
aI227
aI228
aI229
aI277
aI278
aI279
aI280
aI281
aI282
aI283
aI284
asI127
(lp125
I102
aI105
aI114
aI119
aI130
aI131
aI132
aI133
aI134
aI135
aI138
aI154
aI172
aI173
aI196
aI197
aI198
aI199
aI200
aI204
aI206
aI207
aI237
aI238
aI239
aI241
aI242
aI243
aI244
aI245
aI247
aI248
aI249
aI250
aI254
aI258
aI289
aI312
aI313
aI315
aI331
aI336
aI337
aI338
aI339
aI341
aI343
aI344
aI345
aI347
asI128
(lp126
I59
aI60
aI141
aI146
aI147
aI149
aI150
aI154
aI155
aI261
aI319
aI320
aI329
aI340
aI341
asI129
(lp127
I141
aI142
aI145
aI147
aI149
aI154
aI319
aI320
aI329
aI340
aI342
asI130
(lp128
I59
aI60
aI141
aI146
aI147
aI149
aI150
aI154
aI155
aI164
aI165
aI168
aI302
aI303
aI304
aI305
aI306
aI307
aI309
aI310
aI311
aI319
aI320
aI329
aI340
asI131
(lp129
I326
as.