(dp0
I1
(lp1
I2
aI8
aI9
aI10
aI20
aI21
aI26
aI27
aI28
aI29
aI30
aI32
aI35
aI36
aI37
aI39
aI40
aI41
aI42
aI43
aI44
aI45
aI46
aI47
aI48
aI49
aI50
aI51
aI52
aI53
aI54
aI55
aI56
aI57
aI58
aI59
aI60
aI61
aI64
aI65
aI66
aI67
aI287
aI288
aI289
aI290
aI291
aI292
aI293
aI294
aI296
aI297
aI365
aI366
aI368
aI369
aI370
aI519
asI2
(lp2
I2
aI8
aI9
aI10
aI13
aI16
aI20
aI21
aI23
aI25
aI26
aI27
aI28
aI29
aI30
aI31
aI32
aI37
aI57
aI90
aI91
aI92
aI93
aI94
aI95
aI96
aI97
aI98
aI99
aI100
aI101
aI102
aI103
aI104
aI105
aI106
aI107
aI108
aI109
aI110
aI111
aI112
aI113
aI114
aI115
aI116
aI117
aI118
aI119
aI120
aI121
aI122
aI123
aI124
aI125
aI126
aI127
aI128
aI129
aI131
aI132
aI133
aI134
aI135
aI136
aI137
aI138
aI139
aI140
aI141
aI142
aI143
aI144
aI145
aI146
aI147
aI148
aI149
aI150
aI151
aI152
aI153
aI154
aI156
aI157
aI158
aI159
aI160
aI161
aI162
aI163
aI164
aI165
aI166
aI167
aI168
aI169
aI170
aI171
aI172
aI173
aI174
aI175
aI176
aI177
aI178
aI179
aI180
aI181
aI182
aI183
aI184
aI185
aI186
aI187
aI188
aI189
aI190
aI191
aI253
aI254
aI255
asI3
(lp3
I26
aI30
aI73
aI196
aI221
aI223
aI247
asI4
(lp4
I2
aI4
aI8
aI21
aI26
aI28
aI30
aI32
aI37
aI66
aI90
aI93
aI94
aI98
aI100
aI103
aI108
aI110
aI111
aI112
aI113
aI115
aI117
aI118
aI119
aI122
aI134
aI135
aI138
aI139
aI140
aI141
aI142
aI144
aI156
aI157
aI158
aI159
aI160
aI162
aI165
aI168
aI177
aI178
aI181
aI188
aI189
aI231
aI233
aI234
aI235
aI236
aI237
aI238
aI239
aI240
aI241
aI242
aI243
aI244
aI358
aI359
aI360
aI361
aI362
asI5
(lp5
I1
aI2
aI3
aI6
aI7
aI8
aI9
aI10
aI12
aI13
aI15
aI16
aI17
aI18
aI19
aI20
aI21
aI22
aI25
aI26
aI27
aI28
aI29
aI30
aI31
aI32
aI71
aI75
aI157
aI165
aI256
aI257
aI258
aI259
aI260
aI261
aI262
aI263
aI264
aI265
aI266
aI267
aI268
aI269
aI270
aI271
aI272
asI6
(lp6
I21
aI26
aI30
aI72
aI73
aI74
aI80
aI249
aI250
aI251
aI252
asI7
(lp7
I21
aI26
aI28
aI30
aI32
asI8
(lp8
I2
aI4
aI8
aI9
aI10
aI11
aI20
aI21
aI26
aI27
aI28
aI29
aI30
aI32
aI37
aI66
aI90
aI93
aI94
aI98
aI100
aI103
aI108
aI110
aI111
aI112
aI113
aI115
aI117
aI118
aI119
aI122
aI134
aI135
aI138
aI139
aI140
aI141
aI142
aI144
aI156
aI157
aI158
aI159
aI160
aI162
aI165
aI168
aI177
aI178
aI181
aI188
aI189
aI231
aI232
aI233
aI234
aI235
aI236
aI237
aI238
aI239
aI240
aI241
aI242
aI243
aI244
aI322
aI323
asI9
(lp9
I21
aI26
aI28
aI30
aI32
aI72
aI73
aI74
aI80
aI90
aI94
aI100
aI103
aI134
aI135
aI138
aI142
aI158
aI159
aI160
aI168
aI177
aI188
aI326
aI327
aI335
aI336
aI538
aI539
aI540
aI541
aI542
aI543
aI544
aI545
aI546
aI547
aI548
aI549
aI550
aI551
aI552
aI553
aI554
aI555
aI556
aI557
aI558
aI559
asI10
(lp10
I21
aI26
aI28
aI30
aI32
aI97
aI114
aI145
aI161
aI176
aI246
aI299
aI301
aI420
aI423
aI560
aI561
asI11
(lp11
I26
aI30
aI72
aI74
aI196
aI217
aI218
aI221
aI223
aI341
asI12
(lp12
I2
aI4
aI8
aI21
aI26
aI28
aI30
aI32
aI37
aI66
aI90
aI93
aI94
aI98
aI100
aI103
aI108
aI110
aI111
aI112
aI113
aI115
aI117
aI118
aI119
aI122
aI134
aI135
aI138
aI139
aI140
aI141
aI142
aI144
aI156
aI157
aI158
aI159
aI160
aI162
aI165
aI168
aI177
aI178
aI181
aI188
aI189
aI231
aI232
aI233
aI234
aI235
aI236
aI237
aI238
aI239
aI240
aI241
aI242
aI243
aI244
asI13
(lp13
I21
aI26
aI28
aI30
aI32
aI33
aI34
asI14
(lp14
I219
aI220
aI222
asI15
(lp15
I21
aI26
aI28
aI30
aI32
aI33
aI34
aI68
aI69
aI70
aI71
aI72
aI73
aI74
aI75
aI76
aI77
aI78
aI79
aI80
aI81
aI82
aI83
aI84
aI85
aI86
aI87
aI88
aI89
asI16
(lp16
I304
aI305
aI306
aI307
aI310
aI316
aI317
aI524
aI525
aI526
asI17
(lp17
I21
aI26
aI28
aI30
aI32
aI72
aI73
aI74
aI80
aI197
aI198
aI199
aI201
aI203
aI204
aI205
aI206
aI207
aI209
aI211
aI212
aI213
aI215
aI216
aI277
aI278
aI279
aI280
asI18
(lp18
I114
aI129
aI286
aI363
aI364
asI19
(lp19
I21
aI26
aI30
aI72
aI73
aI74
aI80
aI343
aI344
aI345
aI346
aI347
aI348
aI349
aI350
aI351
asI20
(lp20
I26
aI30
aI32
aI192
aI193
aI195
aI196
aI324
asI21
(lp21
I26
aI30
aI73
aI196
aI221
aI223
aI247
aI248
asI22
(lp22
I2
aI8
aI9
aI10
aI20
aI21
aI26
aI27
aI28
aI29
aI30
aI32
aI35
aI36
aI37
aI38
aI39
aI40
aI41
aI42
aI43
aI44
aI45
aI46
aI47
aI48
aI49
aI50
aI51
aI52
aI53
aI54
aI55
aI56
aI57
aI58
aI59
aI60
aI61
aI63
aI64
aI65
aI66
aI67
aI90
aI94
aI98
aI103
aI108
aI110
aI111
aI112
aI119
aI134
aI135
aI138
aI139
aI140
aI141
aI142
aI156
aI157
aI159
aI160
aI162
aI165
aI168
aI177
aI178
aI181
aI188
aI239
aI287
aI288
aI289
aI290
aI291
aI292
aI293
aI294
aI295
aI296
aI297
aI298
asI23
(lp23
I26
aI30
aI32
aI97
aI114
aI145
aI161
aI176
aI192
aI193
aI195
aI196
aI300
aI562
asI24
(lp24
I2
aI8
aI9
aI10
aI13
aI16
aI20
aI21
aI23
aI25
aI26
aI27
aI28
aI29
aI30
aI31
aI32
aI37
aI57
aI90
aI91
aI92
aI93
aI94
aI95
aI96
aI97
aI98
aI99
aI100
aI101
aI102
aI103
aI104
aI105
aI106
aI107
aI108
aI109
aI110
aI111
aI112
aI113
aI114
aI115
aI116
aI117
aI118
aI119
aI120
aI121
aI122
aI124
aI125
aI126
aI127
aI128
aI129
aI132
aI133
aI134
aI135
aI136
aI137
aI138
aI139
aI140
aI141
aI142
aI144
aI145
aI147
aI148
aI149
aI150
aI151
aI152
aI153
aI154
aI156
aI157
aI158
aI159
aI160
aI161
aI162
aI163
aI164
aI165
aI166
aI167
aI168
aI169
aI170
aI171
aI172
aI173
aI174
aI176
aI177
aI178
aI179
aI180
aI181
aI182
aI183
aI184
aI185
aI186
aI187
aI188
aI189
aI190
aI191
aI391
aI392
aI393
aI394
aI395
aI396
aI397
aI398
asI25
(lp25
I30
aI72
aI196
aI251
aI252
aI523
asI26
(lp26
I21
aI26
aI30
aI72
aI73
aI74
aI80
aI249
aI250
aI251
aI252
asI27
(lp27
I21
aI26
aI28
aI30
aI32
aI33
aI34
aI71
aI72
aI73
aI74
aI75
aI77
aI78
aI80
aI343
aI344
aI350
aI371
aI372
aI373
aI374
aI375
aI376
asI28
(lp28
I2
aI8
aI21
aI26
aI28
aI30
aI32
aI37
aI66
aI67
aI244
aI352
aI353
asI29
(lp29
I26
aI30
aI73
aI196
aI221
aI223
aI247
aI377
asI30
(lp30
I21
aI26
aI28
aI30
aI32
aI90
aI94
aI100
aI103
aI134
aI135
aI138
aI142
aI158
aI159
aI160
aI168
aI177
aI188
asI31
(lp31
I2
aI8
aI9
aI10
aI20
aI21
aI26
aI27
aI28
aI29
aI30
aI32
aI35
aI36
aI37
aI39
aI40
aI41
aI42
aI43
aI44
aI46
aI47
aI48
aI49
aI50
aI51
aI52
aI53
aI54
aI57
aI58
aI59
aI60
aI61
aI63
aI64
aI65
aI66
aI67
aI90
aI94
aI98
aI103
aI108
aI110
aI111
aI112
aI119
aI134
aI135
aI138
aI139
aI140
aI141
aI142
aI156
aI157
aI159
aI160
aI162
aI165
aI168
aI177
aI178
aI181
aI188
aI239
aI287
aI288
aI289
aI290
aI291
aI292
aI293
aI294
aI295
aI296
aI297
aI298
aI443
aI444
aI445
aI447
aI520
aI521
aI522
asI32
(lp32
I26
aI30
aI73
aI196
aI221
aI223
aI247
aI283
asI33
(lp33
I21
aI26
aI28
aI30
aI32
aI90
aI94
aI100
aI103
aI134
aI135
aI138
aI142
aI158
aI159
aI160
aI168
aI177
aI188
asI34
(lp34
I21
aI26
aI28
aI30
aI32
aI72
aI73
aI74
aI80
aI197
aI198
aI199
aI200
aI201
aI202
aI203
aI204
aI205
aI206
aI207
aI208
aI209
aI211
aI212
aI213
aI215
aI216
aI277
aI279
aI354
aI355
asI35
(lp35
I21
aI26
aI30
aI72
aI73
aI74
aI80
aI249
aI250
aI251
aI252
asI36
(lp36
I21
aI26
aI28
aI30
aI32
aI467
aI469
aI470
aI473
aI475
aI479
aI480
aI483
asI37
(lp37
I21
aI26
aI28
aI30
aI32
aI36
aI41
aI59
aI65
aI448
aI449
aI450
aI451
aI452
aI453
aI454
aI455
aI456
aI457
aI458
aI459
aI460
aI461
aI462
aI463
aI464
aI465
aI466
aI467
aI468
aI469
aI470
aI471
aI472
aI473
aI474
aI475
aI476
aI477
aI478
aI479
aI480
aI481
aI482
aI483
asI38
(lp38
I282
aI318
aI319
aI320
aI321
asI39
(lp39
I2
aI4
aI8
aI21
aI26
aI28
aI30
aI32
aI37
aI90
aI93
aI94
aI98
aI99
aI102
aI103
aI108
aI109
aI110
aI111
aI112
aI113
aI115
aI116
aI117
aI118
aI119
aI122
aI135
aI138
aI139
aI140
aI141
aI142
aI144
aI154
aI156
aI157
aI159
aI160
aI162
aI165
aI168
aI170
aI177
aI178
aI180
aI181
aI187
aI188
aI189
aI239
asI40
(lp40
I21
aI26
aI28
aI30
aI32
aI33
aI34
aI378
aI379
aI380
aI381
aI382
aI383
aI384
aI385
aI386
aI387
aI388
aI389
aI390
asI41
(lp41
I282
aI319
aI320
aI494
aI495
aI496
aI497
aI498
aI499
aI500
aI501
aI502
aI503
aI504
aI505
aI506
aI507
aI508
aI509
aI510
aI511
aI512
aI513
aI514
aI515
aI516
aI517
asI42
(lp42
I0
aI1
aI2
aI3
aI4
aI5
aI6
aI7
aI8
aI9
aI10
aI11
aI12
aI13
aI14
aI15
aI16
aI17
aI18
aI19
aI20
aI21
aI22
aI23
aI24
aI25
aI26
aI27
aI28
aI29
aI30
aI31
aI32
asI43
(lp43
I26
aI30
aI32
aI192
aI193
aI195
aI196
aI518
asI44
(lp44
I30
aI72
aI196
aI251
aI252
aI523
asI45
(lp45
I21
aI26
aI28
aI30
aI32
aI34
aI72
aI73
aI74
aI77
aI80
aI403
aI404
aI405
aI406
aI407
aI408
aI409
aI410
aI411
asI46
(lp46
I281
aI282
asI47
(lp47
I26
aI30
aI32
aI192
aI193
aI195
aI196
aI284
asI48
(lp48
I2
aI8
aI9
aI10
aI13
aI16
aI20
aI21
aI23
aI25
aI26
aI27
aI28
aI29
aI30
aI31
aI32
aI37
aI57
aI90
aI91
aI92
aI93
aI94
aI95
aI96
aI97
aI98
aI99
aI100
aI101
aI102
aI103
aI104
aI105
aI106
aI107
aI108
aI109
aI110
aI111
aI112
aI113
aI114
aI115
aI116
aI117
aI118
aI119
aI120
aI121
aI122
aI123
aI124
aI125
aI126
aI127
aI128
aI129
aI130
aI131
aI132
aI133
aI134
aI135
aI136
aI137
aI138
aI139
aI140
aI141
aI142
aI143
aI144
aI145
aI146
aI147
aI148
aI149
aI150
aI151
aI152
aI153
aI154
aI155
aI156
aI157
aI158
aI159
aI160
aI161
aI162
aI163
aI164
aI165
aI166
aI167
aI168
aI169
aI170
aI171
aI172
aI173
aI174
aI175
aI176
aI177
aI178
aI179
aI180
aI181
aI182
aI183
aI184
aI185
aI186
aI187
aI188
aI189
aI190
aI191
asI49
(lp49
I2
aI8
aI9
aI10
aI13
aI16
aI20
aI21
aI23
aI25
aI26
aI27
aI28
aI29
aI30
aI31
aI32
aI37
aI57
aI90
aI91
aI92
aI93
aI94
aI95
aI96
aI97
aI98
aI99
aI100
aI101
aI102
aI103
aI104
aI105
aI106
aI107
aI108
aI109
aI110
aI111
aI112
aI113
aI114
aI115
aI116
aI117
aI118
aI119
aI120
aI121
aI122
aI124
aI125
aI126
aI127
aI128
aI129
aI132
aI133
aI134
aI135
aI136
aI137
aI138
aI139
aI140
aI141
aI142
aI144
aI145
aI147
aI148
aI149
aI150
aI151
aI152
aI153
aI154
aI155
aI156
aI157
aI158
aI159
aI160
aI161
aI162
aI163
aI164
aI165
aI166
aI167
aI168
aI169
aI170
aI171
aI172
aI173
aI174
aI176
aI177
aI178
aI179
aI180
aI181
aI182
aI183
aI184
aI185
aI186
aI187
aI188
aI189
aI190
aI191
aI254
aI400
aI402
aI527
asI50
(lp50
I97
aI104
aI114
aI128
aI129
aI132
aI145
aI161
aI176
aI285
aI286
asI51
(lp51
I21
aI26
aI28
aI30
aI32
aI33
aI34
aI71
aI72
aI73
aI74
aI75
aI77
aI78
aI80
aI343
aI344
aI350
aI371
aI372
aI373
aI374
aI375
aI376
asI52
(lp52
I21
aI26
aI28
aI30
aI32
aI70
aI72
aI73
aI74
aI80
aI82
aI89
aI225
aI226
aI227
aI228
aI229
aI230
asI53
(lp53
I2
aI8
aI102
aI154
aI165
aI170
aI239
asI54
(lp54
I2
aI8
aI9
aI10
aI20
aI21
aI26
aI27
aI28
aI29
aI30
aI32
aI35
aI36
aI37
aI38
aI39
aI40
aI41
aI42
aI43
aI44
aI45
aI46
aI47
aI48
aI49
aI50
aI51
aI52
aI53
aI54
aI55
aI56
aI57
aI58
aI59
aI60
aI61
aI62
aI63
aI64
aI65
aI66
aI67
asI55
(lp55
I2
aI8
aI9
aI10
aI13
aI16
aI20
aI21
aI23
aI25
aI26
aI27
aI28
aI29
aI30
aI31
aI32
aI37
aI57
aI90
aI91
aI92
aI93
aI94
aI95
aI96
aI97
aI98
aI99
aI100
aI101
aI102
aI103
aI104
aI105
aI106
aI107
aI108
aI109
aI110
aI111
aI112
aI113
aI114
aI115
aI116
aI117
aI118
aI119
aI120
aI121
aI122
aI124
aI125
aI126
aI127
aI128
aI129
aI132
aI133
aI134
aI135
aI136
aI137
aI138
aI139
aI140
aI141
aI142
aI144
aI145
aI147
aI148
aI149
aI150
aI151
aI152
aI153
aI154
aI156
aI157
aI158
aI159
aI160
aI161
aI162
aI163
aI164
aI165
aI166
aI167
aI168
aI169
aI170
aI171
aI172
aI173
aI174
aI176
aI177
aI178
aI179
aI180
aI181
aI182
aI183
aI184
aI185
aI186
aI187
aI188
aI189
aI190
aI191
aI400
aI402
asI56
(lp56
I21
aI26
aI28
aI30
aI32
aI36
aI41
aI59
aI65
aI448
aI449
aI450
aI451
aI452
aI453
aI454
aI455
aI456
aI457
aI458
aI459
aI460
aI461
aI462
aI463
aI464
aI465
aI466
aI467
aI468
aI469
aI470
aI471
aI472
aI473
aI474
aI475
aI476
aI477
aI478
aI479
aI480
aI481
aI482
aI483
asI57
(lp57
I26
aI30
aI32
aI192
aI193
aI194
aI195
aI196
asI58
(lp58
I21
aI26
aI28
aI30
aI32
aI90
aI94
aI100
aI103
aI134
aI135
aI138
aI142
aI158
aI159
aI160
aI168
aI177
aI188
asI59
(lp59
I21
aI26
aI28
aI30
aI32
aI97
aI114
aI145
aI152
aI161
aI172
aI176
aI299
aI300
aI301
aI302
aI303
asI60
(lp60
I26
aI30
aI72
aI74
aI196
aI217
aI218
aI221
aI223
asI61
(lp61
I21
aI26
aI30
aI72
aI73
aI74
aI80
aI492
aI493
asI62
(lp62
I219
aI220
aI222
asI63
(lp63
I21
aI26
aI28
aI30
aI32
aI33
aI34
aI71
aI72
aI73
aI74
aI75
aI77
aI78
aI80
aI343
aI344
aI350
aI371
aI372
aI373
aI374
aI375
aI376
asI64
(lp64
I26
aI30
aI32
aI97
aI114
aI145
aI161
aI176
aI192
aI193
aI195
aI196
aI245
aI246
asI65
(lp65
I528
asI66
(lp66
I21
aI26
aI28
aI30
aI32
aI33
aI34
aI378
aI379
aI380
aI382
aI383
aI384
aI386
aI387
aI388
aI389
aI390
asI67
(lp67
I21
aI26
aI28
aI30
aI32
aI72
aI73
aI74
aI80
aI197
aI198
aI199
aI200
aI201
aI202
aI203
aI204
aI205
aI206
aI207
aI208
aI209
aI210
aI211
aI212
aI213
aI214
aI215
aI216
asI68
(lp68
I21
aI26
aI28
aI30
aI32
aI71
aI75
aI90
aI94
aI100
aI103
aI134
aI135
aI138
aI142
aI158
aI159
aI160
aI168
aI177
aI188
asI69
(lp69
I26
aI30
aI32
aI192
aI193
aI195
aI196
asI70
(lp70
I21
aI26
aI28
aI30
aI32
aI33
aI34
aI68
aI69
aI70
aI71
aI72
aI73
aI74
aI75
aI76
aI77
aI78
aI79
aI80
aI81
aI82
aI83
aI84
aI85
aI86
aI87
aI88
aI89
asI71
(lp71
I21
aI26
aI28
aI30
aI32
aI33
aI34
aI68
aI69
aI70
aI71
aI72
aI73
aI74
aI75
aI76
aI77
aI78
aI79
aI80
aI81
aI82
aI83
aI84
aI85
aI86
aI87
aI88
aI89
asI72
(lp72
I21
aI26
aI28
aI30
aI32
aI90
aI94
aI97
aI100
aI103
aI104
aI114
aI128
aI129
aI132
aI134
aI135
aI138
aI142
aI145
aI158
aI159
aI160
aI161
aI168
aI176
aI177
aI188
aI412
aI413
aI414
aI415
aI416
aI417
aI418
aI419
aI420
aI421
aI422
aI423
aI424
aI425
aI426
aI427
aI428
aI429
aI430
aI431
aI432
aI433
aI434
aI435
aI436
aI437
aI438
aI439
aI440
aI441
aI442
asI73
(lp73
I21
aI26
aI28
aI30
aI32
aI72
aI73
aI74
aI80
aI197
aI198
aI199
aI200
aI201
aI203
aI204
aI205
aI206
aI207
aI209
aI211
aI212
aI213
aI215
aI216
aI273
aI274
aI275
aI276
asI74
(lp74
I26
aI30
aI72
aI74
aI196
aI217
aI218
aI221
aI223
aI248
asI75
(lp75
I217
aI218
aI219
aI220
aI221
aI222
aI223
aI224
asI76
(lp76
I30
aI72
aI196
aI251
aI252
aI523
asI77
(lp77
I2
aI4
aI8
aI21
aI26
aI28
aI30
aI32
aI37
aI90
aI93
aI94
aI98
aI99
aI102
aI103
aI108
aI109
aI110
aI111
aI112
aI113
aI115
aI116
aI117
aI118
aI119
aI122
aI135
aI138
aI139
aI140
aI141
aI142
aI144
aI154
aI156
aI157
aI159
aI160
aI162
aI165
aI168
aI170
aI177
aI178
aI180
aI181
aI187
aI188
aI189
aI239
asI78
(lp78
I2
aI8
aI9
aI10
aI13
aI16
aI20
aI21
aI23
aI25
aI26
aI27
aI28
aI29
aI30
aI31
aI32
aI37
aI57
aI90
aI91
aI92
aI93
aI94
aI95
aI96
aI97
aI98
aI99
aI100
aI101
aI102
aI103
aI104
aI105
aI106
aI107
aI108
aI109
aI110
aI111
aI112
aI113
aI114
aI115
aI116
aI117
aI118
aI119
aI120
aI121
aI122
aI124
aI125
aI126
aI127
aI128
aI129
aI132
aI133
aI134
aI135
aI136
aI137
aI138
aI139
aI140
aI141
aI142
aI144
aI145
aI147
aI148
aI149
aI150
aI151
aI152
aI153
aI154
aI156
aI157
aI158
aI159
aI160
aI161
aI162
aI163
aI164
aI165
aI166
aI167
aI168
aI169
aI170
aI171
aI172
aI173
aI174
aI176
aI177
aI178
aI179
aI180
aI181
aI182
aI183
aI184
aI185
aI186
aI187
aI188
aI189
aI190
aI191
aI391
aI392
aI393
aI395
aI397
aI490
aI491
asI79
(lp79
I26
aI30
aI72
aI74
aI196
aI217
aI218
aI221
aI223
aI377
asI80
(lp80
I2
aI8
aI9
aI10
aI20
aI21
aI26
aI27
aI28
aI29
aI30
aI32
aI35
aI36
aI37
aI39
aI41
aI42
aI44
aI48
aI49
aI50
aI52
aI53
aI54
aI57
aI59
aI61
aI64
aI65
aI66
aI67
asI81
(lp81
I217
aI218
aI219
aI220
aI221
aI222
aI223
aI399
asI82
(lp82
I36
aI41
aI59
aI61
aI65
aI449
aI451
aI463
aI464
aI477
aI529
aI530
aI531
aI532
aI533
aI534
aI535
aI536
aI537
asI83
(lp83
I21
aI26
aI28
aI30
aI32
aI36
aI41
aI59
aI61
aI65
aI448
aI449
aI451
aI453
aI454
aI455
aI457
aI458
aI459
aI460
aI461
aI463
aI464
aI467
aI468
aI469
aI470
aI471
aI473
aI474
aI475
aI476
aI477
aI478
aI479
aI480
aI481
aI482
aI483
aI484
aI485
aI486
aI487
aI488
aI489
asI84
(lp84
I21
aI26
aI30
aI70
aI72
aI73
aI74
aI80
aI86
aI225
aI226
aI227
aI228
aI229
aI230
asI85
(lp85
I0
aI1
aI2
aI3
aI5
aI6
aI7
aI8
aI9
aI10
aI12
aI13
aI14
aI15
aI16
aI17
aI18
aI19
aI20
aI21
aI22
aI25
aI26
aI27
aI28
aI29
aI30
aI31
aI32
aI71
aI75
aI147
aI157
aI165
aI256
aI257
aI258
aI259
aI260
aI261
aI262
aI263
aI264
aI265
aI266
aI267
aI268
aI269
aI270
aI271
aI272
asI86
(lp86
I30
aI72
aI192
aI193
aI195
aI196
aI203
aI211
aI213
aI340
asI87
(lp87
I26
aI30
aI72
aI74
aI196
aI217
aI218
aI221
aI223
asI88
(lp88
I26
aI30
aI73
aI196
aI221
aI223
aI247
aI341
asI89
(lp89
I325
aI326
aI327
aI328
aI329
aI330
aI331
aI332
aI333
aI334
aI335
aI336
aI337
aI338
aI339
asI90
(lp90
I342
asI91
(lp91
I2
aI8
aI9
aI10
aI20
aI21
aI26
aI27
aI28
aI29
aI30
aI32
aI35
aI36
aI37
aI39
aI40
aI41
aI42
aI43
aI44
aI46
aI47
aI48
aI49
aI50
aI52
aI53
aI54
aI55
aI57
aI59
aI60
aI61
aI64
aI65
aI66
aI67
aI356
aI357
aI443
aI444
aI445
aI446
aI447
asI92
(lp92
I2
aI4
aI8
aI9
aI10
aI13
aI16
aI20
aI21
aI23
aI25
aI26
aI27
aI28
aI29
aI30
aI31
aI32
aI37
aI57
aI90
aI91
aI92
aI93
aI94
aI95
aI96
aI97
aI98
aI99
aI100
aI101
aI102
aI103
aI104
aI105
aI106
aI107
aI108
aI109
aI110
aI111
aI112
aI113
aI114
aI115
aI116
aI117
aI118
aI119
aI120
aI121
aI122
aI124
aI125
aI126
aI127
aI128
aI129
aI132
aI133
aI134
aI135
aI136
aI137
aI138
aI139
aI140
aI141
aI142
aI144
aI145
aI147
aI148
aI149
aI150
aI151
aI152
aI153
aI154
aI156
aI157
aI158
aI159
aI160
aI161
aI162
aI163
aI164
aI165
aI166
aI167
aI168
aI169
aI170
aI171
aI172
aI173
aI174
aI176
aI177
aI178
aI179
aI180
aI181
aI182
aI183
aI184
aI185
aI186
aI187
aI188
aI189
aI190
aI191
aI239
aI367
aI400
aI401
aI402
asI93
(lp93
I21
aI26
aI28
aI30
aI32
aI33
aI34
aI68
aI69
aI70
aI71
aI72
aI73
aI74
aI75
aI76
aI77
aI78
aI79
aI80
aI81
aI82
aI83
aI84
aI85
aI86
aI87
aI88
aI89
asI94
(lp94
I2
aI8
aI9
aI10
aI20
aI21
aI26
aI27
aI28
aI29
aI30
aI32
aI35
aI36
aI37
aI38
aI39
aI40
aI41
aI42
aI43
aI44
aI45
aI46
aI47
aI48
aI49
aI50
aI51
aI52
aI53
aI54
aI55
aI56
aI57
aI58
aI59
aI60
aI61
aI63
aI64
aI65
aI66
aI67
aI287
aI289
aI290
aI291
aI292
aI293
aI294
aI296
aI297
asI95
(lp95
I21
aI26
aI28
aI30
aI32
aI71
aI75
asI96
(lp96
I2
aI8
aI9
aI10
aI20
aI21
aI26
aI27
aI28
aI29
aI30
aI32
aI35
aI36
aI37
aI39
aI41
aI42
aI44
aI48
aI49
aI50
aI52
aI53
aI54
aI55
aI57
aI59
aI61
aI64
aI65
aI66
aI67
aI356
aI357
asI97
(lp97
I304
aI305
aI306
aI307
aI308
aI309
aI310
aI311
aI312
aI313
aI314
aI315
aI316
aI317
asI98
(lp98
I2
aI4
aI8
aI9
aI10
aI20
aI21
aI26
aI27
aI28
aI29
aI30
aI32
aI35
aI36
aI37
aI39
aI40
aI41
aI42
aI43
aI44
aI45
aI46
aI47
aI48
aI49
aI50
aI51
aI52
aI53
aI54
aI55
aI56
aI57
aI58
aI59
aI60
aI61
aI64
aI65
aI66
aI67
aI90
aI93
aI94
aI98
aI100
aI103
aI108
aI110
aI111
aI112
aI113
aI115
aI117
aI118
aI119
aI122
aI134
aI135
aI138
aI139
aI140
aI141
aI142
aI144
aI156
aI157
aI158
aI159
aI160
aI162
aI165
aI168
aI177
aI178
aI181
aI188
aI189
aI239
aI287
aI288
aI289
aI290
aI291
aI292
aI293
aI294
aI295
aI296
aI297
aI298
aI365
aI366
aI367
aI368
aI369
aI370
asI99
(lp99
I21
aI26
aI30
aI72
aI73
aI74
aI80
aI249
aI250
aI251
aI252
as.