(dp0
I1
(lp1
I97
aI100
aI102
aI103
aI104
aI105
aI106
aI107
aI109
aI110
aI111
aI115
aI117
aI118
aI119
aI120
aI121
aI125
aI471
aI472
aI473
aI479
aI482
aI485
aI487
aI488
aI490
aI492
aI502
aI503
aI510
aI512
aI514
aI515
aI516
aI520
aI523
aI525
aI542
aI543
aI549
aI550
aI566
aI567
aI572
aI579
aI580
aI581
aI582
aI583
aI584
aI585
aI586
aI587
aI588
aI589
aI590
aI591
aI592
aI593
aI594
aI595
aI598
aI612
aI613
aI705
asI2
(lp2
I100
aI103
aI104
aI107
aI113
aI115
aI117
aI123
aI472
aI473
aI482
aI485
aI487
aI492
aI512
aI514
aI515
aI520
aI525
aI705
aI727
aI728
aI729
aI730
aI731
aI732
aI733
aI734
aI735
aI736
aI737
aI738
aI739
aI740
aI741
aI742
aI743
asI3
(lp3
I100
aI103
aI104
aI105
aI106
aI115
aI117
aI118
aI119
aI120
aI125
aI143
aI175
aI177
aI179
aI182
aI183
aI186
aI191
aI193
aI472
aI473
aI482
aI485
aI487
aI492
aI512
aI514
aI515
aI520
aI525
aI542
aI543
aI544
aI545
aI546
aI547
aI548
aI549
aI550
aI563
aI566
aI567
aI568
aI569
aI570
aI571
aI572
aI579
aI614
aI616
aI618
aI619
aI620
aI622
aI623
aI624
aI626
aI627
aI628
aI629
aI630
aI631
aI632
aI634
aI636
aI637
aI638
aI639
aI705
aI710
aI712
aI713
aI714
aI715
aI716
aI718
aI719
aI721
aI722
aI723
aI725
aI726
aI745
aI747
aI752
aI753
aI758
aI759
aI811
aI812
aI813
aI814
asI4
(lp4
I1
aI3
aI5
aI8
aI9
aI10
aI11
aI13
aI16
aI17
aI18
aI19
aI20
aI21
aI22
aI23
aI24
aI25
aI26
aI27
aI28
aI29
aI30
aI31
aI33
aI34
aI35
aI36
aI37
aI39
aI42
aI45
aI46
aI47
aI48
aI51
aI52
aI53
aI54
aI55
aI56
aI57
aI58
aI59
aI60
aI61
aI62
aI65
aI66
aI67
aI68
aI69
aI70
aI71
aI72
aI73
aI74
aI77
aI78
aI79
aI80
aI84
aI86
aI87
aI88
aI89
aI90
aI91
aI93
aI94
aI95
aI96
aI472
aI473
aI482
aI483
aI484
aI485
aI487
aI492
aI493
aI495
aI496
aI497
aI498
aI505
aI506
aI507
aI514
aI515
aI520
aI521
aI525
aI526
aI527
aI528
aI529
aI530
aI531
aI532
aI533
aI534
aI535
aI536
aI542
aI543
aI544
aI545
aI546
aI547
aI548
aI549
aI550
aI563
aI566
aI567
aI568
aI569
aI570
aI571
aI572
aI579
aI701
aI706
aI707
aI745
aI747
aI752
aI753
aI758
aI759
asI5
(lp5
I472
aI473
aI482
aI485
aI487
aI492
aI512
aI514
aI515
aI520
aI525
aI542
aI543
aI545
aI550
aI554
aI562
aI566
aI567
aI576
aI706
asI6
(lp6
I709
asI7
(lp7
I1
aI3
aI13
aI14
aI16
aI17
aI19
aI24
aI27
aI28
aI31
aI32
aI33
aI40
aI42
aI43
aI48
aI51
aI52
aI53
aI54
aI55
aI56
aI57
aI58
aI60
aI61
aI62
aI65
aI66
aI67
aI68
aI69
aI70
aI72
aI73
aI74
aI77
aI80
aI81
aI84
aI85
aI87
aI88
aI90
aI91
aI92
aI94
aI95
aI96
aI472
aI473
aI482
aI483
aI484
aI485
aI487
aI492
aI493
aI495
aI496
aI497
aI498
aI505
aI506
aI507
aI514
aI515
aI520
aI521
aI525
aI526
aI527
aI528
aI529
aI530
aI531
aI532
aI533
aI534
aI535
aI536
aI701
aI706
aI707
asI8
(lp8
I100
aI103
aI104
aI105
aI106
aI115
aI117
aI118
aI119
aI120
aI125
aI178
aI179
aI182
aI183
aI186
aI192
aI472
aI473
aI482
aI485
aI487
aI492
aI512
aI514
aI515
aI520
aI525
aI614
aI615
aI616
aI617
aI618
aI619
aI620
aI621
aI622
aI623
aI624
aI625
aI626
aI627
aI628
aI629
aI630
aI631
aI632
aI633
aI634
aI635
aI637
aI638
aI639
aI705
aI710
aI711
aI712
aI713
aI714
aI715
aI716
aI717
aI718
aI719
aI720
aI721
aI722
aI723
aI724
aI725
aI726
aI807
aI808
aI809
aI810
asI10
(lp9
I100
aI103
aI104
aI105
aI106
aI115
aI117
aI118
aI119
aI120
aI125
aI133
aI134
aI140
aI143
aI149
aI157
aI160
aI174
aI472
aI473
aI482
aI485
aI487
aI492
aI512
aI514
aI515
aI520
aI525
aI640
aI641
aI642
aI643
aI644
aI645
aI646
aI647
aI648
aI649
aI650
aI651
aI652
aI654
aI655
aI658
aI661
aI681
aI682
aI683
aI684
aI685
aI686
aI687
aI688
aI689
aI690
aI705
aI819
aI820
aI821
aI822
asI11
(lp10
I100
aI103
aI104
aI105
aI106
aI115
aI117
aI118
aI119
aI120
aI125
aI198
aI206
aI219
aI331
aI333
aI335
aI337
aI339
aI340
aI342
aI343
aI344
aI346
aI347
aI348
aI349
aI350
aI351
aI353
aI354
aI356
aI357
aI358
aI359
aI360
aI361
aI362
aI363
aI364
aI365
aI367
aI369
aI370
aI371
aI374
aI375
aI376
aI377
aI378
aI379
aI383
aI384
aI472
aI473
aI482
aI483
aI484
aI485
aI487
aI492
aI493
aI495
aI496
aI497
aI498
aI505
aI506
aI507
aI512
aI514
aI515
aI520
aI521
aI525
aI701
aI705
aI707
aI787
aI788
aI789
aI790
asI12
(lp11
I1
aI3
aI13
aI14
aI16
aI17
aI19
aI24
aI27
aI28
aI31
aI32
aI33
aI40
aI42
aI43
aI48
aI51
aI52
aI53
aI54
aI55
aI56
aI57
aI58
aI60
aI65
aI66
aI67
aI68
aI69
aI70
aI72
aI73
aI77
aI84
aI85
aI87
aI88
aI90
aI91
aI94
aI95
aI96
aI100
aI103
aI104
aI105
aI106
aI115
aI117
aI118
aI119
aI120
aI125
aI143
aI175
aI182
aI193
aI472
aI473
aI482
aI483
aI484
aI485
aI487
aI492
aI493
aI495
aI496
aI497
aI498
aI505
aI506
aI507
aI512
aI514
aI515
aI520
aI521
aI525
aI526
aI527
aI528
aI529
aI530
aI531
aI532
aI533
aI534
aI535
aI536
aI542
aI543
aI549
aI550
aI566
aI567
aI572
aI579
aI701
aI706
aI707
asI14
(lp12
I100
aI103
aI104
aI105
aI106
aI115
aI117
aI118
aI119
aI120
aI125
aI130
aI134
aI135
aI136
aI138
aI143
aI144
aI147
aI152
aI155
aI161
aI162
aI171
aI472
aI473
aI482
aI485
aI487
aI492
aI512
aI514
aI515
aI520
aI525
aI640
aI641
aI642
aI643
aI644
aI645
aI646
aI647
aI648
aI649
aI650
aI651
aI652
aI654
aI655
aI658
aI661
aI663
aI664
aI665
aI666
aI667
aI668
aI669
aI670
aI671
aI672
aI673
aI705
aI823
aI824
aI825
aI826
asI16
(lp13
I390
aI395
aI396
aI397
aI398
aI404
aI410
aI414
aI420
aI421
aI471
aI472
aI473
aI479
aI482
aI485
aI487
aI488
aI490
aI492
aI502
aI503
aI510
aI512
aI514
aI515
aI516
aI520
aI523
aI525
aI537
aI542
aI543
aI544
aI545
aI546
aI547
aI548
aI549
aI550
aI551
aI559
aI563
aI566
aI567
aI568
aI569
aI570
aI571
aI572
aI573
aI579
aI706
aI745
aI746
aI747
aI752
aI753
aI758
aI759
aI761
aI767
aI768
asI17
(lp14
I97
aI99
aI100
aI101
aI103
aI104
aI105
aI106
aI107
aI108
aI110
aI115
aI116
aI117
aI118
aI119
aI120
aI121
aI125
aI390
aI395
aI396
aI399
aI404
aI405
aI406
aI408
aI409
aI411
aI413
aI471
aI472
aI473
aI479
aI482
aI485
aI487
aI488
aI489
aI490
aI492
aI501
aI502
aI503
aI509
aI510
aI512
aI514
aI515
aI516
aI517
aI518
aI520
aI523
aI525
aI537
aI542
aI543
aI544
aI545
aI546
aI547
aI548
aI549
aI550
aI551
aI559
aI563
aI566
aI567
aI568
aI569
aI570
aI571
aI572
aI573
aI579
aI580
aI582
aI583
aI584
aI585
aI586
aI588
aI589
aI590
aI591
aI592
aI594
aI596
aI599
aI612
aI613
aI705
aI706
aI745
aI746
aI747
aI752
aI753
aI758
aI759
aI768
asI18
(lp15
I1
aI17
aI20
aI23
aI24
aI27
aI31
aI42
aI44
aI45
aI48
aI49
aI50
aI95
aI96
aI472
aI473
aI482
aI483
aI484
aI485
aI487
aI492
aI493
aI495
aI496
aI497
aI498
aI505
aI506
aI507
aI514
aI515
aI520
aI521
aI525
aI526
aI527
aI528
aI529
aI530
aI531
aI532
aI533
aI534
aI535
aI536
aI542
aI543
aI544
aI545
aI546
aI547
aI548
aI549
aI550
aI563
aI566
aI567
aI568
aI569
aI570
aI571
aI572
aI579
aI701
aI706
aI707
aI745
aI747
aI752
aI753
aI758
aI759
asI19
(lp16
I390
aI395
aI396
aI397
aI398
aI404
aI406
aI407
aI409
aI412
aI420
aI421
aI471
aI472
aI473
aI479
aI482
aI485
aI487
aI488
aI490
aI492
aI502
aI503
aI510
aI512
aI514
aI515
aI516
aI520
aI523
aI525
aI537
aI542
aI543
aI544
aI545
aI546
aI547
aI548
aI549
aI550
aI551
aI559
aI563
aI566
aI567
aI568
aI569
aI570
aI571
aI572
aI573
aI579
aI706
aI745
aI746
aI747
aI752
aI753
aI758
aI759
aI768
asI20
(lp17
I390
aI395
aI396
aI399
aI404
aI405
aI406
aI408
aI409
aI411
aI413
aI471
aI472
aI473
aI479
aI482
aI485
aI487
aI492
aI503
aI512
aI514
aI515
aI520
aI523
aI525
aI537
aI542
aI543
aI549
aI550
aI551
aI559
aI566
aI567
aI572
aI573
aI579
aI706
asI21
(lp18
I100
aI103
aI104
aI105
aI106
aI115
aI117
aI118
aI119
aI120
aI125
aI130
aI134
aI135
aI136
aI138
aI143
aI144
aI147
aI152
aI155
aI161
aI162
aI171
aI472
aI473
aI482
aI485
aI487
aI492
aI512
aI514
aI515
aI520
aI525
aI640
aI641
aI642
aI643
aI644
aI645
aI646
aI647
aI648
aI649
aI650
aI651
aI652
aI653
aI656
aI657
aI659
aI660
aI662
aI674
aI675
aI676
aI677
aI678
aI679
aI680
aI705
aI823
aI824
aI825
aI826
asI22
(lp19
I97
aI99
aI100
aI101
aI103
aI104
aI105
aI106
aI107
aI108
aI110
aI115
aI116
aI117
aI118
aI119
aI120
aI121
aI125
aI471
aI472
aI473
aI479
aI482
aI485
aI487
aI488
aI489
aI490
aI492
aI501
aI502
aI503
aI509
aI510
aI512
aI514
aI515
aI516
aI517
aI518
aI520
aI523
aI525
aI580
aI582
aI583
aI584
aI585
aI586
aI588
aI589
aI590
aI591
aI592
aI593
aI594
aI596
aI597
aI599
aI612
aI613
aI705
asI23
(lp20
I472
aI473
aI476
aI477
aI478
aI482
aI485
aI487
aI492
aI499
aI512
aI514
aI515
aI520
aI522
aI525
aI539
aI540
aI541
aI542
aI543
aI544
aI545
aI546
aI547
aI548
aI549
aI550
aI556
aI557
aI558
aI563
aI565
aI566
aI567
aI568
aI569
aI570
aI571
aI572
aI578
aI579
aI706
aI745
aI749
aI758
aI759
aI844
asI25
(lp21
I98
aI100
aI103
aI104
aI105
aI106
aI107
aI112
aI115
aI117
aI118
aI119
aI120
aI122
aI125
aI143
aI175
aI182
aI193
aI227
aI228
aI229
aI230
aI233
aI234
aI236
aI237
aI238
aI239
aI240
aI241
aI242
aI243
aI246
aI247
aI248
aI249
aI250
aI251
aI252
aI253
aI254
aI255
aI256
aI257
aI258
aI259
aI260
aI265
aI266
aI267
aI268
aI269
aI270
aI271
aI272
aI273
aI274
aI275
aI276
aI277
aI278
aI279
aI280
aI281
aI282
aI283
aI284
aI285
aI289
aI290
aI291
aI292
aI293
aI294
aI295
aI296
aI297
aI298
aI299
aI300
aI301
aI302
aI303
aI309
aI310
aI311
aI312
aI317
aI321
aI322
aI323
aI324
aI325
aI326
aI327
aI328
aI329
aI330
aI425
aI426
aI428
aI429
aI430
aI431
aI432
aI433
aI437
aI438
aI439
aI440
aI441
aI442
aI444
aI445
aI446
aI448
aI449
aI450
aI451
aI453
aI455
aI458
aI459
aI462
aI463
aI464
aI465
aI466
aI467
aI468
aI469
aI472
aI473
aI480
aI481
aI482
aI485
aI487
aI488
aI490
aI492
aI502
aI504
aI510
aI512
aI514
aI515
aI516
aI520
aI524
aI525
aI538
aI542
aI543
aI544
aI545
aI546
aI547
aI548
aI549
aI550
aI552
aI560
aI563
aI566
aI567
aI568
aI569
aI570
aI571
aI572
aI574
aI579
aI705
aI706
aI769
aI770
aI771
aI772
aI773
aI774
asI26
(lp22
I97
aI100
aI102
aI103
aI104
aI105
aI106
aI107
aI109
aI110
aI111
aI115
aI117
aI118
aI119
aI120
aI121
aI125
aI471
aI472
aI473
aI479
aI482
aI485
aI487
aI488
aI490
aI492
aI502
aI503
aI510
aI512
aI514
aI515
aI516
aI520
aI523
aI525
aI542
aI543
aI549
aI550
aI566
aI567
aI572
aI579
aI580
aI581
aI582
aI583
aI584
aI585
aI586
aI587
aI588
aI589
aI590
aI591
aI592
aI593
aI594
aI595
aI598
aI612
aI613
aI705
asI27
(lp23
I0
aI1
aI2
aI3
aI4
aI6
aI7
aI12
aI13
aI14
aI15
aI16
aI17
aI19
aI24
aI27
aI28
aI31
aI32
aI33
aI38
aI40
aI41
aI42
aI43
aI48
aI51
aI52
aI53
aI54
aI55
aI56
aI57
aI58
aI60
aI61
aI62
aI63
aI64
aI65
aI66
aI67
aI68
aI69
aI70
aI72
aI73
aI74
aI75
aI76
aI77
aI80
aI82
aI83
aI84
aI85
aI87
aI88
aI89
aI90
aI91
aI93
aI94
aI95
aI96
aI100
aI103
aI104
aI105
aI106
aI115
aI117
aI118
aI119
aI120
aI125
aI199
aI206
aI220
aI331
aI333
aI334
aI335
aI337
aI338
aI339
aI340
aI341
aI342
aI343
aI344
aI345
aI346
aI347
aI348
aI349
aI350
aI351
aI352
aI353
aI354
aI356
aI357
aI358
aI359
aI360
aI361
aI362
aI363
aI364
aI365
aI366
aI367
aI369
aI370
aI371
aI374
aI375
aI376
aI377
aI378
aI379
aI383
aI384
aI472
aI473
aI474
aI475
aI482
aI483
aI484
aI485
aI487
aI492
aI493
aI494
aI495
aI496
aI497
aI498
aI505
aI506
aI507
aI512
aI513
aI514
aI515
aI520
aI521
aI525
aI526
aI527
aI528
aI529
aI530
aI531
aI532
aI533
aI534
aI535
aI536
aI542
aI543
aI549
aI550
aI566
aI567
aI572
aI579
aI701
aI705
aI706
aI707
aI791
aI792
aI793
aI794
asI29
(lp24
I390
aI395
aI396
aI399
aI404
aI410
aI414
aI471
aI472
aI473
aI479
aI482
aI485
aI487
aI492
aI503
aI512
aI514
aI515
aI520
aI523
aI537
aI542
aI550
aI551
aI559
aI573
aI706
asI30
(lp25
I97
aI100
aI103
aI107
aI110
aI115
aI117
aI121
aI125
aI471
aI472
aI473
aI479
aI482
aI485
aI487
aI488
aI490
aI492
aI502
aI503
aI510
aI512
aI514
aI515
aI516
aI520
aI523
aI525
aI580
aI584
aI588
aI590
aI592
aI610
aI611
aI612
aI613
aI705
asI31
(lp26
I100
aI103
aI104
aI105
aI106
aI115
aI117
aI118
aI119
aI120
aI125
aI133
aI134
aI140
aI143
aI149
aI157
aI160
aI174
aI472
aI473
aI482
aI485
aI487
aI492
aI512
aI514
aI515
aI520
aI525
aI640
aI641
aI642
aI643
aI644
aI645
aI646
aI647
aI648
aI649
aI650
aI651
aI652
aI653
aI656
aI657
aI659
aI660
aI662
aI691
aI692
aI693
aI694
aI695
aI696
aI705
aI819
aI820
aI821
aI822
asI32
(lp27
I100
aI103
aI104
aI105
aI106
aI115
aI117
aI118
aI119
aI120
aI125
aI197
aI206
aI218
aI331
aI333
aI335
aI337
aI339
aI340
aI342
aI343
aI344
aI346
aI347
aI348
aI349
aI350
aI351
aI353
aI354
aI356
aI357
aI358
aI359
aI360
aI361
aI362
aI363
aI364
aI365
aI367
aI369
aI370
aI371
aI374
aI375
aI376
aI377
aI378
aI379
aI383
aI384
aI472
aI473
aI482
aI483
aI484
aI485
aI487
aI492
aI493
aI495
aI496
aI497
aI498
aI505
aI506
aI507
aI512
aI514
aI515
aI520
aI521
aI525
aI701
aI705
aI707
aI791
aI792
aI793
aI794
asI33
(lp28
I472
aI473
aI485
aI487
aI492
aI514
aI515
aI520
aI525
aI542
aI543
aI544
aI545
aI546
aI547
aI548
aI549
aI550
aI563
aI566
aI567
aI568
aI569
aI570
aI571
aI572
aI579
asI34
(lp29
I100
aI103
aI104
aI105
aI106
aI115
aI117
aI118
aI119
aI120
aI125
aI195
aI202
aI203
aI206
aI207
aI210
aI214
aI216
aI331
aI333
aI335
aI337
aI339
aI340
aI342
aI343
aI344
aI346
aI347
aI351
aI353
aI354
aI355
aI356
aI357
aI358
aI359
aI360
aI361
aI362
aI363
aI365
aI367
aI368
aI369
aI370
aI371
aI373
aI375
aI376
aI377
aI388
aI472
aI473
aI482
aI483
aI484
aI485
aI487
aI492
aI493
aI495
aI496
aI497
aI498
aI505
aI506
aI507
aI512
aI514
aI515
aI520
aI521
aI525
aI701
aI705
aI707
aI775
aI776
aI777
aI778
asI35
(lp30
I390
aI395
aI396
aI397
aI398
aI399
aI404
aI405
aI406
aI407
aI408
aI409
aI411
aI412
aI413
aI420
aI421
aI471
aI472
aI473
aI479
aI482
aI485
aI487
aI488
aI490
aI492
aI502
aI503
aI510
aI512
aI514
aI515
aI516
aI520
aI523
aI525
aI537
aI542
aI543
aI544
aI545
aI546
aI547
aI548
aI549
aI550
aI551
aI559
aI563
aI566
aI567
aI568
aI569
aI570
aI571
aI572
aI573
aI579
aI706
aI745
aI746
aI747
aI752
aI753
aI758
aI759
aI768
asI36
(lp31
I472
aI473
aI482
aI485
aI487
aI492
aI512
aI514
aI515
aI520
aI525
aI542
aI543
aI548
aI550
aI555
aI564
aI566
aI567
aI577
aI706
asI37
(lp32
I100
aI103
aI104
aI105
aI106
aI115
aI117
aI118
aI119
aI120
aI125
aI131
aI134
aI140
aI141
aI143
aI149
aI150
aI157
aI158
aI160
aI172
aI472
aI473
aI482
aI485
aI487
aI492
aI512
aI514
aI515
aI520
aI525
aI640
aI641
aI642
aI643
aI644
aI645
aI646
aI647
aI648
aI649
aI650
aI651
aI652
aI654
aI655
aI658
aI661
aI681
aI682
aI683
aI684
aI685
aI686
aI687
aI688
aI689
aI690
aI705
aI827
aI828
aI829
aI830
asI38
(lp33
I472
aI473
aI479
aI485
aI487
aI488
aI490
aI492
aI502
aI503
aI510
aI514
aI515
aI516
aI520
aI523
aI525
aI542
aI543
aI544
aI545
aI546
aI547
aI548
aI549
aI550
aI563
aI566
aI567
aI568
aI569
aI570
aI571
aI572
aI579
aI745
aI746
aI747
aI752
aI753
aI758
aI759
asI39
(lp34
I100
aI103
aI104
aI105
aI106
aI115
aI117
aI118
aI119
aI120
aI125
aI196
aI201
aI204
aI206
aI208
aI211
aI213
aI217
aI331
aI332
aI333
aI335
aI336
aI337
aI339
aI340
aI342
aI343
aI344
aI346
aI347
aI348
aI349
aI350
aI351
aI353
aI354
aI355
aI356
aI357
aI358
aI359
aI360
aI361
aI362
aI363
aI364
aI365
aI367
aI369
aI370
aI371
aI372
aI374
aI375
aI376
aI377
aI378
aI379
aI380
aI381
aI382
aI383
aI384
aI385
aI386
aI387
aI389
aI472
aI473
aI474
aI475
aI482
aI483
aI484
aI485
aI487
aI492
aI493
aI495
aI496
aI497
aI498
aI505
aI506
aI507
aI512
aI514
aI515
aI520
aI521
aI525
aI701
aI705
aI707
aI787
aI788
aI789
aI790
asI40
(lp35
I423
aI424
aI425
aI426
aI430
aI431
aI432
aI433
aI769
aI770
aI771
aI772
aI773
aI774
asI41
(lp36
I97
aI100
aI102
aI103
aI104
aI105
aI106
aI107
aI109
aI110
aI111
aI115
aI117
aI118
aI119
aI120
aI121
aI125
aI471
aI472
aI473
aI479
aI482
aI485
aI487
aI488
aI490
aI492
aI502
aI503
aI510
aI512
aI514
aI515
aI516
aI520
aI523
aI525
aI542
aI543
aI549
aI550
aI566
aI567
aI572
aI579
aI580
aI581
aI582
aI583
aI584
aI585
aI586
aI587
aI588
aI589
aI590
aI591
aI592
aI593
aI594
aI595
aI598
aI612
aI613
aI705
asI42
(lp37
I100
aI103
aI104
aI105
aI106
aI115
aI117
aI118
aI119
aI120
aI125
aI194
aI206
aI215
aI331
aI333
aI335
aI337
aI339
aI340
aI342
aI343
aI344
aI346
aI347
aI348
aI349
aI350
aI351
aI353
aI354
aI356
aI357
aI358
aI359
aI360
aI361
aI362
aI363
aI364
aI365
aI367
aI369
aI370
aI371
aI374
aI375
aI376
aI377
aI378
aI379
aI383
aI384
aI472
aI473
aI482
aI483
aI484
aI485
aI487
aI492
aI493
aI495
aI496
aI497
aI498
aI505
aI506
aI507
aI512
aI514
aI515
aI520
aI521
aI525
aI701
aI705
aI707
aI783
aI784
aI785
aI786
asI43
(lp38
I100
aI103
aI104
aI105
aI106
aI115
aI117
aI118
aI119
aI120
aI125
aI126
aI134
aI143
aI144
aI152
aI167
aI472
aI473
aI482
aI485
aI487
aI492
aI512
aI514
aI515
aI520
aI525
aI640
aI641
aI642
aI643
aI644
aI645
aI646
aI647
aI648
aI649
aI650
aI651
aI652
aI654
aI655
aI658
aI661
aI663
aI664
aI665
aI666
aI667
aI668
aI669
aI670
aI671
aI672
aI673
aI705
aI815
aI816
aI817
aI818
asI44
(lp39
I97
aI100
aI103
aI104
aI105
aI106
aI107
aI110
aI115
aI117
aI118
aI119
aI120
aI121
aI125
aI471
aI472
aI473
aI479
aI482
aI485
aI487
aI488
aI490
aI492
aI502
aI503
aI510
aI512
aI514
aI515
aI516
aI520
aI523
aI525
aI580
aI582
aI583
aI584
aI585
aI586
aI588
aI589
aI590
aI591
aI592
aI594
aI596
aI599
aI612
aI613
aI705
asI45
(lp40
I471
aI473
aI482
aI485
aI486
aI487
aI488
aI490
aI491
aI492
aI500
aI502
aI503
aI508
aI510
aI511
aI512
aI514
aI515
aI516
aI519
aI523
aI701
aI707
asI46
(lp41
I472
aI473
aI479
aI485
aI487
aI488
aI490
aI492
aI502
aI503
aI510
aI514
aI515
aI516
aI520
aI523
aI525
aI542
aI543
aI544
aI545
aI546
aI547
aI548
aI549
aI550
aI563
aI566
aI567
aI568
aI569
aI570
aI571
aI572
aI579
aI697
aI698
aI702
aI703
aI708
aI744
aI745
aI746
aI747
aI748
aI749
aI750
aI751
aI752
aI753
aI754
aI755
aI756
aI757
aI758
aI759
aI760
aI761
aI762
aI763
aI764
aI765
aI766
asI47
(lp42
I100
aI103
aI104
aI105
aI106
aI115
aI117
aI118
aI119
aI120
aI125
aI134
aI141
aI142
aI143
aI151
aI159
aI160
aI165
aI472
aI473
aI482
aI485
aI487
aI492
aI512
aI514
aI515
aI520
aI525
aI640
aI641
aI642
aI643
aI644
aI645
aI646
aI647
aI648
aI649
aI650
aI651
aI652
aI654
aI655
aI658
aI661
aI681
aI682
aI683
aI684
aI685
aI686
aI687
aI688
aI689
aI690
aI799
aI800
aI801
aI802
asI48
(lp43
I472
aI473
aI479
aI485
aI487
aI488
aI490
aI492
aI502
aI503
aI510
aI514
aI515
aI516
aI520
aI523
aI525
aI542
aI543
aI544
aI545
aI546
aI547
aI548
aI549
aI550
aI563
aI566
aI567
aI568
aI569
aI570
aI571
aI572
aI579
aI745
aI746
aI747
aI752
aI753
aI758
aI759
asI49
(lp44
I97
aI100
aI103
aI104
aI105
aI106
aI107
aI110
aI115
aI117
aI118
aI119
aI120
aI121
aI125
aI134
aI140
aI143
aI160
aI164
aI175
aI390
aI395
aI396
aI399
aI404
aI405
aI406
aI408
aI409
aI410
aI411
aI413
aI414
aI471
aI472
aI473
aI479
aI482
aI485
aI487
aI488
aI490
aI492
aI502
aI503
aI510
aI512
aI514
aI515
aI516
aI520
aI523
aI525
aI537
aI542
aI543
aI549
aI550
aI551
aI559
aI566
aI567
aI572
aI573
aI579
aI580
aI582
aI583
aI584
aI585
aI586
aI588
aI589
aI590
aI591
aI592
aI594
aI596
aI599
aI610
aI611
aI612
aI613
aI705
aI706
asI50
(lp45
I843
asI51
(lp46
I97
aI100
aI103
aI104
aI105
aI106
aI107
aI110
aI115
aI117
aI118
aI119
aI120
aI121
aI125
aI390
aI391
aI392
aI393
aI394
aI395
aI396
aI397
aI398
aI415
aI416
aI417
aI418
aI419
aI420
aI421
aI471
aI472
aI473
aI479
aI482
aI485
aI487
aI488
aI489
aI490
aI492
aI501
aI502
aI503
aI509
aI510
aI512
aI514
aI515
aI516
aI517
aI518
aI520
aI523
aI525
aI537
aI542
aI543
aI544
aI545
aI546
aI547
aI548
aI549
aI550
aI551
aI559
aI563
aI566
aI567
aI568
aI569
aI570
aI571
aI572
aI573
aI579
aI580
aI582
aI583
aI586
aI588
aI589
aI592
aI595
aI596
aI599
aI600
aI601
aI602
aI603
aI604
aI605
aI606
aI607
aI608
aI609
aI612
aI613
aI705
aI706
aI745
aI746
aI747
aI752
aI753
aI758
aI759
aI768
asI52
(lp47
I98
aI100
aI103
aI104
aI105
aI106
aI107
aI112
aI115
aI117
aI118
aI119
aI120
aI122
aI125
aI143
aI175
aI182
aI193
aI227
aI228
aI229
aI230
aI231
aI232
aI233
aI234
aI235
aI236
aI237
aI238
aI239
aI240
aI241
aI242
aI243
aI246
aI248
aI249
aI250
aI251
aI252
aI253
aI254
aI255
aI258
aI259
aI260
aI265
aI267
aI268
aI269
aI271
aI272
aI274
aI275
aI276
aI277
aI278
aI279
aI280
aI281
aI282
aI283
aI284
aI285
aI291
aI292
aI293
aI294
aI295
aI296
aI297
aI298
aI301
aI302
aI303
aI308
aI309
aI310
aI311
aI312
aI317
aI321
aI322
aI323
aI324
aI325
aI326
aI327
aI329
aI330
aI425
aI426
aI428
aI429
aI430
aI431
aI432
aI433
aI437
aI439
aI441
aI444
aI445
aI448
aI449
aI453
aI455
aI459
aI463
aI464
aI465
aI466
aI467
aI470
aI472
aI473
aI480
aI481
aI482
aI485
aI487
aI488
aI492
aI504
aI512
aI514
aI515
aI516
aI520
aI524
aI525
aI538
aI542
aI543
aI544
aI545
aI546
aI547
aI548
aI549
aI550
aI552
aI560
aI563
aI566
aI567
aI568
aI569
aI570
aI571
aI572
aI574
aI579
aI705
aI706
aI745
aI747
aI752
aI753
aI758
aI759
aI769
aI770
aI771
aI772
aI773
aI774
asI53
(lp48
I97
aI99
aI100
aI101
aI103
aI104
aI105
aI106
aI107
aI108
aI110
aI115
aI116
aI117
aI118
aI119
aI120
aI121
aI125
aI471
aI472
aI473
aI479
aI482
aI485
aI487
aI488
aI489
aI490
aI492
aI501
aI502
aI503
aI509
aI510
aI512
aI514
aI515
aI516
aI517
aI518
aI520
aI523
aI525
aI580
aI582
aI583
aI584
aI585
aI586
aI588
aI589
aI590
aI591
aI592
aI593
aI594
aI596
aI597
aI599
aI612
aI613
aI705
asI54
(lp49
I100
aI103
aI104
aI105
aI106
aI115
aI117
aI118
aI119
aI120
aI125
aI134
aI141
aI142
aI143
aI160
aI165
aI166
aI472
aI473
aI482
aI485
aI487
aI492
aI512
aI514
aI515
aI520
aI525
aI640
aI641
aI642
aI643
aI644
aI645
aI646
aI647
aI648
aI649
aI650
aI651
aI652
aI654
aI655
aI658
aI661
aI681
aI682
aI683
aI684
aI685
aI686
aI687
aI688
aI689
aI690
aI819
aI820
aI821
aI822
asI55
(lp50
I472
aI473
aI482
aI485
aI487
aI492
aI512
aI514
aI515
aI520
aI525
aI539
aI540
aI541
aI542
aI543
aI544
aI545
aI546
aI547
aI548
aI549
aI550
aI556
aI557
aI558
aI563
aI565
aI566
aI567
aI568
aI569
aI570
aI571
aI572
aI578
aI579
aI706
aI745
aI747
aI749
aI752
aI753
aI758
aI759
aI844
asI56
(lp51
I100
aI103
aI104
aI105
aI106
aI115
aI117
aI118
aI119
aI120
aI125
aI176
aI179
aI180
aI182
aI183
aI184
aI186
aI187
aI190
aI472
aI473
aI482
aI485
aI487
aI492
aI512
aI514
aI515
aI520
aI525
aI614
aI615
aI616
aI617
aI618
aI619
aI620
aI621
aI622
aI623
aI624
aI625
aI626
aI627
aI628
aI629
aI630
aI632
aI633
aI634
aI635
aI637
aI639
aI705
aI710
aI711
aI712
aI713
aI714
aI715
aI716
aI717
aI718
aI719
aI720
aI721
aI722
aI723
aI724
aI725
aI726
aI831
aI832
aI833
aI834
asI57
(lp52
I100
aI103
aI104
aI105
aI106
aI115
aI117
aI118
aI119
aI120
aI125
aI127
aI134
aI135
aI136
aI137
aI143
aI144
aI145
aI146
aI152
aI153
aI154
aI161
aI168
aI222
aI223
aI224
aI225
aI226
aI472
aI473
aI482
aI485
aI487
aI492
aI512
aI514
aI515
aI520
aI525
aI640
aI641
aI642
aI643
aI644
aI645
aI646
aI647
aI648
aI649
aI650
aI651
aI652
aI654
aI655
aI658
aI661
aI663
aI664
aI665
aI666
aI667
aI668
aI669
aI670
aI671
aI672
aI673
aI705
aI795
aI796
aI797
aI798
asI58
(lp53
I100
aI103
aI104
aI105
aI106
aI115
aI117
aI118
aI119
aI120
aI125
aI129
aI134
aI135
aI136
aI138
aI139
aI143
aI144
aI147
aI148
aI152
aI155
aI156
aI161
aI162
aI170
aI222
aI223
aI224
aI225
aI226
aI472
aI473
aI482
aI485
aI487
aI492
aI512
aI514
aI515
aI520
aI525
aI640
aI641
aI642
aI643
aI644
aI645
aI646
aI647
aI648
aI649
aI650
aI651
aI652
aI654
aI655
aI658
aI661
aI663
aI664
aI665
aI666
aI667
aI668
aI669
aI670
aI671
aI672
aI673
aI705
aI779
aI780
aI781
aI782
asI59
(lp54
I472
aI473
aI476
aI477
aI478
aI482
aI485
aI487
aI492
aI499
aI512
aI514
aI515
aI520
aI522
aI525
aI539
aI540
aI541
aI542
aI543
aI544
aI545
aI546
aI547
aI548
aI549
aI550
aI556
aI557
aI558
aI563
aI565
aI566
aI567
aI568
aI569
aI570
aI571
aI572
aI578
aI579
aI706
aI745
aI747
aI749
aI752
aI753
aI758
aI759
aI844
asI60
(lp55
I0
aI1
aI2
aI3
aI4
aI6
aI7
aI12
aI13
aI14
aI15
aI16
aI17
aI19
aI24
aI27
aI28
aI31
aI32
aI33
aI38
aI40
aI41
aI42
aI43
aI48
aI51
aI52
aI53
aI54
aI55
aI56
aI57
aI58
aI60
aI61
aI62
aI63
aI64
aI65
aI66
aI67
aI68
aI69
aI70
aI72
aI73
aI74
aI75
aI76
aI77
aI80
aI82
aI83
aI84
aI85
aI87
aI88
aI89
aI90
aI91
aI93
aI94
aI95
aI96
aI100
aI103
aI104
aI105
aI106
aI115
aI117
aI118
aI119
aI120
aI125
aI197
aI199
aI200
aI205
aI206
aI209
aI212
aI218
aI220
aI221
aI331
aI333
aI335
aI337
aI339
aI340
aI342
aI343
aI344
aI346
aI347
aI348
aI349
aI350
aI351
aI353
aI354
aI355
aI356
aI357
aI358
aI359
aI360
aI361
aI362
aI363
aI364
aI365
aI367
aI368
aI369
aI370
aI371
aI373
aI374
aI375
aI376
aI377
aI378
aI379
aI383
aI384
aI388
aI472
aI473
aI474
aI475
aI482
aI483
aI484
aI485
aI487
aI492
aI493
aI495
aI496
aI497
aI498
aI505
aI506
aI507
aI512
aI514
aI515
aI520
aI521
aI525
aI526
aI527
aI528
aI529
aI530
aI531
aI532
aI533
aI534
aI535
aI536
aI542
aI543
aI544
aI545
aI546
aI547
aI548
aI549
aI550
aI563
aI566
aI567
aI568
aI569
aI570
aI571
aI572
aI579
aI701
aI705
aI706
aI707
aI775
aI776
aI777
aI778
aI791
aI792
aI793
aI794
asI61
(lp56
I100
aI103
aI104
aI105
aI106
aI115
aI117
aI118
aI119
aI120
aI125
aI132
aI134
aI140
aI141
aI143
aI149
aI150
aI157
aI158
aI160
aI173
aI472
aI473
aI482
aI485
aI487
aI492
aI512
aI514
aI515
aI520
aI525
aI640
aI641
aI642
aI643
aI644
aI645
aI646
aI647
aI648
aI649
aI650
aI651
aI652
aI654
aI655
aI658
aI661
aI681
aI682
aI683
aI684
aI685
aI686
aI687
aI688
aI689
aI690
aI705
aI827
aI828
aI829
aI830
asI62
(lp57
I390
aI395
aI396
aI399
aI404
aI405
aI406
aI408
aI409
aI411
aI413
aI471
aI472
aI473
aI479
aI482
aI485
aI487
aI488
aI490
aI492
aI502
aI503
aI510
aI512
aI514
aI515
aI516
aI520
aI523
aI525
aI537
aI542
aI543
aI544
aI545
aI546
aI547
aI548
aI549
aI550
aI551
aI559
aI563
aI566
aI567
aI568
aI569
aI570
aI571
aI572
aI573
aI579
aI706
aI745
aI746
aI747
aI752
aI753
aI758
aI759
aI768
asI63
(lp58
I472
aI473
aI482
aI485
aI487
aI492
aI512
aI514
aI515
aI520
aI525
aI542
aI543
aI544
aI550
aI553
aI561
aI566
aI567
aI575
aI706
asI64
(lp59
I100
aI103
aI104
aI105
aI106
aI115
aI117
aI118
aI119
aI120
aI125
aI128
aI134
aI135
aI136
aI143
aI144
aI145
aI152
aI153
aI161
aI169
aI472
aI473
aI482
aI485
aI487
aI492
aI512
aI514
aI515
aI520
aI525
aI640
aI641
aI642
aI643
aI644
aI645
aI646
aI647
aI648
aI649
aI650
aI651
aI652
aI654
aI655
aI658
aI661
aI663
aI664
aI665
aI666
aI667
aI668
aI669
aI670
aI671
aI672
aI673
aI705
aI835
aI836
aI837
aI838
asI65
(lp60
I100
aI103
aI104
aI105
aI106
aI115
aI117
aI118
aI119
aI120
aI125
aI177
aI179
aI180
aI181
aI182
aI183
aI185
aI186
aI188
aI189
aI191
aI472
aI473
aI482
aI485
aI487
aI492
aI512
aI514
aI515
aI520
aI525
aI614
aI615
aI616
aI617
aI618
aI619
aI620
aI621
aI622
aI623
aI624
aI625
aI626
aI627
aI628
aI629
aI630
aI632
aI633
aI634
aI635
aI637
aI639
aI705
aI710
aI711
aI712
aI713
aI714
aI715
aI716
aI717
aI718
aI719
aI720
aI721
aI722
aI723
aI724
aI725
aI726
aI811
aI812
aI813
aI814
asI66
(lp61
I100
aI103
aI104
aI105
aI106
aI107
aI114
aI115
aI117
aI118
aI119
aI124
aI472
aI473
aI482
aI485
aI487
aI492
aI512
aI514
aI515
aI520
aI525
aI705
aI839
aI840
aI841
asI67
(lp62
I390
aI395
aI396
aI397
aI398
aI400
aI401
aI402
aI403
aI404
aI410
aI414
aI420
aI421
aI471
aI472
aI473
aI479
aI482
aI485
aI486
aI487
aI488
aI490
aI491
aI492
aI500
aI502
aI503
aI508
aI510
aI511
aI512
aI514
aI515
aI516
aI519
aI520
aI523
aI525
aI537
aI542
aI543
aI544
aI545
aI546
aI547
aI548
aI549
aI550
aI551
aI559
aI563
aI566
aI567
aI568
aI569
aI570
aI571
aI572
aI573
aI579
aI699
aI700
aI701
aI702
aI704
aI706
aI707
asI68
(lp63
I97
aI100
aI103
aI104
aI105
aI106
aI107
aI110
aI115
aI117
aI118
aI119
aI120
aI121
aI125
aI471
aI472
aI473
aI479
aI482
aI485
aI487
aI488
aI490
aI492
aI502
aI503
aI510
aI512
aI514
aI515
aI516
aI520
aI523
aI525
aI580
aI582
aI583
aI584
aI585
aI586
aI588
aI589
aI590
aI591
aI592
aI594
aI596
aI599
aI612
aI613
aI705
asI69
(lp64
I98
aI100
aI103
aI104
aI105
aI106
aI107
aI112
aI115
aI117
aI118
aI119
aI120
aI122
aI125
aI227
aI228
aI229
aI230
aI233
aI234
aI236
aI237
aI238
aI239
aI240
aI241
aI242
aI243
aI244
aI245
aI246
aI247
aI248
aI249
aI250
aI251
aI252
aI253
aI254
aI255
aI256
aI257
aI258
aI259
aI260
aI261
aI262
aI263
aI264
aI265
aI266
aI267
aI268
aI269
aI270
aI271
aI272
aI273
aI274
aI275
aI276
aI277
aI278
aI279
aI280
aI281
aI282
aI283
aI284
aI285
aI286
aI287
aI289
aI290
aI291
aI292
aI293
aI294
aI295
aI296
aI297
aI298
aI299
aI300
aI301
aI302
aI303
aI304
aI305
aI306
aI307
aI309
aI310
aI311
aI312
aI313
aI314
aI315
aI317
aI318
aI319
aI321
aI322
aI323
aI324
aI325
aI326
aI327
aI328
aI329
aI330
aI427
aI430
aI431
aI432
aI433
aI434
aI435
aI436
aI437
aI438
aI440
aI442
aI443
aI445
aI446
aI447
aI449
aI450
aI451
aI452
aI454
aI456
aI457
aI459
aI460
aI461
aI463
aI468
aI469
aI472
aI473
aI479
aI480
aI481
aI482
aI485
aI487
aI488
aI490
aI492
aI502
aI504
aI510
aI512
aI514
aI515
aI516
aI520
aI524
aI525
aI538
aI542
aI543
aI544
aI545
aI546
aI547
aI548
aI549
aI550
aI552
aI560
aI563
aI566
aI567
aI568
aI569
aI570
aI571
aI572
aI574
aI579
aI705
aI706
aI745
aI747
aI752
aI753
aI758
aI759
aI769
aI770
aI771
aI772
aI773
aI774
aI803
aI804
aI805
aI806
aI842
asI70
(lp65
I472
aI473
aI476
aI477
aI478
aI482
aI485
aI487
aI492
aI499
aI512
aI514
aI515
aI520
aI522
aI525
aI539
aI540
aI541
aI542
aI543
aI544
aI545
aI546
aI547
aI548
aI549
aI550
aI556
aI557
aI558
aI563
aI565
aI566
aI567
aI568
aI569
aI570
aI571
aI572
aI578
aI579
aI706
aI745
aI749
aI758
aI759
aI844
asI71
(lp66
I472
aI473
aI479
aI485
aI487
aI488
aI490
aI492
aI502
aI503
aI510
aI514
aI515
aI516
aI520
aI523
aI525
aI542
aI543
aI544
aI545
aI546
aI547
aI548
aI549
aI550
aI563
aI566
aI567
aI568
aI569
aI570
aI571
aI572
aI579
aI745
aI746
aI747
aI752
aI753
aI758
aI759
asI72
(lp67
I100
aI103
aI104
aI105
aI106
aI115
aI117
aI118
aI119
aI120
aI125
aI130
aI134
aI135
aI136
aI138
aI139
aI143
aI144
aI147
aI152
aI155
aI161
aI162
aI163
aI171
aI175
aI182
aI193
aI472
aI473
aI482
aI485
aI487
aI492
aI512
aI514
aI515
aI520
aI525
aI542
aI543
aI544
aI545
aI546
aI547
aI548
aI549
aI550
aI563
aI566
aI567
aI568
aI569
aI570
aI571
aI572
aI579
aI640
aI641
aI642
aI643
aI644
aI645
aI646
aI647
aI648
aI649
aI650
aI651
aI652
aI654
aI655
aI658
aI661
aI663
aI664
aI665
aI666
aI667
aI668
aI669
aI670
aI671
aI672
aI673
aI705
aI745
aI747
aI752
aI753
aI758
aI759
aI823
aI824
aI825
aI826
asI73
(lp68
I98
aI100
aI103
aI104
aI105
aI106
aI107
aI112
aI115
aI117
aI118
aI119
aI120
aI122
aI125
aI143
aI175
aI182
aI193
aI227
aI228
aI229
aI230
aI233
aI234
aI236
aI237
aI238
aI239
aI240
aI241
aI242
aI243
aI244
aI245
aI246
aI247
aI248
aI249
aI250
aI251
aI252
aI253
aI254
aI255
aI256
aI257
aI258
aI259
aI260
aI261
aI262
aI263
aI264
aI265
aI266
aI267
aI268
aI269
aI270
aI271
aI272
aI273
aI274
aI275
aI276
aI277
aI278
aI279
aI280
aI281
aI282
aI283
aI284
aI285
aI286
aI287
aI288
aI289
aI290
aI291
aI292
aI293
aI294
aI295
aI296
aI297
aI298
aI299
aI300
aI301
aI302
aI303
aI304
aI305
aI306
aI307
aI309
aI310
aI311
aI312
aI313
aI314
aI315
aI316
aI317
aI318
aI319
aI320
aI321
aI322
aI323
aI324
aI325
aI326
aI327
aI328
aI329
aI330
aI422
aI427
aI430
aI431
aI432
aI433
aI434
aI435
aI436
aI437
aI438
aI439
aI440
aI441
aI442
aI444
aI445
aI446
aI448
aI449
aI450
aI451
aI452
aI453
aI454
aI455
aI458
aI459
aI462
aI463
aI464
aI465
aI466
aI467
aI468
aI469
aI472
aI473
aI480
aI481
aI482
aI485
aI487
aI488
aI490
aI492
aI502
aI504
aI510
aI512
aI514
aI515
aI516
aI520
aI524
aI525
aI538
aI542
aI543
aI544
aI545
aI546
aI547
aI548
aI549
aI550
aI552
aI560
aI563
aI566
aI567
aI568
aI569
aI570
aI571
aI572
aI574
aI579
aI705
aI706
aI769
aI770
aI771
aI772
aI773
aI774
aI803
aI804
aI805
aI806
aI842
as.