(dp0
I1
(lp1
I110
aI111
aI112
aI113
asI2
(lp2
I106
aI107
aI108
aI109
asI3
(lp3
I4
aI8
aI10
aI25
aI32
aI41
aI42
aI47
aI49
aI64
aI66
asI4
(lp4
I14
aI15
aI16
aI17
aI18
aI19
aI20
aI21
aI23
aI24
aI26
aI28
aI29
aI30
aI31
aI32
aI33
aI36
aI39
aI40
aI41
aI42
aI43
aI44
aI46
aI48
aI49
aI51
aI52
aI53
aI56
aI57
aI58
aI59
aI60
aI62
aI63
aI67
aI68
aI69
aI70
aI71
aI72
aI73
aI74
aI75
aI76
aI92
aI93
aI94
aI95
aI96
aI97
aI98
aI114
aI115
aI116
aI117
aI118
aI119
aI120
aI121
aI122
aI123
aI124
aI125
aI126
aI127
aI132
aI133
aI134
aI135
aI136
aI137
aI138
aI139
aI140
aI141
aI142
aI143
aI144
aI145
aI146
aI147
aI148
aI149
aI150
aI151
aI152
aI153
aI155
aI156
aI157
aI158
aI159
aI160
aI161
aI162
aI163
aI164
aI165
aI166
aI167
aI168
aI169
aI170
aI171
aI172
aI173
aI174
aI175
aI176
aI177
aI178
aI179
aI180
aI181
aI182
aI183
aI184
aI185
aI186
aI187
aI188
aI189
aI190
aI191
aI192
aI193
aI194
aI195
aI196
aI197
aI198
aI199
aI200
aI201
aI202
aI229
aI230
aI231
aI232
aI233
aI235
aI238
aI258
aI259
aI260
aI261
aI262
aI263
aI264
aI265
aI266
aI267
aI268
aI269
aI270
aI271
aI272
aI273
aI274
aI275
asI5
(lp5
I106
aI107
aI108
aI109
asI6
(lp6
I80
aI87
aI91
aI99
aI100
aI101
aI102
aI104
aI202
aI204
aI205
aI212
aI213
aI214
aI215
aI216
aI217
aI218
aI219
aI220
aI221
aI223
aI224
aI225
aI227
aI229
aI230
aI231
aI232
aI233
aI235
aI238
aI276
asI7
(lp7
I239
aI240
aI241
aI242
aI243
aI244
aI245
aI248
asI8
(lp8
I110
aI111
aI112
aI113
asI9
(lp9
I241
aI247
aI249
aI250
aI251
aI252
aI253
aI254
aI257
asI10
(lp10
I232
aI236
asI11
(lp11
I233
aI236
asI12
(lp12
I229
aI230
aI231
aI232
aI233
aI235
aI238
asI13
(lp13
I239
aI240
aI241
aI242
aI243
aI244
aI245
aI248
asI14
(lp14
I77
aI78
aI79
aI80
aI81
aI82
aI85
aI86
aI87
aI88
aI99
aI100
aI101
aI102
aI103
aI104
aI202
aI204
aI205
aI207
aI209
aI212
aI213
aI214
aI215
aI216
aI217
aI218
aI219
aI220
aI221
aI223
aI224
aI225
aI227
aI229
aI230
aI231
aI232
aI233
aI235
aI238
aI251
aI256
asI15
(lp15
I99
aI100
aI101
aI102
aI103
aI104
aI202
aI204
aI205
aI207
aI208
aI212
aI213
aI214
aI215
aI216
aI217
aI218
aI219
aI220
aI221
aI222
aI224
aI225
aI226
aI229
aI230
aI231
aI232
aI233
aI235
aI238
aI276
asI16
(lp16
I83
aI84
aI99
aI100
aI101
aI102
aI202
aI204
aI205
aI207
aI208
aI212
aI213
aI214
aI215
aI216
aI217
aI218
aI219
aI220
aI221
aI222
aI224
aI225
aI226
aI229
aI230
aI231
aI232
aI233
aI235
aI238
asI17
(lp17
I249
aI251
aI254
aI256
asI18
(lp18
I80
aI89
aI99
aI100
aI101
aI102
aI103
aI202
aI204
aI205
aI207
aI208
aI212
aI213
aI214
aI215
aI216
aI217
aI218
aI219
aI220
aI221
aI222
aI224
aI225
aI226
aI229
aI230
aI231
aI232
aI233
aI235
aI238
aI276
asI19
(lp19
I251
aI256
asI20
(lp20
I80
aI89
aI99
aI100
aI101
aI102
aI104
aI202
aI204
aI205
aI207
aI208
aI212
aI213
aI214
aI215
aI216
aI217
aI218
aI219
aI220
aI221
aI222
aI224
aI225
aI226
aI229
aI230
aI231
aI232
aI233
aI235
aI238
aI276
asI21
(lp21
I228
aI234
aI235
aI237
asI22
(lp22
I81
aI82
aI83
aI84
aI99
aI202
aI204
aI205
aI212
aI213
aI215
aI216
aI217
aI218
aI224
aI229
aI230
aI231
aI232
aI233
aI235
aI238
asI23
(lp23
I106
aI107
aI108
aI109
asI24
(lp24
I251
aI253
aI256
asI25
(lp25
I251
aI252
aI256
asI26
(lp26
I80
aI88
aI91
aI99
aI100
aI101
aI102
aI103
aI202
aI204
aI205
aI212
aI213
aI214
aI215
aI216
aI217
aI218
aI219
aI220
aI221
aI223
aI224
aI225
aI227
aI229
aI230
aI231
aI232
aI233
aI235
aI238
aI276
asI27
(lp27
I202
aI206
aI207
aI209
aI210
aI211
aI213
aI214
aI215
aI216
aI217
aI218
aI219
aI220
aI221
aI223
aI224
aI225
aI227
aI229
aI230
aI231
aI232
aI233
aI235
aI238
aI241
aI247
aI249
aI250
aI251
aI252
aI253
aI254
aI257
asI28
(lp28
I8
aI9
aI11
aI13
aI29
aI41
aI42
aI43
aI44
aI46
aI48
aI49
aI64
aI65
aI114
aI115
asI29
(lp29
I0
aI1
aI2
aI3
aI4
aI5
aI6
aI7
aI8
aI9
aI12
aI25
aI41
aI42
aI48
aI49
aI64
aI66
asI30
(lp30
I239
aI240
aI241
aI242
aI243
aI244
aI245
aI248
aI249
aI250
aI251
aI252
aI253
aI254
aI257
asI31
(lp31
I106
aI107
aI108
aI109
asI32
(lp32
I105
asI33
(lp33
I8
aI10
aI13
aI29
aI32
aI41
aI42
aI43
aI45
aI47
aI49
aI64
aI65
asI34
(lp34
I14
aI15
aI16
aI17
aI18
aI19
aI20
aI21
aI24
aI26
aI28
aI29
aI30
aI31
aI32
aI33
aI36
aI39
aI40
aI41
aI42
aI43
aI44
aI46
aI48
aI49
aI51
aI52
aI53
aI56
aI57
aI58
aI59
aI60
aI63
aI67
aI68
aI70
aI71
aI72
aI73
aI74
aI75
aI76
aI93
aI94
aI95
aI96
aI97
aI98
aI114
aI115
aI132
aI133
aI134
aI135
aI136
aI137
aI138
aI139
aI140
aI141
aI142
aI143
aI144
aI145
aI146
aI147
aI148
aI149
aI150
aI151
aI152
aI153
aI154
aI155
aI156
aI157
aI158
aI159
aI160
aI161
aI162
aI163
aI164
aI193
aI194
aI195
aI196
aI197
aI198
aI199
aI200
aI201
aI202
aI229
aI230
aI231
aI232
aI233
aI235
aI238
aI271
aI272
aI273
aI274
aI275
asI35
(lp35
I110
aI111
aI112
aI113
asI36
(lp36
I241
aI247
asI37
(lp37
I106
aI107
aI108
aI109
asI38
(lp38
I251
aI255
asI39
(lp39
I106
aI107
aI108
aI109
asI40
(lp40
I105
asI41
(lp41
I110
aI111
aI112
aI113
asI42
(lp42
I106
aI107
aI108
aI109
asI43
(lp43
I15
aI22
aI26
aI28
aI29
aI30
aI31
aI32
aI33
aI34
aI35
aI37
aI38
aI39
aI40
aI41
aI42
aI43
aI44
aI46
aI48
aI49
aI51
aI52
aI53
aI54
aI55
aI56
aI57
aI58
aI59
aI60
aI63
aI114
aI115
aI128
aI129
aI130
aI131
asI44
(lp44
I4
aI8
aI9
aI11
aI25
aI41
aI42
aI48
aI49
aI64
aI66
asI45
(lp45
I110
aI111
aI112
aI113
asI46
(lp46
I80
aI87
aI91
aI99
aI100
aI101
aI102
aI103
aI202
aI204
aI205
aI212
aI213
aI214
aI215
aI216
aI217
aI218
aI219
aI220
aI221
aI223
aI224
aI225
aI227
aI229
aI230
aI231
aI232
aI233
aI235
aI238
aI276
asI47
(lp47
I8
aI9
aI12
aI13
aI29
aI34
aI35
aI41
aI42
aI43
aI44
aI46
aI48
aI49
aI64
aI65
aI114
aI115
aI128
aI129
aI130
aI131
asI48
(lp48
I106
aI107
aI108
aI109
asI49
(lp49
I110
aI111
aI112
aI113
asI50
(lp50
I80
aI87
aI91
aI99
aI100
aI101
aI102
aI103
aI202
aI204
aI205
aI212
aI213
aI214
aI215
aI216
aI217
aI218
aI219
aI220
aI221
aI223
aI224
aI225
aI227
aI229
aI230
aI231
aI232
aI233
aI235
aI238
aI276
asI51
(lp51
I239
aI240
aI241
aI242
aI243
aI244
aI245
aI248
aI249
aI250
aI251
aI252
aI253
aI254
aI257
asI52
(lp52
I241
aI246
asI53
(lp53
I80
aI87
aI91
aI99
aI100
aI101
aI102
aI104
aI202
aI204
aI205
aI212
aI213
aI214
aI215
aI216
aI217
aI218
aI219
aI220
aI221
aI223
aI224
aI225
aI227
aI229
aI230
aI231
aI232
aI233
aI235
aI238
aI276
asI54
(lp54
I80
aI90
aI99
aI100
aI101
aI102
aI103
aI202
aI204
aI205
aI212
aI213
aI214
aI215
aI216
aI217
aI218
aI219
aI220
aI221
aI223
aI224
aI225
aI227
aI229
aI230
aI231
aI232
aI233
aI235
aI238
aI276
asI55
(lp55
I105
asI56
(lp56
I202
aI206
aI210
aI213
aI215
aI216
aI217
aI218
aI224
aI229
aI230
aI231
aI232
aI233
aI235
aI238
asI57
(lp57
I110
aI111
aI112
aI113
asI58
(lp58
I110
aI111
aI112
aI113
asI59
(lp59
I105
asI60
(lp60
I239
aI240
aI241
aI242
aI243
aI244
aI245
aI248
asI61
(lp61
I202
aI203
aI206
aI207
aI209
aI210
aI213
aI214
aI215
aI216
aI217
aI222
aI223
aI224
aI229
aI230
aI231
aI232
aI233
aI235
aI236
aI238
aI251
aI252
aI256
asI62
(lp62
I110
aI111
aI112
aI113
asI63
(lp63
I202
aI206
aI207
aI209
aI210
aI211
aI213
aI214
aI215
aI216
aI217
aI218
aI219
aI220
aI221
aI223
aI224
aI225
aI227
aI229
aI230
aI231
aI232
aI233
aI235
aI238
aI251
aI256
asI64
(lp64
I80
aI88
aI91
aI99
aI100
aI101
aI102
aI104
aI202
aI204
aI205
aI212
aI213
aI214
aI215
aI216
aI217
aI218
aI219
aI220
aI221
aI223
aI224
aI225
aI227
aI229
aI230
aI231
aI232
aI233
aI235
aI238
aI276
asI65
(lp65
I106
aI107
aI108
aI109
asI66
(lp66
I105
asI67
(lp67
I110
aI111
aI112
aI113
asI68
(lp68
I80
aI90
aI99
aI100
aI101
aI102
aI104
aI202
aI204
aI205
aI212
aI213
aI214
aI215
aI216
aI217
aI218
aI219
aI220
aI221
aI223
aI224
aI225
aI227
aI229
aI230
aI231
aI232
aI233
aI235
aI238
aI276
asI69
(lp69
I110
aI111
aI112
aI113
asI70
(lp70
I26
aI27
aI28
aI30
aI31
aI32
aI33
aI34
aI35
aI37
aI38
aI41
aI42
aI43
aI44
aI46
aI48
aI49
aI50
aI51
aI52
aI54
aI55
aI56
aI57
aI58
aI61
aI63
aI114
aI115
aI128
aI129
aI130
aI131
asI71
(lp71
I202
aI203
aI206
aI207
aI208
aI210
aI211
aI213
aI214
aI215
aI216
aI217
aI218
aI219
aI220
aI221
aI222
aI224
aI225
aI226
aI229
aI230
aI231
aI232
aI233
aI235
aI238
asI72
(lp72
I110
aI111
aI112
aI113
asI73
(lp73
I241
aI247
as.