(dp0
I1
(lp1
I0
aI1
aI2
aI4
aI5
aI8
aI12
aI25
aI26
aI29
aI32
aI47
aI48
aI51
aI52
aI53
aI55
aI56
aI58
aI61
aI65
aI76
aI77
aI79
aI81
aI82
aI84
aI85
aI88
aI89
aI90
aI91
aI92
aI93
aI106
aI113
aI114
aI115
aI116
aI117
aI118
aI133
aI134
aI135
aI136
asI2
(lp2
I0
aI2
aI4
aI5
aI8
aI12
aI25
aI26
aI29
aI32
aI38
aI41
aI44
aI51
aI52
aI53
aI56
aI61
aI76
aI77
aI79
aI85
aI88
aI106
aI113
aI114
aI115
aI116
aI117
aI118
aI133
aI134
aI135
aI136
asI3
(lp3
I0
aI1
aI33
aI51
aI52
aI53
aI56
aI61
aI76
aI77
aI79
aI85
aI88
asI4
(lp4
I0
aI2
aI4
aI5
aI8
aI10
aI12
aI13
aI14
aI15
aI16
aI25
aI26
aI27
aI28
aI29
aI30
aI32
aI36
aI37
aI39
aI40
aI41
aI44
aI45
aI47
aI51
aI52
aI53
aI56
aI61
aI76
aI77
aI79
aI85
aI88
aI106
aI108
aI113
aI114
aI115
aI116
aI117
aI118
aI133
aI134
aI135
aI136
aI142
asI5
(lp5
I0
aI2
aI4
aI5
aI8
aI12
aI13
aI14
aI15
aI16
aI20
aI25
aI26
aI29
aI32
aI36
aI37
aI39
aI40
aI41
aI45
aI46
aI51
aI52
aI53
aI54
aI55
aI56
aI57
aI58
aI61
aI62
aI63
aI66
aI68
aI70
aI71
aI75
aI76
aI77
aI79
aI85
aI88
aI89
aI90
aI91
aI92
aI93
aI106
aI108
aI113
aI114
aI115
aI116
aI117
aI118
aI119
aI120
aI121
aI122
aI130
aI131
aI132
aI133
aI134
aI135
aI136
aI137
aI138
aI139
aI143
aI144
aI145
aI151
asI6
(lp6
I0
aI2
aI4
aI5
aI8
aI10
aI12
aI13
aI14
aI15
aI16
aI25
aI26
aI29
aI30
aI32
aI36
aI37
aI39
aI40
aI41
aI45
aI46
aI51
aI52
aI53
aI56
aI61
aI76
aI77
aI79
aI85
aI88
aI106
aI108
aI113
aI114
aI115
aI116
aI117
aI118
aI119
aI120
aI121
aI122
aI130
aI131
aI132
aI133
aI134
aI135
aI136
aI140
aI141
aI143
aI144
aI145
aI151
asI7
(lp7
I0
aI2
aI4
aI5
aI8
aI12
aI13
aI14
aI15
aI16
aI25
aI26
aI29
aI32
aI36
aI37
aI39
aI40
aI41
aI45
aI46
aI51
aI52
aI53
aI56
aI61
aI76
aI77
aI79
aI85
aI88
aI106
aI108
aI113
aI114
aI115
aI116
aI117
aI118
aI119
aI120
aI121
aI122
aI130
aI131
aI132
aI133
aI134
aI135
aI136
aI140
aI141
aI143
aI144
aI145
aI151
asI8
(lp8
I0
aI2
aI4
aI5
aI8
aI12
aI13
aI14
aI15
aI16
aI20
aI22
aI25
aI26
aI29
aI32
aI36
aI37
aI39
aI40
aI41
aI45
aI46
aI51
aI52
aI53
aI55
aI56
aI58
aI61
aI62
aI63
aI66
aI68
aI70
aI71
aI75
aI76
aI77
aI79
aI85
aI88
aI89
aI90
aI91
aI92
aI93
aI106
aI108
aI113
aI114
aI115
aI116
aI117
aI118
aI119
aI120
aI121
aI122
aI130
aI131
aI132
aI133
aI134
aI135
aI136
aI137
aI138
aI139
aI140
aI141
aI143
aI144
aI145
aI151
asI9
(lp9
I0
aI1
aI39
aI42
aI51
aI52
aI53
aI56
aI61
aI76
aI77
aI79
aI85
aI88
asI10
(lp10
I0
aI1
aI23
aI39
aI42
aI51
aI52
aI53
aI56
aI58
aI60
aI61
aI68
aI71
aI75
aI76
aI77
aI79
aI85
aI88
aI89
aI90
aI91
aI92
aI93
aI123
aI124
aI125
aI126
aI127
aI128
aI129
aI139
asI11
(lp11
I0
aI2
aI4
aI5
aI8
aI10
aI12
aI25
aI26
aI29
aI30
aI32
aI51
aI52
aI53
aI55
aI56
aI58
aI61
aI62
aI63
aI70
aI71
aI76
aI77
aI79
aI85
aI88
aI89
aI90
aI91
aI92
aI93
aI94
aI96
aI97
aI98
aI102
aI104
aI106
aI113
aI114
aI115
aI116
aI117
aI118
aI133
aI134
aI135
aI136
aI137
aI138
aI150
asI12
(lp12
I0
aI1
aI2
aI4
aI5
aI8
aI12
aI13
aI14
aI15
aI16
aI20
aI25
aI26
aI29
aI32
aI36
aI37
aI39
aI40
aI41
aI42
aI45
aI46
aI51
aI52
aI53
aI55
aI56
aI58
aI62
aI63
aI65
aI66
aI68
aI69
aI70
aI71
aI75
aI76
aI77
aI79
aI85
aI88
aI89
aI90
aI91
aI92
aI93
aI96
aI104
aI106
aI108
aI113
aI114
aI115
aI116
aI117
aI118
aI119
aI120
aI121
aI122
aI130
aI131
aI132
aI133
aI134
aI135
aI136
aI137
aI138
aI139
aI140
aI141
aI143
aI144
aI145
aI151
asI13
(lp13
I0
aI1
aI4
aI5
aI8
aI12
aI13
aI14
aI15
aI16
aI25
aI26
aI29
aI32
aI51
aI52
aI53
aI56
aI61
aI76
aI77
aI79
aI81
aI82
aI83
aI84
aI85
aI88
aI106
aI108
aI113
aI114
aI115
aI116
aI117
aI118
aI119
aI120
aI121
aI122
aI133
aI134
aI135
aI136
aI151
asI14
(lp14
I0
aI1
aI33
aI51
aI52
aI53
aI56
aI61
aI76
aI77
aI79
aI85
aI88
asI15
(lp15
I0
aI2
aI4
aI5
aI8
aI12
aI13
aI14
aI15
aI16
aI20
aI25
aI26
aI29
aI32
aI34
aI51
aI52
aI53
aI56
aI61
aI76
aI77
aI79
aI85
aI88
aI106
aI108
aI113
aI114
aI115
aI116
aI117
aI118
aI119
aI120
aI121
aI122
aI133
aI134
aI135
aI136
aI151
asI16
(lp16
I0
aI2
aI4
aI5
aI8
aI10
aI12
aI13
aI14
aI15
aI16
aI25
aI26
aI29
aI30
aI32
aI36
aI37
aI39
aI40
aI41
aI45
aI46
aI51
aI52
aI53
aI56
aI61
aI76
aI77
aI79
aI85
aI88
aI106
aI108
aI113
aI114
aI115
aI116
aI117
aI118
aI119
aI120
aI121
aI122
aI130
aI131
aI132
aI133
aI134
aI135
aI136
aI140
aI141
aI143
aI144
aI145
aI151
asI17
(lp17
I0
aI1
aI2
aI3
aI8
aI9
aI21
aI26
aI29
aI51
aI52
aI53
aI56
aI61
aI76
aI77
aI79
aI85
aI88
aI107
aI134
asI18
(lp18
I0
aI2
aI4
aI5
aI8
aI10
aI12
aI13
aI14
aI15
aI16
aI25
aI26
aI27
aI28
aI29
aI30
aI32
aI36
aI37
aI39
aI40
aI41
aI45
aI46
aI51
aI52
aI53
aI56
aI61
aI76
aI77
aI79
aI85
aI88
aI106
aI108
aI113
aI114
aI115
aI116
aI117
aI118
aI119
aI120
aI121
aI122
aI130
aI131
aI132
aI133
aI134
aI135
aI136
aI140
aI141
aI142
aI143
aI144
aI145
aI151
asI19
(lp19
I0
aI1
aI4
aI5
aI7
aI8
aI12
aI14
aI16
aI25
aI26
aI29
aI32
aI35
aI39
aI42
aI51
aI52
aI53
aI55
aI56
aI58
aI61
aI65
aI76
aI77
aI79
aI81
aI82
aI83
aI84
aI85
aI88
aI89
aI90
aI91
aI92
aI93
aI106
aI113
aI114
aI115
aI116
aI117
aI118
aI119
aI120
aI121
aI122
aI133
aI134
aI135
aI136
aI151
asI20
(lp20
I1
aI23
aI51
aI52
aI53
aI56
aI58
aI60
aI76
aI77
aI79
aI85
aI89
aI90
aI91
aI92
aI93
aI123
aI124
aI125
aI126
aI127
aI128
aI129
asI21
(lp21
I0
aI1
aI33
aI51
aI52
aI53
aI56
aI61
aI76
aI77
aI79
aI85
aI88
asI22
(lp22
I0
aI2
aI4
aI5
aI8
aI10
aI12
aI13
aI14
aI15
aI16
aI17
aI25
aI26
aI27
aI28
aI29
aI30
aI31
aI32
aI36
aI37
aI39
aI40
aI45
aI51
aI52
aI53
aI56
aI61
aI76
aI77
aI79
aI85
aI88
aI106
aI108
aI113
aI114
aI115
aI116
aI117
aI118
aI133
aI134
aI135
aI136
aI142
asI23
(lp23
I0
aI2
aI4
aI5
aI8
aI12
aI13
aI14
aI15
aI16
aI25
aI26
aI29
aI32
aI36
aI37
aI39
aI40
aI45
aI51
aI52
aI53
aI56
aI61
aI76
aI77
aI79
aI85
aI88
aI106
aI108
aI113
aI114
aI115
aI116
aI117
aI118
aI133
aI134
aI135
aI136
aI140
aI141
asI24
(lp24
I0
aI1
aI23
aI39
aI42
aI51
aI52
aI53
aI56
aI58
aI60
aI61
aI68
aI71
aI75
aI76
aI77
aI79
aI85
aI88
aI89
aI90
aI91
aI92
aI93
aI123
aI124
aI125
aI126
aI127
aI128
aI129
asI25
(lp25
I0
aI2
aI4
aI5
aI7
aI8
aI12
aI13
aI14
aI15
aI16
aI20
aI25
aI26
aI29
aI32
aI35
aI36
aI37
aI39
aI40
aI41
aI42
aI45
aI46
aI51
aI52
aI53
aI55
aI56
aI58
aI59
aI61
aI62
aI63
aI64
aI65
aI66
aI67
aI68
aI70
aI71
aI72
aI73
aI74
aI75
aI76
aI77
aI79
aI81
aI82
aI83
aI84
aI85
aI86
aI87
aI88
aI89
aI90
aI91
aI92
aI93
aI106
aI108
aI113
aI114
aI115
aI116
aI117
aI118
aI119
aI120
aI121
aI122
aI130
aI131
aI132
aI133
aI134
aI135
aI136
aI137
aI138
aI139
aI140
aI141
aI143
aI144
aI145
aI151
asI26
(lp26
I0
aI1
aI2
aI4
aI5
aI8
aI10
aI12
aI13
aI14
aI15
aI16
aI17
aI25
aI26
aI28
aI29
aI30
aI31
aI32
aI36
aI37
aI39
aI40
aI45
aI51
aI52
aI53
aI55
aI56
aI58
aI61
aI65
aI76
aI77
aI79
aI82
aI84
aI85
aI88
aI89
aI90
aI91
aI92
aI93
aI106
aI108
aI113
aI114
aI115
aI116
aI117
aI118
aI133
aI134
aI135
aI136
aI142
asI27
(lp27
I0
aI1
aI8
aI9
aI25
aI26
aI29
aI32
aI33
aI51
aI52
aI53
aI56
aI61
aI76
aI77
aI79
aI85
aI88
aI134
asI28
(lp28
I0
aI1
aI2
aI4
aI5
aI7
aI8
aI12
aI13
aI14
aI15
aI16
aI25
aI26
aI27
aI29
aI31
aI32
aI35
aI36
aI37
aI39
aI40
aI45
aI51
aI52
aI53
aI55
aI56
aI58
aI61
aI65
aI76
aI77
aI79
aI81
aI82
aI84
aI85
aI88
aI89
aI90
aI91
aI92
aI93
aI106
aI108
aI113
aI114
aI115
aI116
aI117
aI118
aI119
aI120
aI121
aI122
aI133
aI134
aI135
aI136
aI142
aI151
asI29
(lp29
I0
aI1
aI51
aI52
aI53
aI56
aI61
aI76
aI77
aI79
aI85
aI88
asI30
(lp30
I0
aI2
aI4
aI5
aI8
aI12
aI13
aI14
aI15
aI16
aI20
aI25
aI26
aI29
aI32
aI36
aI37
aI39
aI40
aI41
aI45
aI46
aI51
aI52
aI53
aI55
aI56
aI58
aI61
aI62
aI63
aI66
aI68
aI70
aI71
aI72
aI73
aI74
aI75
aI76
aI77
aI78
aI79
aI80
aI85
aI88
aI89
aI90
aI91
aI92
aI93
aI94
aI96
aI97
aI98
aI102
aI103
aI104
aI106
aI108
aI113
aI114
aI115
aI116
aI117
aI118
aI119
aI120
aI121
aI122
aI130
aI131
aI132
aI133
aI134
aI135
aI136
aI137
aI138
aI139
aI140
aI141
aI143
aI144
aI145
aI150
aI151
asI31
(lp31
I0
aI2
aI4
aI5
aI8
aI12
aI13
aI14
aI15
aI16
aI20
aI25
aI26
aI29
aI32
aI36
aI37
aI39
aI40
aI41
aI45
aI46
aI47
aI48
aI51
aI52
aI53
aI54
aI55
aI56
aI58
aI61
aI62
aI63
aI66
aI68
aI70
aI71
aI75
aI76
aI77
aI79
aI85
aI88
aI89
aI90
aI91
aI92
aI93
aI106
aI108
aI113
aI114
aI115
aI116
aI117
aI118
aI119
aI120
aI121
aI122
aI130
aI131
aI132
aI133
aI134
aI135
aI136
aI137
aI138
aI139
aI143
aI144
aI145
aI151
asI32
(lp32
I0
aI2
aI4
aI5
aI8
aI10
aI12
aI13
aI14
aI15
aI16
aI25
aI26
aI27
aI28
aI29
aI30
aI32
aI36
aI37
aI39
aI40
aI45
aI47
aI51
aI52
aI53
aI56
aI61
aI76
aI77
aI79
aI85
aI88
aI106
aI108
aI113
aI114
aI115
aI116
aI117
aI118
aI133
aI134
aI135
aI136
aI142
asI33
(lp33
I0
aI1
aI2
aI4
aI5
aI7
aI8
aI12
aI13
aI14
aI15
aI16
aI25
aI26
aI29
aI32
aI36
aI37
aI39
aI40
aI41
aI42
aI45
aI46
aI51
aI52
aI53
aI55
aI56
aI58
aI61
aI65
aI76
aI77
aI79
aI81
aI82
aI83
aI84
aI85
aI86
aI87
aI88
aI89
aI90
aI91
aI92
aI93
aI106
aI108
aI113
aI114
aI115
aI116
aI117
aI118
aI119
aI120
aI121
aI122
aI130
aI131
aI132
aI133
aI134
aI135
aI136
aI140
aI141
aI143
aI144
aI145
aI151
asI34
(lp34
I0
aI1
aI2
aI4
aI5
aI7
aI8
aI12
aI13
aI14
aI15
aI16
aI25
aI26
aI29
aI32
aI51
aI52
aI53
aI55
aI56
aI58
aI61
aI65
aI76
aI77
aI79
aI85
aI86
aI88
aI89
aI90
aI91
aI92
aI93
aI106
aI108
aI113
aI114
aI115
aI116
aI117
aI118
aI119
aI120
aI121
aI122
aI133
aI134
aI135
aI136
aI151
asI35
(lp35
I0
aI1
aI8
aI9
aI14
aI15
aI19
aI24
aI25
aI26
aI29
aI32
aI39
aI42
aI51
aI52
aI53
aI56
aI61
aI76
aI77
aI79
aI85
aI88
aI106
aI107
aI114
aI115
aI116
aI118
aI134
asI36
(lp36
I0
aI1
aI8
aI21
aI24
aI25
aI26
aI29
aI32
aI34
aI51
aI52
aI53
aI56
aI61
aI76
aI77
aI79
aI85
aI88
aI106
aI107
aI113
aI114
aI115
aI116
aI118
aI134
asI37
(lp37
I1
aI23
aI51
aI52
aI53
aI56
aI58
aI60
aI76
aI77
aI79
aI85
aI89
aI90
aI91
aI92
aI93
aI123
aI124
aI125
aI126
aI127
aI128
aI129
asI38
(lp38
I0
aI2
aI4
aI5
aI8
aI12
aI13
aI14
aI15
aI16
aI25
aI26
aI29
aI32
aI36
aI37
aI39
aI40
aI41
aI45
aI46
aI51
aI52
aI53
aI56
aI61
aI76
aI77
aI79
aI85
aI88
aI106
aI108
aI113
aI114
aI115
aI116
aI117
aI118
aI119
aI120
aI121
aI122
aI130
aI131
aI132
aI133
aI134
aI135
aI136
aI140
aI141
aI143
aI144
aI145
aI151
asI39
(lp39
I0
aI2
aI4
aI5
aI8
aI10
aI12
aI13
aI14
aI15
aI16
aI25
aI26
aI29
aI30
aI32
aI36
aI37
aI39
aI40
aI41
aI45
aI46
aI51
aI52
aI53
aI56
aI61
aI76
aI77
aI79
aI85
aI88
aI106
aI108
aI113
aI114
aI115
aI116
aI117
aI118
aI119
aI120
aI121
aI122
aI130
aI131
aI132
aI133
aI134
aI135
aI136
aI140
aI141
aI143
aI144
aI145
aI151
asI40
(lp40
I0
aI1
aI4
aI5
aI7
aI8
aI12
aI14
aI16
aI25
aI26
aI29
aI32
aI35
aI39
aI42
aI51
aI52
aI53
aI55
aI56
aI58
aI61
aI65
aI76
aI77
aI79
aI81
aI82
aI83
aI84
aI85
aI88
aI89
aI90
aI91
aI92
aI93
aI106
aI113
aI114
aI115
aI116
aI117
aI118
aI119
aI120
aI121
aI122
aI133
aI134
aI135
aI136
aI151
asI41
(lp41
I0
aI1
aI2
aI4
aI5
aI6
aI7
aI8
aI10
aI12
aI13
aI14
aI15
aI16
aI25
aI26
aI29
aI30
aI32
aI35
aI36
aI37
aI39
aI40
aI41
aI42
aI45
aI46
aI51
aI52
aI53
aI55
aI56
aI58
aI61
aI65
aI76
aI77
aI79
aI81
aI82
aI83
aI84
aI85
aI86
aI88
aI89
aI90
aI91
aI92
aI93
aI106
aI108
aI113
aI114
aI115
aI116
aI117
aI118
aI119
aI120
aI121
aI122
aI130
aI131
aI132
aI133
aI134
aI135
aI136
aI140
aI141
aI143
aI144
aI145
aI151
asI42
(lp42
I0
aI1
aI8
aI24
aI25
aI26
aI29
aI32
aI51
aI52
aI53
aI56
aI61
aI76
aI77
aI79
aI85
aI88
aI106
aI107
aI111
aI113
aI114
aI115
aI116
aI118
aI121
aI134
asI43
(lp43
I0
aI2
aI4
aI5
aI8
aI12
aI13
aI14
aI15
aI16
aI20
aI25
aI26
aI29
aI32
aI43
aI51
aI52
aI53
aI56
aI61
aI76
aI77
aI79
aI85
aI88
aI106
aI108
aI113
aI114
aI115
aI116
aI117
aI118
aI119
aI120
aI121
aI122
aI133
aI134
aI135
aI136
aI151
asI44
(lp44
I1
aI49
aI51
aI52
aI53
aI56
aI76
aI77
aI79
aI85
asI45
(lp45
I0
aI1
aI2
aI4
aI5
aI8
aI12
aI13
aI14
aI15
aI16
aI25
aI26
aI29
aI32
aI51
aI52
aI53
aI56
aI61
aI76
aI77
aI79
aI85
aI88
aI106
aI108
aI113
aI114
aI115
aI116
aI117
aI118
aI133
aI134
aI135
aI136
asI46
(lp46
I0
aI1
aI4
aI5
aI8
aI12
aI25
aI26
aI29
aI32
aI51
aI52
aI53
aI56
aI61
aI76
aI77
aI79
aI81
aI82
aI83
aI84
aI85
aI88
aI106
aI113
aI114
aI115
aI116
aI117
aI118
aI133
aI134
aI135
aI136
asI47
(lp47
I1
aI23
aI51
aI52
aI53
aI56
aI58
aI60
aI76
aI77
aI79
aI85
aI89
aI90
aI91
aI92
aI93
aI123
aI124
aI125
aI126
aI127
aI128
aI129
asI48
(lp48
I0
aI2
aI4
aI5
aI8
aI12
aI13
aI14
aI15
aI16
aI20
aI25
aI26
aI29
aI32
aI36
aI37
aI39
aI40
aI41
aI45
aI46
aI51
aI52
aI53
aI55
aI56
aI58
aI61
aI62
aI63
aI66
aI68
aI70
aI71
aI75
aI76
aI77
aI79
aI85
aI88
aI89
aI90
aI91
aI92
aI93
aI106
aI108
aI113
aI114
aI115
aI116
aI117
aI118
aI119
aI120
aI121
aI122
aI130
aI131
aI132
aI133
aI134
aI135
aI136
aI137
aI138
aI139
aI140
aI141
aI143
aI144
aI145
aI151
asI49
(lp49
I0
aI2
aI4
aI5
aI8
aI10
aI12
aI13
aI14
aI15
aI16
aI19
aI24
aI25
aI26
aI27
aI28
aI29
aI30
aI32
aI36
aI37
aI39
aI40
aI41
aI45
aI46
aI51
aI52
aI53
aI56
aI61
aI76
aI77
aI79
aI85
aI88
aI106
aI107
aI108
aI113
aI114
aI115
aI116
aI117
aI118
aI119
aI120
aI121
aI122
aI130
aI131
aI132
aI133
aI134
aI135
aI136
aI140
aI141
aI142
aI143
aI144
aI145
aI151
asI50
(lp50
I1
aI50
aI51
aI52
aI53
aI56
aI76
aI77
aI79
aI85
asI51
(lp51
I0
aI2
aI4
aI5
aI8
aI9
aI10
aI11
aI12
aI14
aI15
aI18
aI19
aI24
aI25
aI26
aI29
aI32
aI39
aI42
aI51
aI52
aI53
aI56
aI61
aI76
aI77
aI79
aI85
aI88
aI106
aI107
aI108
aI113
aI114
aI115
aI116
aI117
aI118
aI133
aI134
aI135
aI136
asI52
(lp52
I89
aI90
aI91
aI92
aI93
aI94
aI95
aI96
aI97
aI98
aI99
aI100
aI101
aI102
aI103
aI104
aI105
aI146
aI147
aI148
aI149
aI150
asI53
(lp53
I0
aI1
aI23
aI39
aI42
aI51
aI52
aI53
aI56
aI58
aI60
aI61
aI68
aI71
aI76
aI77
aI79
aI85
aI88
aI89
aI90
aI91
aI92
aI93
aI123
aI124
aI125
aI126
aI127
aI128
aI129
aI137
aI138
asI54
(lp54
I0
aI2
aI4
aI5
aI8
aI12
aI13
aI14
aI15
aI16
aI20
aI25
aI26
aI29
aI32
aI36
aI37
aI39
aI40
aI45
aI47
aI48
aI51
aI52
aI53
aI56
aI61
aI76
aI77
aI79
aI85
aI88
aI106
aI108
aI113
aI114
aI115
aI116
aI117
aI118
aI119
aI120
aI121
aI122
aI133
aI134
aI135
aI136
aI140
aI141
aI151
asI55
(lp55
I1
aI23
aI51
aI52
aI53
aI56
aI58
aI60
aI76
aI77
aI79
aI85
aI89
aI90
aI91
aI92
aI93
aI123
aI124
aI125
aI126
aI127
aI128
aI129
asI56
(lp56
I1
aI51
aI52
aI53
aI56
aI61
aI76
aI77
aI79
aI85
asI57
(lp57
I0
aI1
aI2
aI4
aI5
aI7
aI8
aI12
aI13
aI14
aI15
aI16
aI25
aI26
aI29
aI32
aI35
aI36
aI37
aI39
aI40
aI41
aI42
aI45
aI46
aI51
aI52
aI53
aI55
aI56
aI58
aI61
aI65
aI76
aI77
aI79
aI81
aI82
aI83
aI84
aI85
aI86
aI87
aI88
aI89
aI90
aI91
aI92
aI93
aI106
aI108
aI113
aI114
aI115
aI116
aI117
aI118
aI119
aI120
aI121
aI122
aI130
aI131
aI132
aI133
aI134
aI135
aI136
aI140
aI141
aI143
aI144
aI145
aI151
asI58
(lp58
I0
aI1
aI33
aI51
aI52
aI53
aI56
aI61
aI76
aI77
aI79
aI85
asI59
(lp59
I0
aI2
aI4
aI5
aI8
aI12
aI13
aI14
aI15
aI16
aI25
aI26
aI29
aI32
aI36
aI37
aI39
aI40
aI41
aI45
aI46
aI51
aI52
aI53
aI56
aI61
aI76
aI77
aI79
aI85
aI88
aI106
aI108
aI109
aI110
aI111
aI112
aI113
aI114
aI115
aI116
aI117
aI118
aI119
aI120
aI121
aI122
aI130
aI131
aI132
aI133
aI134
aI135
aI136
aI143
aI144
aI145
aI151
asI60
(lp60
I0
aI2
aI4
aI5
aI8
aI12
aI25
aI26
aI29
aI32
aI51
aI52
aI53
aI56
aI61
aI76
aI77
aI79
aI85
aI88
aI106
aI107
aI111
aI113
aI114
aI115
aI116
aI117
aI118
aI121
aI133
aI134
aI135
aI136
asI61
(lp61
I0
aI1
aI23
aI39
aI42
aI51
aI52
aI53
aI56
aI58
aI60
aI61
aI68
aI71
aI76
aI77
aI79
aI85
aI88
aI89
aI90
aI91
aI92
aI93
aI123
aI124
aI125
aI126
aI127
aI128
aI137
aI138
as.