(dp0
I1
(lp1
I293
aI320
aI323
aI423
aI431
aI432
aI434
aI437
aI785
aI836
aI837
aI839
aI847
aI848
aI863
aI865
aI866
aI867
aI873
aI875
aI876
aI878
aI879
aI880
aI983
aI985
aI1007
aI1008
aI1009
aI1019
aI1020
aI1021
aI1022
aI1024
aI1025
aI1026
aI1027
aI1028
aI1029
aI1225
aI1265
aI1266
aI1285
asI2
(lp2
I875
aI877
aI878
aI880
aI1060
aI1061
asI3
(lp3
I514
aI518
aI528
aI533
aI1186
asI4
(lp4
I644
asI5
(lp5
I278
aI281
aI282
aI283
aI293
aI299
aI320
aI323
aI983
aI985
aI1266
asI6
(lp6
I231
aI242
aI534
aI537
aI541
aI542
aI988
asI7
(lp7
I949
aI950
aI951
asI8
(lp8
I11
aI15
aI17
aI18
aI64
aI80
aI138
aI139
aI141
aI157
aI172
aI196
aI242
aI248
aI291
aI293
aI323
aI490
aI505
aI534
aI537
aI541
aI542
aI545
aI700
aI741
aI746
aI824
aI825
aI872
aI873
aI874
aI879
aI886
aI887
aI888
aI929
aI930
aI988
aI990
aI1046
aI1047
aI1190
aI1191
aI1199
aI1200
aI1219
aI1220
aI1245
aI1246
aI1286
asI9
(lp9
I17
aI18
aI64
aI80
aI138
aI140
aI157
aI196
aI198
aI200
aI279
aI291
aI293
aI320
aI323
aI545
aI700
aI741
aI746
aI824
aI825
aI872
aI873
aI874
aI875
aI876
aI878
aI879
aI880
aI886
aI887
aI888
aI929
aI930
aI932
aI983
aI985
aI1007
aI1008
aI1009
aI1019
aI1020
aI1021
aI1022
aI1046
aI1047
aI1190
aI1191
aI1199
aI1200
aI1219
aI1220
aI1245
aI1246
aI1275
aI1280
aI1285
aI1286
asI10
(lp10
I10
aI14
aI17
aI18
aI64
aI80
aI172
aI291
aI293
aI323
aI505
aI700
aI741
aI746
aI825
aI872
aI873
aI874
aI879
aI886
aI887
aI888
aI929
aI930
aI1046
aI1047
aI1199
aI1200
aI1219
aI1220
aI1245
aI1246
aI1286
asI11
(lp11
I17
aI60
aI61
aI63
aI64
aI67
aI68
aI70
aI71
aI76
aI77
aI78
aI82
aI83
aI84
aI109
aI110
aI113
aI114
aI118
aI121
aI127
aI128
aI138
aI139
aI242
aI291
aI490
aI504
aI505
aI534
aI541
aI700
aI727
aI728
aI729
aI730
aI731
aI733
aI734
aI735
aI736
aI746
aI825
aI891
aI892
aI933
aI934
aI935
aI936
aI937
aI938
aI939
aI963
aI965
aI988
aI1092
aI1200
aI1231
asI12
(lp12
I990
asI13
(lp13
I873
aI876
aI1007
aI1008
aI1009
aI1019
aI1020
aI1021
aI1022
aI1285
asI14
(lp14
I293
aI320
aI323
aI431
aI432
aI434
aI439
aI440
aI633
aI634
aI636
aI637
aI644
aI779
aI785
aI787
aI808
aI816
aI872
aI873
aI874
aI879
aI983
aI985
aI1059
aI1060
aI1061
aI1213
aI1214
aI1219
aI1220
aI1225
aI1265
aI1266
aI1272
aI1286
asI15
(lp15
I154
aI157
aI172
aI284
aI291
aI293
aI320
aI323
aI354
aI355
aI357
aI361
aI376
aI423
aI431
aI432
aI434
aI599
aI600
aI601
aI602
aI678
aI679
aI680
aI681
aI720
aI723
aI724
aI725
aI758
aI767
aI785
aI875
aI877
aI878
aI880
aI983
aI985
aI1060
aI1061
aI1225
aI1265
aI1266
aI1284
asI16
(lp16
I284
aI290
aI293
aI320
aI323
aI421
aI431
aI432
aI434
aI435
aI599
aI600
aI602
aI674
aI675
aI678
aI680
aI782
aI785
aI872
aI873
aI874
aI879
aI983
aI985
aI1085
aI1087
aI1088
aI1219
aI1220
aI1225
aI1260
aI1261
aI1265
aI1266
aI1286
asI17
(lp17
I293
aI320
aI323
aI428
aI429
aI431
aI432
aI434
aI785
aI836
aI837
aI839
aI847
aI848
aI863
aI865
aI866
aI867
aI872
aI873
aI874
aI878
aI879
aI983
aI985
aI1024
aI1025
aI1026
aI1027
aI1028
aI1029
aI1104
aI1106
aI1219
aI1220
aI1225
aI1265
aI1266
aI1286
asI18
(lp18
I17
aI18
aI64
aI67
aI68
aI70
aI71
aI80
aI138
aI139
aI141
aI144
aI151
aI152
aI153
aI157
aI172
aI196
aI198
aI200
aI242
aI248
aI278
aI291
aI293
aI323
aI355
aI357
aI358
aI359
aI361
aI376
aI490
aI505
aI534
aI537
aI541
aI542
aI545
aI700
aI741
aI746
aI822
aI824
aI825
aI872
aI873
aI874
aI875
aI876
aI878
aI879
aI880
aI886
aI887
aI888
aI891
aI929
aI930
aI932
aI988
aI990
aI1007
aI1008
aI1009
aI1019
aI1020
aI1021
aI1022
aI1046
aI1047
aI1058
aI1059
aI1060
aI1061
aI1164
aI1165
aI1190
aI1191
aI1199
aI1200
aI1219
aI1220
aI1245
aI1246
aI1275
aI1285
aI1286
asI19
(lp19
I17
aI18
aI56
aI57
aI59
aI64
aI80
aI102
aI104
aI122
aI124
aI172
aI280
aI291
aI293
aI323
aI362
aI363
aI365
aI381
aI382
aI383
aI384
aI393
aI394
aI398
aI399
aI400
aI409
aI410
aI442
aI443
aI444
aI498
aI499
aI500
aI511
aI512
aI513
aI700
aI738
aI739
aI740
aI741
aI746
aI825
aI872
aI873
aI874
aI879
aI886
aI887
aI888
aI891
aI892
aI893
aI894
aI895
aI897
aI929
aI930
aI1046
aI1047
aI1101
aI1127
aI1128
aI1140
aI1188
aI1189
aI1199
aI1200
aI1207
aI1208
aI1213
aI1214
aI1219
aI1220
aI1245
aI1246
aI1272
aI1277
aI1283
aI1286
asI20
(lp20
I291
aI320
aI323
aI600
aI601
aI679
aI681
aI724
aI983
aI985
aI1266
asI21
(lp21
I423
aI429
aI431
aI432
aI434
aI437
aI661
aI665
aI875
aI877
aI878
aI880
aI1060
aI1061
aI1267
asI22
(lp22
I992
asI23
(lp23
I17
aI18
aI56
aI57
aI59
aI80
aI102
aI104
aI122
aI124
aI280
aI293
aI323
aI363
aI398
aI402
aI403
aI442
aI443
aI444
aI498
aI499
aI511
aI513
aI700
aI738
aI739
aI740
aI741
aI872
aI873
aI874
aI879
aI886
aI887
aI888
aI893
aI929
aI930
aI1046
aI1047
aI1101
aI1127
aI1128
aI1140
aI1188
aI1189
aI1199
aI1200
aI1207
aI1208
aI1213
aI1214
aI1219
aI1220
aI1245
aI1246
aI1272
aI1283
aI1286
asI24
(lp24
I553
aI554
aI555
aI556
aI557
aI558
aI559
aI561
aI567
aI568
asI26
(lp25
I291
aI320
aI323
aI423
aI431
aI432
aI434
aI437
aI439
aI600
aI601
aI611
aI619
aI620
aI679
aI681
aI683
aI684
aI685
aI686
aI724
aI785
aI875
aI877
aI878
aI880
aI983
aI985
aI1225
aI1265
aI1266
aI1284
asI27
(lp26
I940
aI941
aI942
aI944
asI28
(lp27
I320
aI323
aI423
aI431
aI432
aI434
aI437
aI785
aI836
aI837
aI839
aI847
aI848
aI863
aI865
aI866
aI867
aI875
aI877
aI878
aI880
aI983
aI985
aI1225
aI1265
aI1266
asI29
(lp28
I293
aI514
aI515
aI516
aI518
aI520
aI521
aI522
aI527
aI528
aI529
aI531
aI533
aI1186
asI30
(lp29
I993
aI994
asI31
(lp30
I291
aI320
aI439
aI600
aI601
aI610
aI611
aI612
aI613
aI614
aI615
aI616
aI617
aI619
aI620
aI621
aI622
aI623
aI638
aI641
aI679
aI681
aI683
aI684
aI686
aI690
aI724
aI785
aI872
aI873
aI874
aI878
aI879
aI947
aI983
aI985
aI1219
aI1220
aI1221
aI1222
aI1225
aI1265
aI1266
aI1284
aI1286
asI32
(lp31
I1141
aI1142
aI1143
aI1205
aI1206
asI33
(lp32
I17
aI18
aI56
aI57
aI59
aI64
aI80
aI91
aI93
aI138
aI139
aI141
aI157
aI172
aI196
aI198
aI200
aI219
aI232
aI233
aI242
aI247
aI248
aI289
aI291
aI293
aI301
aI302
aI323
aI355
aI356
aI490
aI496
aI499
aI503
aI505
aI509
aI510
aI527
aI532
aI534
aI537
aI541
aI542
aI545
aI700
aI738
aI741
aI744
aI746
aI789
aI790
aI791
aI792
aI794
aI797
aI824
aI825
aI865
aI866
aI869
aI870
aI871
aI872
aI873
aI874
aI879
aI886
aI887
aI888
aI891
aI929
aI930
aI988
aI990
aI1046
aI1047
aI1127
aI1128
aI1186
aI1190
aI1191
aI1199
aI1200
aI1219
aI1220
aI1233
aI1234
aI1245
aI1246
aI1272
aI1275
aI1286
asI34
(lp33
I644
aI1092
asI35
(lp34
I157
aI172
aI173
aI175
aI284
aI291
aI293
aI297
aI320
aI323
aI332
aI366
aI600
aI601
aI606
aI607
aI679
aI681
aI724
aI983
aI985
aI1266
aI1281
aI1284
asI36
(lp35
I644
asI37
(lp36
I644
aI1092
asI38
(lp37
I856
aI857
aI858
aI859
aI860
aI861
aI1147
aI1148
aI1149
asI39
(lp38
I293
aI320
aI323
aI423
aI431
aI432
aI434
aI437
aI785
aI873
aI875
aI876
aI878
aI879
aI880
aI983
aI985
aI1007
aI1008
aI1009
aI1019
aI1020
aI1021
aI1022
aI1225
aI1260
aI1261
aI1265
aI1266
aI1285
asI40
(lp39
I1064
aI1065
asI41
(lp40
I1279
asI42
(lp41
I1031
aI1272
asI43
(lp42
I291
aI293
aI320
aI439
aI600
aI601
aI610
aI611
aI612
aI614
aI616
aI617
aI619
aI620
aI621
aI622
aI623
aI679
aI681
aI683
aI684
aI686
aI690
aI724
aI785
aI872
aI873
aI874
aI879
aI947
aI983
aI985
aI1219
aI1220
aI1221
aI1222
aI1225
aI1265
aI1266
aI1284
aI1286
asI44
(lp43
I157
aI172
aI291
aI293
aI320
aI323
aI423
aI431
aI432
aI434
aI437
aI439
aI600
aI601
aI611
aI619
aI620
aI679
aI681
aI683
aI684
aI685
aI686
aI724
aI785
aI873
aI875
aI876
aI878
aI879
aI880
aI983
aI985
aI1007
aI1008
aI1009
aI1019
aI1020
aI1021
aI1022
aI1225
aI1265
aI1266
aI1284
aI1285
asI45
(lp44
I1110
asI46
(lp45
I157
aI172
aI291
aI293
aI320
aI323
aI423
aI431
aI432
aI434
aI437
aI600
aI601
aI679
aI681
aI724
aI785
aI873
aI875
aI876
aI878
aI879
aI880
aI983
aI985
aI1019
aI1020
aI1021
aI1022
aI1133
aI1134
aI1225
aI1265
aI1266
aI1268
aI1284
aI1285
asI47
(lp46
I873
aI875
aI876
aI878
aI879
aI880
aI1007
aI1008
aI1009
aI1019
aI1020
aI1021
aI1022
aI1060
aI1061
aI1285
asI48
(lp47
I242
aI505
aI727
aI728
aI734
aI736
aI934
aI935
aI937
aI1231
asI50
(lp48
I684
aI685
aI686
aI687
aI689
aI690
aI691
aI693
aI1089
aI1090
aI1091
aI1092
aI1181
aI1182
aI1272
asI51
(lp49
I826
asI52
(lp50
I293
aI320
aI323
aI418
aI419
aI421
aI431
aI432
aI434
aI435
aI439
aI440
aI644
aI782
aI785
aI872
aI873
aI874
aI879
aI983
aI985
aI1129
aI1130
aI1131
aI1168
aI1213
aI1214
aI1219
aI1220
aI1225
aI1265
aI1266
aI1272
aI1286
asI53
(lp51
I556
aI560
asI54
(lp52
I17
aI18
aI56
aI57
aI58
aI59
aI64
aI80
aI291
aI293
aI320
aI323
aI354
aI355
aI357
aI358
aI359
aI361
aI376
aI498
aI700
aI738
aI741
aI746
aI825
aI872
aI873
aI874
aI875
aI876
aI878
aI879
aI880
aI886
aI887
aI888
aI891
aI929
aI930
aI932
aI983
aI985
aI1007
aI1008
aI1009
aI1019
aI1020
aI1021
aI1022
aI1046
aI1047
aI1127
aI1128
aI1199
aI1200
aI1219
aI1220
aI1245
aI1246
aI1280
aI1285
aI1286
asI55
(lp53
I17
aI18
aI64
aI67
aI68
aI71
aI80
aI138
aI139
aI141
aI157
aI168
aI169
aI172
aI196
aI198
aI199
aI200
aI234
aI239
aI242
aI248
aI279
aI291
aI293
aI323
aI354
aI355
aI356
aI372
aI373
aI375
aI490
aI505
aI534
aI537
aI541
aI542
aI545
aI589
aI590
aI700
aI741
aI746
aI822
aI824
aI825
aI872
aI873
aI874
aI879
aI886
aI887
aI888
aI891
aI929
aI930
aI988
aI990
aI1046
aI1047
aI1058
aI1059
aI1060
aI1061
aI1092
aI1164
aI1165
aI1190
aI1191
aI1199
aI1200
aI1219
aI1220
aI1231
aI1245
aI1246
aI1286
asI56
(lp54
I17
aI18
aI56
aI57
aI59
aI64
aI80
aI102
aI104
aI280
aI291
aI293
aI320
aI323
aI353
aI354
aI355
aI362
aI363
aI364
aI376
aI381
aI382
aI385
aI386
aI387
aI498
aI499
aI500
aI511
aI512
aI700
aI738
aI739
aI741
aI746
aI825
aI872
aI873
aI874
aI879
aI886
aI887
aI888
aI891
aI892
aI893
aI894
aI895
aI897
aI929
aI930
aI983
aI985
aI1046
aI1047
aI1101
aI1127
aI1128
aI1140
aI1188
aI1189
aI1199
aI1200
aI1213
aI1214
aI1219
aI1220
aI1245
aI1246
aI1272
aI1280
aI1286
asI57
(lp55
I157
aI284
aI291
aI320
aI323
aI556
aI560
aI600
aI601
aI606
aI679
aI681
aI724
aI983
aI985
aI1266
aI1284
asI58
(lp56
I290
aI293
aI320
aI323
aI337
aI423
aI431
aI432
aI434
aI437
aI781
aI785
aI873
aI876
aI983
aI985
aI1007
aI1008
aI1009
aI1019
aI1020
aI1021
aI1022
aI1085
aI1087
aI1225
aI1265
aI1266
aI1285
asI59
(lp57
I890
aI1202
aI1272
asI60
(lp58
I17
aI18
aI36
aI37
aI38
aI42
aI64
aI80
aI138
aI139
aI141
aI148
aI157
aI172
aI196
aI198
aI200
aI221
aI224
aI242
aI243
aI248
aI279
aI291
aI293
aI323
aI490
aI505
aI534
aI537
aI541
aI542
aI545
aI685
aI690
aI700
aI741
aI746
aI819
aI824
aI825
aI872
aI873
aI874
aI878
aI879
aI886
aI887
aI888
aI929
aI930
aI946
aI988
aI990
aI1046
aI1047
aI1190
aI1191
aI1197
aI1198
aI1199
aI1200
aI1209
aI1210
aI1219
aI1220
aI1245
aI1246
aI1286
asI61
(lp59
I727
aI728
asI62
(lp60
I535
aI548
asI63
(lp61
I291
aI320
aI323
aI423
aI431
aI432
aI434
aI437
aI600
aI601
aI679
aI681
aI724
aI785
aI875
aI877
aI878
aI880
aI983
aI985
aI1133
aI1134
aI1225
aI1265
aI1266
aI1268
aI1284
asI64
(lp62
I64
aI85
aI134
aI135
aI291
aI323
aI700
aI746
aI825
asI65
(lp63
I644
asI66
(lp64
I17
aI18
aI56
aI64
aI80
aI88
aI90
aI138
aI139
aI141
aI142
aI144
aI157
aI172
aI179
aI196
aI198
aI200
aI204
aI205
aI206
aI207
aI208
aI209
aI210
aI211
aI212
aI213
aI214
aI215
aI216
aI217
aI219
aI232
aI233
aI242
aI247
aI248
aI291
aI293
aI323
aI490
aI505
aI508
aI534
aI537
aI541
aI542
aI545
aI554
aI562
aI568
aI571
aI700
aI741
aI746
aI789
aI790
aI791
aI792
aI793
aI794
aI797
aI824
aI825
aI863
aI864
aI865
aI866
aI868
aI871
aI872
aI873
aI874
aI879
aI886
aI887
aI888
aI929
aI930
aI988
aI990
aI1046
aI1047
aI1190
aI1191
aI1199
aI1200
aI1219
aI1220
aI1245
aI1246
aI1275
aI1286
asI67
(lp65
I154
aI157
aI172
aI173
aI284
aI291
aI293
aI297
aI320
aI323
aI366
aI421
aI431
aI432
aI434
aI435
aI439
aI440
aI599
aI600
aI601
aI602
aI644
aI678
aI679
aI680
aI681
aI715
aI723
aI724
aI725
aI782
aI785
aI872
aI873
aI874
aI879
aI983
aI985
aI1132
aI1133
aI1134
aI1219
aI1220
aI1225
aI1265
aI1266
aI1268
aI1272
aI1281
aI1284
aI1286
asI68
(lp66
I17
aI18
aI36
aI37
aI38
aI42
aI64
aI80
aI138
aI139
aI141
aI146
aI148
aI157
aI172
aI196
aI198
aI200
aI221
aI222
aI223
aI225
aI242
aI243
aI248
aI279
aI291
aI293
aI323
aI490
aI505
aI534
aI537
aI541
aI542
aI545
aI684
aI685
aI686
aI700
aI741
aI746
aI819
aI824
aI825
aI872
aI873
aI874
aI879
aI886
aI887
aI888
aI929
aI930
aI988
aI990
aI1046
aI1047
aI1190
aI1191
aI1197
aI1198
aI1199
aI1200
aI1219
aI1220
aI1245
aI1246
aI1286
asI69
(lp67
I836
aI837
aI838
aI840
aI841
aI842
aI843
aI844
aI845
aI1024
aI1025
aI1026
aI1027
aI1028
aI1029
aI1281
asI70
(lp68
I836
aI837
aI838
aI839
aI840
aI841
aI842
aI843
aI844
aI845
aI1024
aI1025
aI1026
aI1027
aI1028
aI1029
aI1281
asI71
(lp69
I291
aI320
aI323
aI423
aI431
aI432
aI434
aI437
aI600
aI601
aI679
aI681
aI724
aI785
aI875
aI877
aI878
aI880
aI983
aI985
aI1225
aI1251
aI1252
aI1265
aI1266
aI1284
asI72
(lp70
I17
aI18
aI32
aI35
aI36
aI37
aI38
aI42
aI56
aI57
aI59
aI64
aI80
aI91
aI93
aI122
aI124
aI129
aI131
aI147
aI157
aI172
aI219
aI221
aI222
aI223
aI225
aI232
aI233
aI242
aI243
aI247
aI289
aI291
aI293
aI301
aI302
aI323
aI355
aI356
aI389
aI390
aI391
aI392
aI404
aI406
aI407
aI408
aI415
aI416
aI442
aI443
aI444
aI447
aI448
aI450
aI453
aI454
aI455
aI456
aI457
aI458
aI459
aI460
aI461
aI462
aI463
aI490
aI496
aI499
aI503
aI504
aI505
aI509
aI510
aI513
aI527
aI532
aI534
aI537
aI541
aI542
aI645
aI646
aI647
aI648
aI649
aI651
aI653
aI654
aI656
aI657
aI658
aI684
aI685
aI686
aI700
aI738
aI740
aI741
aI744
aI746
aI768
aI769
aI771
aI772
aI773
aI774
aI775
aI777
aI789
aI790
aI791
aI792
aI794
aI797
aI821
aI825
aI865
aI866
aI869
aI870
aI871
aI872
aI873
aI874
aI879
aI886
aI887
aI888
aI891
aI920
aI921
aI923
aI925
aI926
aI929
aI930
aI991
aI1046
aI1047
aI1049
aI1050
aI1051
aI1052
aI1053
aI1077
aI1078
aI1080
aI1099
aI1127
aI1128
aI1155
aI1156
aI1186
aI1199
aI1200
aI1207
aI1208
aI1219
aI1220
aI1233
aI1234
aI1236
aI1237
aI1245
aI1246
aI1272
aI1277
aI1286
asI73
(lp71
I49
aI50
aI51
aI55
aI80
aI81
aI105
aI106
aI121
aI125
aI126
aI129
aI130
aI136
aI137
aI250
aI251
aI253
aI259
aI260
aI262
aI263
aI324
aI333
aI334
aI342
aI344
aI345
aI346
aI347
aI348
aI349
aI351
aI353
aI354
aI355
aI362
aI363
aI364
aI365
aI376
aI468
aI469
aI471
aI474
aI475
aI478
aI479
aI485
aI486
aI695
aI697
aI699
aI827
aI828
aI829
aI830
aI831
aI832
aI833
aI872
aI873
aI874
aI879
aI880
aI886
aI887
aI888
aI891
aI892
aI893
aI929
aI930
aI973
aI974
aI995
aI996
aI998
aI1046
aI1047
aI1058
aI1059
aI1060
aI1061
aI1092
aI1101
aI1126
aI1168
aI1192
aI1193
aI1199
aI1200
aI1213
aI1214
aI1219
aI1220
aI1231
aI1241
aI1242
aI1249
aI1250
aI1272
aI1286
asI74
(lp72
I50
aI55
aI56
aI57
aI59
aI64
aI67
aI68
aI71
aI80
aI81
aI91
aI93
aI121
aI125
aI126
aI129
aI131
aI136
aI137
aI157
aI158
aI159
aI160
aI172
aI219
aI232
aI233
aI234
aI236
aI237
aI242
aI247
aI289
aI291
aI293
aI301
aI302
aI320
aI323
aI355
aI356
aI376
aI442
aI443
aI444
aI447
aI448
aI450
aI453
aI454
aI455
aI456
aI457
aI458
aI459
aI460
aI461
aI462
aI463
aI467
aI468
aI469
aI471
aI474
aI475
aI478
aI479
aI486
aI488
aI490
aI496
aI499
aI503
aI504
aI505
aI509
aI510
aI527
aI532
aI534
aI537
aI541
aI542
aI576
aI577
aI645
aI646
aI648
aI649
aI650
aI651
aI652
aI653
aI654
aI655
aI656
aI695
aI699
aI700
aI738
aI744
aI746
aI789
aI790
aI791
aI792
aI794
aI797
aI822
aI825
aI827
aI828
aI829
aI830
aI831
aI832
aI833
aI865
aI866
aI869
aI870
aI871
aI872
aI873
aI874
aI879
aI880
aI886
aI887
aI888
aI891
aI929
aI930
aI983
aI985
aI991
aI995
aI996
aI998
aI1046
aI1047
aI1049
aI1050
aI1051
aI1052
aI1053
aI1058
aI1059
aI1060
aI1061
aI1092
aI1126
aI1127
aI1128
aI1164
aI1165
aI1186
aI1199
aI1200
aI1219
aI1220
aI1231
aI1233
aI1234
aI1241
aI1242
aI1249
aI1250
aI1272
aI1275
aI1280
aI1286
asI75
(lp73
I1044
aI1045
aI1046
aI1048
asI76
(lp74
I1
aI3
aI64
aI80
aI291
aI323
aI700
aI746
aI825
aI882
aI884
aI885
aI886
aI887
aI888
aI1044
aI1045
aI1046
aI1047
aI1048
asI77
(lp75
I291
aI320
aI600
aI601
aI679
aI681
aI724
aI983
aI985
aI1266
aI1284
asI78
(lp76
I291
aI320
aI324
aI363
aI594
aI599
aI600
aI601
aI608
aI631
aI632
aI633
aI634
aI635
aI636
aI637
aI678
aI679
aI681
aI682
aI724
aI726
aI748
aI749
aI751
aI753
aI754
aI755
aI757
aI785
aI872
aI873
aI874
aI879
aI880
aI898
aI899
aI900
aI905
aI940
aI941
aI943
aI980
aI983
aI985
aI1058
aI1059
aI1060
aI1061
aI1090
aI1091
aI1101
aI1119
aI1120
aI1121
aI1166
aI1167
aI1213
aI1214
aI1219
aI1220
aI1225
aI1265
aI1266
aI1272
aI1279
aI1284
aI1286
asI79
(lp77
I1135
asI80
(lp78
I320
aI323
aI423
aI431
aI432
aI434
aI437
aI785
aI875
aI877
aI878
aI880
aI983
aI985
aI1038
aI1039
aI1063
aI1225
aI1265
aI1266
asI81
(lp79
I644
aI1092
asI82
(lp80
I157
aI172
aI291
aI293
aI320
aI323
aI431
aI432
aI434
aI439
aI440
aI600
aI601
aI611
aI614
aI619
aI620
aI638
aI641
aI644
aI679
aI681
aI683
aI684
aI685
aI686
aI724
aI779
aI785
aI787
aI872
aI873
aI874
aI879
aI983
aI985
aI1172
aI1219
aI1220
aI1225
aI1265
aI1266
aI1272
aI1284
aI1286
asI83
(lp81
I421
aI431
aI432
aI434
aI630
aI631
aI632
aI633
aI634
aI636
aI637
aI782
aI785
aI872
aI873
aI874
aI879
aI880
aI898
aI899
aI901
aI902
aI903
aI904
aI905
aI1059
aI1060
aI1061
aI1090
aI1091
aI1092
aI1093
aI1094
aI1095
aI1096
aI1125
aI1126
aI1187
aI1213
aI1214
aI1219
aI1220
aI1225
aI1238
aI1255
aI1265
aI1272
aI1286
asI84
(lp82
I157
aI172
aI291
aI293
aI320
aI323
aI421
aI431
aI432
aI434
aI435
aI439
aI440
aI600
aI601
aI644
aI679
aI681
aI724
aI779
aI782
aI785
aI787
aI872
aI873
aI874
aI879
aI983
aI985
aI1133
aI1134
aI1219
aI1220
aI1225
aI1265
aI1266
aI1268
aI1272
aI1284
aI1286
asI85
(lp83
I242
aI788
aI789
aI790
aI791
aI792
aI794
aI795
aI796
aI797
asI86
(lp84
I881
aI883
aI886
aI887
aI888
aI1044
aI1045
aI1046
aI1048
asI87
(lp85
I627
aI628
aI629
aI1270
asI88
(lp86
I157
aI172
aI291
aI293
aI320
aI323
aI431
aI432
aI434
aI437
aI439
aI600
aI601
aI611
aI612
aI613
aI614
aI615
aI617
aI618
aI619
aI620
aI638
aI641
aI643
aI679
aI681
aI683
aI684
aI685
aI686
aI724
aI785
aI872
aI873
aI874
aI879
aI983
aI985
aI1007
aI1008
aI1009
aI1019
aI1020
aI1021
aI1022
aI1219
aI1220
aI1221
aI1225
aI1265
aI1266
aI1284
aI1286
asI89
(lp87
I17
aI18
aI64
aI80
aI279
aI291
aI293
aI323
aI700
aI741
aI746
aI825
aI872
aI873
aI874
aI879
aI886
aI887
aI888
aI929
aI930
aI1046
aI1047
aI1199
aI1200
aI1219
aI1220
aI1245
aI1246
aI1286
asI90
(lp88
I1089
aI1092
aI1181
aI1182
asI91
(lp89
I142
aI143
aI144
aI157
aI172
aI278
aI291
aI293
aI320
aI323
aI600
aI601
aI679
aI681
aI724
aI983
aI985
aI1266
aI1284
asI92
(lp90
I873
aI876
aI1007
aI1008
aI1009
aI1019
aI1020
aI1021
aI1022
aI1285
asI93
(lp91
I320
aI323
aI423
aI431
aI432
aI434
aI437
aI785
aI808
aI816
aI875
aI877
aI878
aI880
aI983
aI985
aI1060
aI1061
aI1225
aI1265
aI1266
asI94
(lp92
I1007
aI1008
aI1009
aI1010
aI1012
aI1013
aI1019
aI1020
aI1021
aI1022
aI1090
aI1091
aI1092
asI95
(lp93
I428
aI429
aI431
aI432
aI434
aI439
aI440
aI644
aI779
aI785
aI787
aI799
aI800
aI802
aI807
aI836
aI837
aI839
aI863
aI865
aI866
aI867
aI872
aI873
aI874
aI879
aI1024
aI1025
aI1026
aI1027
aI1028
aI1029
aI1219
aI1220
aI1225
aI1265
aI1272
aI1286
asI96
(lp94
I727
aI728
asI97
(lp95
I157
aI172
aI291
aI293
aI320
aI323
aI423
aI431
aI432
aI434
aI437
aI439
aI600
aI601
aI611
aI619
aI620
aI679
aI681
aI683
aI684
aI685
aI686
aI724
aI785
aI873
aI875
aI876
aI878
aI879
aI880
aI983
aI985
aI1007
aI1008
aI1009
aI1019
aI1020
aI1021
aI1022
aI1225
aI1265
aI1266
aI1284
aI1285
asI98
(lp96
I17
aI18
aI56
aI57
aI59
aI64
aI80
aI102
aI104
aI280
aI291
aI293
aI320
aI323
aI342
aI353
aI354
aI355
aI362
aI363
aI364
aI376
aI381
aI382
aI385
aI386
aI387
aI498
aI499
aI500
aI511
aI512
aI700
aI738
aI739
aI741
aI746
aI825
aI872
aI873
aI874
aI879
aI886
aI887
aI888
aI891
aI892
aI893
aI894
aI895
aI897
aI929
aI930
aI984
aI1046
aI1047
aI1101
aI1127
aI1128
aI1140
aI1188
aI1189
aI1199
aI1200
aI1213
aI1214
aI1219
aI1220
aI1245
aI1246
aI1272
aI1280
aI1286
asI99
(lp97
I17
aI18
aI20
aI21
aI22
aI23
aI25
aI56
aI80
aI293
aI320
aI323
aI495
aI700
aI741
aI742
aI872
aI873
aI874
aI875
aI876
aI878
aI879
aI880
aI886
aI887
aI888
aI929
aI930
aI932
aI983
aI985
aI1005
aI1006
aI1007
aI1008
aI1009
aI1019
aI1020
aI1021
aI1022
aI1046
aI1047
aI1067
aI1199
aI1200
aI1203
aI1204
aI1219
aI1220
aI1245
aI1246
aI1280
aI1285
aI1286
asI100
(lp98
I17
aI18
aI56
aI57
aI59
aI80
aI293
aI320
aI323
aI359
aI498
aI700
aI738
aI741
aI872
aI873
aI874
aI879
aI886
aI887
aI888
aI891
aI929
aI930
aI983
aI985
aI1046
aI1047
aI1127
aI1128
aI1199
aI1200
aI1219
aI1220
aI1245
aI1246
aI1280
aI1286
asI101
(lp99
I17
aI18
aI19
aI80
aI293
aI320
aI323
aI700
aI741
aI872
aI873
aI874
aI875
aI876
aI878
aI879
aI880
aI886
aI887
aI888
aI929
aI930
aI932
aI983
aI985
aI1005
aI1006
aI1007
aI1008
aI1009
aI1020
aI1021
aI1022
aI1046
aI1047
aI1067
aI1199
aI1200
aI1219
aI1220
aI1245
aI1246
aI1280
aI1285
aI1286
asI102
(lp100
I157
aI172
aI291
aI293
aI320
aI323
aI423
aI431
aI432
aI434
aI437
aI439
aI600
aI601
aI611
aI619
aI620
aI679
aI681
aI683
aI684
aI685
aI686
aI724
aI785
aI873
aI875
aI876
aI878
aI879
aI880
aI983
aI985
aI1007
aI1008
aI1009
aI1019
aI1020
aI1021
aI1022
aI1225
aI1265
aI1266
aI1284
aI1285
asI103
(lp101
I179
aI180
aI291
aI320
aI323
aI600
aI601
aI679
aI681
aI724
aI983
aI985
aI1266
aI1284
asI104
(lp102
I906
aI913
aI1276
aI1278
asI105
(lp103
I644
asI106
(lp104
I374
aI420
aI421
aI422
aI423
aI424
aI425
aI426
aI427
aI428
aI429
aI430
aI431
aI432
aI433
aI434
aI436
aI440
aI464
aI465
aI468
aI473
aI474
aI475
aI481
aI594
aI606
aI607
aI609
aI624
aI626
aI630
aI631
aI632
aI633
aI634
aI636
aI637
aI660
aI661
aI662
aI663
aI665
aI667
aI785
aI872
aI873
aI874
aI879
aI880
aI898
aI899
aI904
aI905
aI940
aI941
aI943
aI966
aI967
aI968
aI972
aI1058
aI1059
aI1060
aI1061
aI1090
aI1091
aI1092
aI1125
aI1126
aI1213
aI1214
aI1219
aI1220
aI1225
aI1231
aI1265
aI1267
aI1286
asI107
(lp105
I284
aI288
aI289
aI291
aI292
aI293
aI304
aI305
aI306
aI307
aI320
aI323
aI355
aI356
aI421
aI428
aI429
aI431
aI432
aI434
aI524
aI526
aI527
aI530
aI532
aI599
aI600
aI601
aI602
aI630
aI631
aI632
aI633
aI634
aI637
aI638
aI641
aI670
aI676
aI678
aI679
aI680
aI681
aI724
aI782
aI785
aI808
aI809
aI811
aI816
aI836
aI837
aI839
aI847
aI848
aI849
aI865
aI866
aI867
aI868
aI869
aI870
aI871
aI872
aI873
aI874
aI879
aI915
aI983
aI985
aI1024
aI1025
aI1026
aI1027
aI1028
aI1029
aI1058
aI1059
aI1060
aI1061
aI1072
aI1073
aI1074
aI1075
aI1076
aI1138
aI1219
aI1220
aI1225
aI1235
aI1262
aI1263
aI1265
aI1266
aI1272
aI1284
aI1286
asI108
(lp106
I56
aI64
aI88
aI89
aI291
aI293
aI323
aI700
aI746
aI825
aI1200
asI109
(lp107
I293
aI320
aI323
aI421
aI431
aI432
aI434
aI630
aI631
aI632
aI633
aI634
aI635
aI636
aI637
aI640
aI641
aI642
aI643
aI782
aI785
aI808
aI809
aI810
aI811
aI812
aI813
aI814
aI815
aI816
aI872
aI873
aI874
aI879
aI914
aI915
aI916
aI917
aI918
aI983
aI985
aI1059
aI1060
aI1061
aI1062
aI1066
aI1102
aI1103
aI1116
aI1117
aI1138
aI1139
aI1161
aI1162
aI1213
aI1214
aI1219
aI1220
aI1225
aI1232
aI1235
aI1265
aI1266
aI1272
aI1286
asI110
(lp108
I573
aI889
aI940
aI941
aI943
aI1279
asI111
(lp109
I1014
aI1015
aI1016
asI112
(lp110
I644
asI113
(lp111
I157
aI172
aI291
aI293
aI320
aI323
aI418
aI421
aI431
aI432
aI434
aI435
aI439
aI440
aI600
aI601
aI644
aI679
aI681
aI724
aI779
aI782
aI785
aI787
aI872
aI873
aI874
aI879
aI983
aI985
aI1170
aI1171
aI1219
aI1220
aI1225
aI1265
aI1266
aI1272
aI1284
aI1286
asI114
(lp112
I827
aI828
aI829
aI831
aI832
aI834
aI835
asI115
(lp113
I644
asI116
(lp114
I1102
aI1103
aI1213
aI1214
aI1272
asI117
(lp115
I644
aI1090
aI1091
aI1092
asI118
(lp116
I537
aI988
asI119
(lp117
I17
aI18
aI21
aI22
aI24
aI56
aI64
aI80
aI138
aI139
aI141
aI157
aI172
aI196
aI198
aI200
aI242
aI248
aI291
aI293
aI320
aI323
aI490
aI495
aI505
aI534
aI537
aI541
aI542
aI545
aI700
aI741
aI742
aI746
aI824
aI825
aI872
aI873
aI874
aI875
aI876
aI878
aI879
aI880
aI886
aI887
aI888
aI929
aI930
aI932
aI983
aI985
aI988
aI990
aI1005
aI1006
aI1007
aI1008
aI1009
aI1019
aI1020
aI1021
aI1022
aI1046
aI1047
aI1067
aI1190
aI1191
aI1199
aI1200
aI1203
aI1204
aI1219
aI1220
aI1245
aI1246
aI1275
aI1280
aI1285
aI1286
asI120
(lp118
I290
aI320
aI323
aI423
aI431
aI432
aI434
aI437
aI785
aI875
aI877
aI878
aI880
aI983
aI985
aI1085
aI1087
aI1088
aI1225
aI1265
aI1266
asI121
(lp119
I157
aI172
aI173
aI291
aI293
aI297
aI320
aI323
aI366
aI421
aI431
aI432
aI434
aI435
aI439
aI440
aI534
aI535
aI536
aI538
aI539
aI540
aI541
aI542
aI546
aI547
aI548
aI549
aI550
aI551
aI600
aI601
aI644
aI679
aI681
aI705
aI706
aI707
aI708
aI709
aI710
aI711
aI712
aI713
aI724
aI779
aI782
aI785
aI787
aI872
aI873
aI874
aI879
aI963
aI964
aI965
aI983
aI985
aI1032
aI1090
aI1091
aI1092
aI1174
aI1175
aI1219
aI1220
aI1224
aI1225
aI1257
aI1265
aI1266
aI1272
aI1281
aI1284
aI1286
asI122
(lp120
I1081
aI1082
aI1084
asI123
(lp121
I17
aI18
aI64
aI68
aI70
aI80
aI157
aI172
aI291
aI293
aI323
aI354
aI355
aI357
aI358
aI361
aI376
aI505
aI700
aI741
aI746
aI822
aI825
aI872
aI873
aI874
aI875
aI876
aI878
aI879
aI880
aI886
aI887
aI888
aI929
aI930
aI932
aI1007
aI1008
aI1009
aI1019
aI1020
aI1021
aI1022
aI1046
aI1047
aI1060
aI1061
aI1164
aI1165
aI1199
aI1200
aI1219
aI1220
aI1245
aI1246
aI1275
aI1285
aI1286
asI124
(lp122
I1136
asI125
(lp123
I26
aI28
aI64
aI291
aI293
aI323
aI700
aI746
aI825
aI1200
asI126
(lp124
I293
aI320
aI323
aI421
aI431
aI432
aI434
aI435
aI439
aI440
aI644
aI782
aI785
aI872
aI873
aI874
aI879
aI983
aI985
aI1037
aI1038
aI1039
aI1063
aI1064
aI1065
aI1219
aI1220
aI1225
aI1265
aI1266
aI1286
asI127
(lp125
I631
aI632
asI128
(lp126
I632
aI960
aI961
asI129
(lp127
I157
aI172
aI291
aI293
aI320
aI323
aI423
aI431
aI432
aI434
aI437
aI600
aI601
aI679
aI681
aI724
aI758
aI767
aI785
aI873
aI875
aI876
aI878
aI879
aI880
aI983
aI985
aI1007
aI1008
aI1009
aI1019
aI1020
aI1021
aI1022
aI1060
aI1061
aI1225
aI1265
aI1266
aI1284
aI1285
asI130
(lp128
I431
aI432
aI434
aI439
aI440
aI633
aI634
aI636
aI637
aI644
aI779
aI785
aI787
aI872
aI873
aI874
aI879
aI880
aI898
aI905
aI1059
aI1060
aI1061
aI1213
aI1214
aI1219
aI1220
aI1225
aI1265
aI1272
aI1286
asI131
(lp129
I639
aI642
aI643
aI1062
aI1066
asI132
(lp130
I1001
aI1003
aI1090
aI1091
aI1092
asI133
(lp131
I1089
aI1090
aI1091
aI1092
aI1181
aI1182
asI134
(lp132
I17
aI18
aI64
aI67
aI68
aI71
aI77
aI79
aI80
aI109
aI110
aI112
aI113
aI117
aI138
aI139
aI141
aI145
aI157
aI172
aI196
aI198
aI200
aI234
aI235
aI242
aI244
aI245
aI248
aI279
aI291
aI293
aI323
aI362
aI363
aI381
aI382
aI385
aI386
aI387
aI490
aI505
aI534
aI537
aI541
aI542
aI545
aI575
aI579
aI580
aI582
aI700
aI741
aI746
aI822
aI823
aI824
aI825
aI872
aI873
aI874
aI879
aI886
aI887
aI888
aI891
aI892
aI893
aI894
aI895
aI897
aI929
aI930
aI988
aI990
aI1046
aI1047
aI1058
aI1059
aI1060
aI1061
aI1101
aI1146
aI1164
aI1165
aI1183
aI1184
aI1190
aI1191
aI1199
aI1200
aI1213
aI1214
aI1219
aI1220
aI1245
aI1246
aI1272
aI1286
asI135
(lp133
I293
aI320
aI323
aI423
aI431
aI432
aI434
aI437
aI785
aI836
aI837
aI839
aI847
aI848
aI863
aI865
aI866
aI867
aI873
aI875
aI876
aI878
aI879
aI880
aI983
aI985
aI1007
aI1008
aI1009
aI1019
aI1020
aI1021
aI1022
aI1024
aI1025
aI1026
aI1027
aI1028
aI1029
aI1225
aI1265
aI1266
aI1285
asI136
(lp134
I537
aI991
asI137
(lp135
I242
aI789
aI790
aI791
aI792
aI793
aI794
aI795
aI796
aI797
asI138
(lp136
I1060
aI1061
asI139
(lp137
I285
aI288
aI310
aI312
aI320
aI323
aI354
aI370
aI371
aI373
aI375
aI421
aI428
aI429
aI431
aI432
aI434
aI782
aI785
aI799
aI800
aI801
aI802
aI803
aI804
aI805
aI806
aI807
aI836
aI837
aI839
aI863
aI865
aI866
aI867
aI872
aI873
aI874
aI878
aI879
aI914
aI915
aI983
aI985
aI1024
aI1025
aI1026
aI1027
aI1028
aI1029
aI1219
aI1220
aI1225
aI1265
aI1266
aI1272
aI1286
asI140
(lp138
I291
aI293
aI320
aI431
aI432
aI434
aI439
aI441
aI600
aI601
aI611
aI612
aI613
aI619
aI620
aI638
aI641
aI643
aI679
aI681
aI683
aI684
aI685
aI686
aI724
aI785
aI872
aI873
aI874
aI879
aI983
aI985
aI1219
aI1220
aI1225
aI1265
aI1266
aI1284
aI1286
asI141
(lp139
I575
aI579
aI580
aI582
aI1101
asI142
(lp140
I644
asI143
(lp141
I157
aI172
aI291
aI293
aI320
aI323
aI423
aI431
aI432
aI434
aI437
aI439
aI534
aI540
aI541
aI600
aI601
aI679
aI681
aI706
aI707
aI708
aI724
aI785
aI873
aI875
aI876
aI878
aI879
aI880
aI983
aI985
aI988
aI1019
aI1020
aI1021
aI1022
aI1224
aI1225
aI1265
aI1266
aI1284
aI1285
asI144
(lp142
I1024
aI1025
aI1026
aI1027
aI1028
aI1029
aI1281
asI145
(lp143
I284
aI291
aI320
aI324
aI363
aI594
aI599
aI600
aI601
aI631
aI632
aI633
aI634
aI635
aI636
aI637
aI678
aI679
aI681
aI724
aI749
aI751
aI755
aI757
aI785
aI872
aI873
aI874
aI879
aI880
aI898
aI899
aI900
aI905
aI940
aI941
aI943
aI983
aI985
aI1058
aI1059
aI1060
aI1061
aI1090
aI1091
aI1101
aI1120
aI1166
aI1167
aI1213
aI1214
aI1219
aI1220
aI1225
aI1265
aI1266
aI1272
aI1279
aI1284
aI1286
asI146
(lp144
I249
aI537
aI988
aI1200
asI147
(lp145
I630
aI631
aI632
asI148
(lp146
I1068
aI1071
asI149
(lp147
I17
aI18
aI56
aI57
aI59
aI64
aI80
aI102
aI104
aI280
aI291
aI293
aI320
aI323
aI353
aI354
aI355
aI362
aI363
aI364
aI376
aI498
aI499
aI511
aI700
aI738
aI739
aI741
aI746
aI825
aI872
aI873
aI874
aI879
aI886
aI887
aI888
aI891
aI893
aI895
aI896
aI929
aI930
aI983
aI985
aI1046
aI1047
aI1101
aI1127
aI1128
aI1140
aI1188
aI1189
aI1199
aI1200
aI1213
aI1214
aI1219
aI1220
aI1245
aI1246
aI1272
aI1280
aI1286
asI150
(lp148
I293
aI320
aI323
aI421
aI431
aI432
aI434
aI435
aI439
aI440
aI644
aI779
aI782
aI785
aI787
aI872
aI873
aI874
aI879
aI983
aI985
aI1219
aI1220
aI1225
aI1260
aI1261
aI1265
aI1266
aI1272
aI1286
asI151
(lp149
I17
aI18
aI36
aI37
aI38
aI41
aI56
aI64
aI80
aI94
aI95
aI96
aI98
aI99
aI100
aI101
aI138
aI139
aI141
aI146
aI148
aI157
aI172
aI173
aI195
aI196
aI197
aI198
aI201
aI202
aI230
aI231
aI242
aI243
aI248
aI279
aI291
aI293
aI294
aI297
aI313
aI314
aI320
aI323
aI366
aI490
aI491
aI505
aI534
aI537
aI541
aI542
aI543
aI545
aI547
aI551
aI552
aI700
aI741
aI746
aI819
aI824
aI825
aI856
aI857
aI858
aI859
aI860
aI861
aI862
aI872
aI873
aI874
aI879
aI886
aI887
aI888
aI929
aI930
aI983
aI985
aI988
aI989
aI990
aI1031
aI1033
aI1034
aI1046
aI1047
aI1122
aI1124
aI1147
aI1148
aI1149
aI1190
aI1191
aI1197
aI1198
aI1199
aI1200
aI1219
aI1220
aI1245
aI1246
aI1272
aI1275
aI1280
aI1281
aI1286
asI152
(lp150
I555
aI556
aI560
aI568
aI569
aI570
asI153
(lp151
I1219
aI1220
asI154
(lp152
I290
aI293
aI320
aI323
aI439
aI440
aI644
aI780
aI785
aI786
aI983
aI985
aI1085
aI1087
aI1225
aI1226
aI1265
aI1266
asI155
(lp153
I21
aI23
aI56
aI80
aI293
aI320
aI323
aI700
aI742
aI873
aI875
aI876
aI878
aI879
aI880
aI886
aI887
aI888
aI929
aI932
aI983
aI985
aI1005
aI1006
aI1007
aI1008
aI1009
aI1019
aI1020
aI1021
aI1022
aI1046
aI1047
aI1067
aI1200
aI1203
aI1204
aI1280
aI1285
asI156
(lp154
I1090
aI1091
aI1092
aI1182
asI157
(lp155
I154
aI157
aI158
aI160
aI161
aI162
aI163
aI164
aI165
aI167
aI168
aI172
aI284
aI291
aI293
aI320
aI323
aI355
aI362
aI363
aI364
aI376
aI421
aI431
aI432
aI434
aI576
aI577
aI580
aI581
aI587
aI588
aI589
aI590
aI599
aI600
aI601
aI602
aI630
aI631
aI632
aI633
aI634
aI635
aI636
aI637
aI678
aI679
aI680
aI681
aI720
aI723
aI724
aI725
aI758
aI759
aI760
aI761
aI762
aI763
aI764
aI765
aI767
aI782
aI785
aI872
aI873
aI874
aI879
aI959
aI960
aI962
aI964
aI965
aI983
aI985
aI1059
aI1060
aI1061
aI1089
aI1090
aI1091
aI1092
aI1101
aI1111
aI1112
aI1144
aI1145
aI1201
aI1213
aI1214
aI1219
aI1220
aI1223
aI1225
aI1256
aI1265
aI1266
aI1272
aI1284
aI1286
asI158
(lp156
I17
aI18
aI26
aI27
aI30
aI31
aI56
aI57
aI59
aI64
aI80
aI91
aI93
aI122
aI124
aI129
aI131
aI138
aI141
aI157
aI172
aI191
aI196
aI219
aI220
aI232
aI233
aI242
aI247
aI248
aI289
aI291
aI293
aI301
aI302
aI323
aI355
aI356
aI389
aI390
aI391
aI392
aI405
aI416
aI442
aI443
aI444
aI446
aI447
aI448
aI450
aI453
aI454
aI455
aI456
aI457
aI458
aI459
aI460
aI461
aI462
aI463
aI490
aI496
aI499
aI503
aI504
aI505
aI509
aI510
aI513
aI527
aI528
aI532
aI534
aI537
aI541
aI542
aI545
aI550
aI645
aI646
aI647
aI648
aI649
aI651
aI653
aI654
aI656
aI657
aI658
aI700
aI738
aI740
aI741
aI744
aI746
aI768
aI769
aI789
aI790
aI791
aI792
aI794
aI796
aI797
aI818
aI824
aI825
aI865
aI866
aI869
aI870
aI871
aI872
aI873
aI874
aI878
aI879
aI886
aI887
aI888
aI891
aI920
aI921
aI923
aI925
aI926
aI929
aI930
aI991
aI993
aI994
aI1046
aI1047
aI1049
aI1050
aI1051
aI1052
aI1053
aI1077
aI1078
aI1079
aI1097
aI1099
aI1127
aI1128
aI1155
aI1156
aI1186
aI1190
aI1191
aI1199
aI1200
aI1207
aI1208
aI1219
aI1220
aI1229
aI1230
aI1233
aI1234
aI1245
aI1246
aI1272
aI1277
aI1286
asI159
(lp157
I154
aI157
aI172
aI284
aI291
aI293
aI320
aI323
aI355
aI357
aI358
aI361
aI376
aI423
aI431
aI432
aI434
aI599
aI600
aI601
aI602
aI678
aI679
aI680
aI681
aI720
aI723
aI724
aI725
aI758
aI767
aI785
aI873
aI875
aI876
aI878
aI879
aI880
aI983
aI985
aI1019
aI1020
aI1021
aI1022
aI1060
aI1061
aI1225
aI1265
aI1266
aI1284
aI1285
asI160
(lp158
I4
aI6
aI64
aI291
aI323
aI700
aI746
aI825
aI1081
aI1083
aI1200
asI161
(lp159
I36
aI39
aI43
aI44
aI64
aI291
aI293
aI323
aI700
aI746
aI825
aI1199
aI1200
asI162
(lp160
I64
aI85
aI291
aI323
aI700
aI746
aI825
asI163
(lp161
I541
aI550
asI164
(lp162
I17
aI18
aI56
aI57
aI59
aI64
aI80
aI122
aI124
aI291
aI293
aI300
aI308
aI309
aI311
aI323
aI498
aI499
aI506
aI513
aI700
aI738
aI740
aI741
aI746
aI825
aI872
aI873
aI874
aI879
aI886
aI887
aI888
aI891
aI918
aI919
aI929
aI930
aI1046
aI1047
aI1066
aI1127
aI1128
aI1199
aI1200
aI1207
aI1208
aI1219
aI1220
aI1245
aI1246
aI1286
asI165
(lp163
I891
aI892
aI893
aI1146
aI1202
aI1213
aI1214
asI166
(lp164
I56
aI64
aI102
aI103
aI291
aI323
aI700
aI746
aI825
aI1200
asI167
(lp165
I145
aI154
aI157
aI172
aI284
aI291
aI293
aI320
aI323
aI381
aI382
aI385
aI386
aI387
aI418
aI419
aI421
aI431
aI432
aI434
aI435
aI439
aI440
aI579
aI580
aI582
aI599
aI600
aI601
aI602
aI644
aI678
aI679
aI680
aI681
aI721
aI723
aI724
aI725
aI782
aI785
aI872
aI873
aI874
aI879
aI983
aI985
aI1101
aI1146
aI1169
aI1170
aI1171
aI1213
aI1214
aI1219
aI1220
aI1225
aI1265
aI1266
aI1272
aI1284
aI1286
asI168
(lp166
I17
aI18
aI26
aI27
aI30
aI31
aI56
aI57
aI59
aI64
aI67
aI68
aI71
aI80
aI91
aI93
aI122
aI124
aI129
aI131
aI138
aI139
aI141
aI157
aI172
aI191
aI196
aI198
aI219
aI220
aI232
aI233
aI234
aI242
aI247
aI248
aI289
aI291
aI293
aI301
aI302
aI323
aI355
aI356
aI389
aI390
aI391
aI392
aI405
aI406
aI407
aI408
aI415
aI416
aI442
aI443
aI444
aI446
aI447
aI448
aI450
aI453
aI454
aI455
aI456
aI457
aI458
aI459
aI460
aI461
aI462
aI463
aI490
aI496
aI499
aI503
aI504
aI505
aI509
aI510
aI513
aI527
aI528
aI532
aI534
aI537
aI541
aI542
aI545
aI550
aI645
aI646
aI647
aI648
aI649
aI650
aI653
aI654
aI655
aI656
aI657
aI658
aI700
aI738
aI740
aI741
aI744
aI746
aI768
aI769
aI789
aI790
aI791
aI792
aI794
aI796
aI797
aI818
aI822
aI824
aI825
aI865
aI866
aI869
aI870
aI871
aI872
aI873
aI874
aI878
aI879
aI886
aI887
aI888
aI891
aI920
aI921
aI923
aI925
aI926
aI929
aI930
aI991
aI1046
aI1047
aI1049
aI1050
aI1051
aI1052
aI1053
aI1058
aI1059
aI1060
aI1061
aI1077
aI1078
aI1079
aI1092
aI1097
aI1099
aI1100
aI1127
aI1128
aI1155
aI1156
aI1157
aI1164
aI1165
aI1186
aI1190
aI1191
aI1199
aI1200
aI1207
aI1208
aI1219
aI1220
aI1229
aI1230
aI1231
aI1233
aI1234
aI1245
aI1246
aI1272
aI1277
aI1286
asI169
(lp167
I1024
aI1025
aI1026
aI1027
aI1028
aI1029
aI1281
asI170
(lp168
I1046
aI1047
asI171
(lp169
I1116
aI1272
asI172
(lp170
I428
aI429
aI431
aI432
aI434
aI785
aI799
aI800
aI802
aI807
aI836
aI837
aI839
aI863
aI865
aI866
aI867
aI872
aI873
aI874
aI879
aI1024
aI1025
aI1026
aI1027
aI1028
aI1029
aI1219
aI1220
aI1225
aI1265
aI1286
asI173
(lp171
I322
aI353
aI354
aI355
aI367
aI370
aI374
aI421
aI431
aI432
aI434
aI594
aI630
aI631
aI632
aI633
aI634
aI637
aI782
aI785
aI872
aI873
aI874
aI879
aI880
aI898
aI899
aI901
aI905
aI1058
aI1059
aI1060
aI1061
aI1090
aI1091
aI1187
aI1213
aI1214
aI1219
aI1220
aI1225
aI1265
aI1272
aI1286
asI174
(lp172
I644
asI175
(lp173
I556
aI560
aI571
aI572
asI176
(lp174
I1092
aI1093
aI1094
aI1095
aI1096
aI1126
aI1272
asI177
(lp175
I17
aI18
aI36
aI37
aI38
aI42
aI43
aI45
aI64
aI80
aI138
aI139
aI141
aI149
aI150
aI157
aI172
aI196
aI198
aI200
aI221
aI222
aI223
aI225
aI242
aI243
aI248
aI279
aI291
aI293
aI323
aI490
aI505
aI534
aI537
aI541
aI542
aI545
aI684
aI685
aI686
aI700
aI741
aI746
aI820
aI824
aI825
aI872
aI873
aI874
aI879
aI886
aI887
aI888
aI929
aI930
aI988
aI990
aI1017
aI1046
aI1047
aI1190
aI1191
aI1199
aI1200
aI1219
aI1220
aI1239
aI1240
aI1245
aI1246
aI1286
asI178
(lp176
I157
aI172
aI291
aI293
aI320
aI323
aI431
aI432
aI434
aI439
aI440
aI600
aI601
aI633
aI634
aI636
aI637
aI644
aI679
aI681
aI724
aI758
aI767
aI779
aI785
aI787
aI872
aI873
aI874
aI879
aI983
aI985
aI1058
aI1059
aI1060
aI1061
aI1213
aI1214
aI1219
aI1220
aI1225
aI1265
aI1266
aI1272
aI1284
aI1286
asI179
(lp177
I290
aI293
aI320
aI323
aI439
aI440
aI644
aI779
aI785
aI787
aI983
aI985
aI1085
aI1087
aI1225
aI1265
aI1266
aI1272
asI180
(lp178
I465
aI466
aI467
aI468
aI470
aI471
aI472
aI473
aI474
aI475
aI476
aI477
aI478
aI479
aI480
aI481
aI482
aI483
aI484
aI485
aI486
aI487
aI488
aI489
asI181
(lp179
I154
aI157
aI172
aI194
aI196
aI198
aI284
aI291
aI293
aI320
aI323
aI421
aI431
aI432
aI434
aI435
aI439
aI534
aI535
aI536
aI537
aI540
aI541
aI542
aI545
aI599
aI600
aI601
aI602
aI678
aI679
aI680
aI681
aI705
aI706
aI707
aI708
aI714
aI722
aI723
aI724
aI725
aI782
aI785
aI872
aI873
aI874
aI879
aI983
aI985
aI991
aI993
aI994
aI1219
aI1220
aI1224
aI1225
aI1265
aI1266
aI1284
aI1286
asI182
(lp180
I328
aI603
asI183
(lp181
I320
aI324
aI363
aI594
aI599
aI600
aI608
aI631
aI632
aI633
aI634
aI635
aI636
aI637
aI678
aI682
aI785
aI872
aI873
aI874
aI879
aI880
aI898
aI899
aI900
aI905
aI940
aI941
aI943
aI983
aI985
aI1058
aI1059
aI1060
aI1061
aI1090
aI1091
aI1101
aI1120
aI1166
aI1167
aI1213
aI1214
aI1219
aI1220
aI1225
aI1247
aI1248
aI1265
aI1266
aI1272
aI1279
aI1281
aI1286
asI184
(lp182
I442
aI443
aI444
aI454
aI455
aI456
asI185
(lp183
I644
asI186
(lp184
I320
aI323
aI418
aI423
aI431
aI432
aI434
aI437
aI785
aI875
aI877
aI878
aI880
aI983
aI985
aI1130
aI1131
aI1225
aI1265
aI1266
asI187
(lp185
I293
aI320
aI323
aI423
aI431
aI432
aI434
aI437
aI785
aI873
aI875
aI876
aI878
aI879
aI880
aI983
aI985
aI1019
aI1020
aI1021
aI1022
aI1038
aI1039
aI1063
aI1225
aI1265
aI1266
aI1285
asI188
(lp186
I1007
aI1008
asI189
(lp187
I64
aI74
aI75
aI133
aI291
aI323
aI700
aI746
aI825
asI190
(lp188
I154
aI157
aI172
aI188
aI189
aI284
aI291
aI293
aI320
aI323
aI418
aI419
aI421
aI431
aI432
aI434
aI435
aI439
aI440
aI575
aI579
aI580
aI582
aI584
aI599
aI600
aI601
aI602
aI631
aI632
aI633
aI634
aI636
aI637
aI644
aI678
aI679
aI680
aI681
aI720
aI721
aI723
aI724
aI725
aI758
aI759
aI767
aI782
aI785
aI872
aI873
aI874
aI879
aI963
aI964
aI965
aI983
aI985
aI1059
aI1060
aI1061
aI1092
aI1101
aI1145
aI1146
aI1169
aI1170
aI1171
aI1213
aI1214
aI1219
aI1220
aI1225
aI1265
aI1266
aI1284
aI1286
asI191
(lp189
I145
aI154
aI157
aI172
aI284
aI291
aI293
aI320
aI323
aI379
aI381
aI382
aI418
aI419
aI421
aI431
aI432
aI434
aI435
aI439
aI440
aI579
aI580
aI582
aI599
aI600
aI601
aI602
aI644
aI678
aI679
aI680
aI681
aI721
aI723
aI724
aI725
aI782
aI785
aI872
aI873
aI874
aI879
aI983
aI985
aI1101
aI1146
aI1169
aI1170
aI1171
aI1213
aI1214
aI1219
aI1220
aI1225
aI1265
aI1266
aI1272
aI1284
aI1286
asI192
(lp190
I290
aI293
aI320
aI323
aI423
aI431
aI432
aI434
aI437
aI785
aI873
aI875
aI876
aI878
aI879
aI880
aI983
aI985
aI1020
aI1021
aI1022
aI1085
aI1087
aI1088
aI1225
aI1265
aI1266
aI1285
asI193
(lp191
I17
aI18
aI56
aI57
aI59
aI80
aI122
aI124
aI293
aI323
aI362
aI363
aI365
aI394
aI398
aI401
aI403
aI442
aI443
aI444
aI498
aI499
aI513
aI700
aI738
aI740
aI741
aI872
aI873
aI874
aI879
aI886
aI887
aI888
aI891
aI893
aI929
aI930
aI1046
aI1047
aI1101
aI1127
aI1128
aI1199
aI1200
aI1207
aI1208
aI1213
aI1219
aI1220
aI1245
aI1246
aI1286
asI194
(lp192
I948
aI949
aI950
aI951
asI195
(lp193
I534
aI546
aI547
aI1272
asI198
(lp194
I862
asI199
(lp195
I332
aI352
aI606
aI607
asI200
(lp196
I17
aI18
aI46
aI50
aI52
aI80
aI86
aI87
aI293
aI320
aI322
aI323
aI338
aI339
aI353
aI354
aI355
aI376
aI493
aI504
aI527
aI532
aI695
aI698
aI700
aI741
aI789
aI790
aI791
aI792
aI794
aI797
aI865
aI866
aI869
aI870
aI871
aI872
aI873
aI874
aI879
aI880
aI886
aI887
aI888
aI891
aI929
aI930
aI983
aI985
aI1046
aI1047
aI1186
aI1199
aI1200
aI1215
aI1216
aI1219
aI1220
aI1231
aI1245
aI1246
aI1249
aI1250
aI1272
aI1280
aI1286
asI202
(lp197
I836
aI837
aI838
aI840
aI841
aI842
aI843
aI844
aI845
aI1024
aI1025
aI1026
aI1027
aI1028
aI1029
aI1281
asI203
(lp198
I320
aI323
aI423
aI431
aI432
aI434
aI437
aI785
aI875
aI877
aI878
aI880
aI983
aI985
aI1225
aI1260
aI1261
aI1265
aI1266
asI204
(lp199
I17
aI18
aI56
aI57
aI59
aI64
aI67
aI68
aI71
aI80
aI138
aI139
aI141
aI157
aI172
aI196
aI198
aI200
aI231
aI232
aI242
aI247
aI248
aI291
aI293
aI323
aI359
aI490
aI498
aI505
aI534
aI537
aI541
aI542
aI545
aI700
aI738
aI741
aI746
aI822
aI824
aI825
aI872
aI873
aI874
aI879
aI886
aI887
aI888
aI891
aI929
aI930
aI988
aI990
aI1046
aI1047
aI1058
aI1059
aI1060
aI1061
aI1127
aI1128
aI1164
aI1165
aI1190
aI1191
aI1199
aI1200
aI1219
aI1220
aI1245
aI1246
aI1286
asI205
(lp200
I284
aI290
aI293
aI320
aI323
aI418
aI419
aI421
aI431
aI432
aI434
aI435
aI439
aI440
aI599
aI600
aI602
aI644
aI674
aI678
aI680
aI782
aI785
aI872
aI873
aI874
aI879
aI983
aI985
aI1085
aI1086
aI1087
aI1088
aI1219
aI1220
aI1225
aI1264
aI1265
aI1266
aI1272
aI1286
aI1288
asI206
(lp201
I644
aI1090
aI1091
aI1092
aI1182
asI207
(lp202
I157
aI172
aI173
aI174
aI284
aI291
aI293
aI297
aI320
aI323
aI331
aI366
aI600
aI601
aI604
aI605
aI679
aI681
aI724
aI983
aI985
aI1266
aI1281
aI1284
asI208
(lp203
I17
aI18
aI64
aI72
aI73
aI80
aI157
aI172
aI173
aI174
aI279
aI284
aI291
aI293
aI297
aI320
aI323
aI331
aI350
aI366
aI700
aI702
aI741
aI746
aI825
aI872
aI873
aI874
aI879
aI886
aI887
aI888
aI929
aI930
aI983
aI985
aI1046
aI1047
aI1199
aI1200
aI1219
aI1220
aI1245
aI1246
aI1275
aI1280
aI1281
aI1286
asI209
(lp204
I17
aI18
aI64
aI67
aI68
aI71
aI80
aI138
aI139
aI141
aI157
aI170
aI171
aI172
aI196
aI198
aI234
aI241
aI242
aI248
aI279
aI291
aI293
aI320
aI323
aI354
aI355
aI356
aI372
aI373
aI375
aI490
aI505
aI534
aI537
aI541
aI542
aI545
aI551
aI591
aI592
aI700
aI741
aI746
aI822
aI824
aI825
aI872
aI873
aI874
aI879
aI886
aI887
aI888
aI891
aI929
aI930
aI983
aI985
aI988
aI990
aI1046
aI1047
aI1058
aI1059
aI1060
aI1061
aI1164
aI1165
aI1190
aI1191
aI1199
aI1200
aI1219
aI1220
aI1245
aI1246
aI1272
aI1275
aI1280
aI1286
asI210
(lp205
I542
aI551
asI211
(lp206
I293
aI320
aI323
aI428
aI429
aI431
aI432
aI434
aI439
aI440
aI644
aI779
aI785
aI787
aI836
aI837
aI839
aI847
aI848
aI863
aI865
aI866
aI867
aI872
aI873
aI874
aI879
aI983
aI985
aI1024
aI1025
aI1026
aI1027
aI1028
aI1029
aI1072
aI1074
aI1219
aI1220
aI1225
aI1265
aI1266
aI1272
aI1286
asI212
(lp207
I291
aI320
aI323
aI423
aI431
aI432
aI434
aI437
aI600
aI601
aI679
aI681
aI724
aI758
aI767
aI785
aI875
aI877
aI878
aI880
aI983
aI985
aI1060
aI1061
aI1225
aI1265
aI1266
aI1284
asI213
(lp208
I429
aI659
asI214
(lp209
I591
aI592
asI215
(lp210
I49
aI50
aI55
aI74
aI75
aI80
aI81
aI121
aI125
aI126
aI129
aI130
aI136
aI137
aI250
aI251
aI253
aI468
aI469
aI471
aI474
aI475
aI478
aI479
aI485
aI486
aI695
aI699
aI703
aI827
aI828
aI829
aI830
aI831
aI832
aI833
aI872
aI873
aI874
aI879
aI880
aI886
aI887
aI888
aI891
aI929
aI930
aI995
aI996
aI998
aI1046
aI1047
aI1058
aI1059
aI1060
aI1061
aI1092
aI1126
aI1199
aI1200
aI1219
aI1220
aI1231
aI1241
aI1242
aI1249
aI1250
aI1286
asI216
(lp211
I446
asI217
(lp212
I644
asI218
(lp213
I1064
aI1065
asI219
(lp214
I149
aI150
aI154
aI157
aI172
aI284
aI291
aI293
aI320
aI323
aI421
aI431
aI432
aI434
aI439
aI599
aI600
aI601
aI602
aI611
aI614
aI616
aI617
aI619
aI620
aI638
aI641
aI678
aI679
aI680
aI681
aI683
aI684
aI685
aI686
aI718
aI723
aI724
aI725
aI782
aI785
aI872
aI873
aI874
aI879
aI983
aI985
aI1017
aI1172
aI1173
aI1219
aI1220
aI1225
aI1265
aI1266
aI1284
aI1286
asI220
(lp215
I17
aI18
aI56
aI57
aI59
aI64
aI80
aI138
aI139
aI141
aI157
aI172
aI196
aI198
aI200
aI242
aI248
aI288
aI289
aI291
aI293
aI323
aI355
aI356
aI490
aI496
aI498
aI499
aI503
aI505
aI534
aI537
aI541
aI542
aI545
aI700
aI738
aI741
aI746
aI824
aI825
aI872
aI873
aI874
aI879
aI886
aI887
aI888
aI891
aI915
aI929
aI930
aI988
aI990
aI1046
aI1047
aI1127
aI1128
aI1190
aI1191
aI1199
aI1200
aI1219
aI1220
aI1245
aI1246
aI1272
aI1275
aI1286
asI221
(lp216
I1179
aI1272
asI222
(lp217
I157
aI172
aI291
aI293
aI320
aI323
aI421
aI431
aI432
aI434
aI439
aI600
aI601
aI611
aI615
aI616
aI617
aI619
aI620
aI638
aI641
aI679
aI681
aI683
aI684
aI685
aI686
aI724
aI782
aI785
aI872
aI873
aI874
aI879
aI983
aI985
aI1176
aI1177
aI1219
aI1220
aI1225
aI1265
aI1266
aI1284
aI1286
asI223
(lp218
I293
aI320
aI323
aI428
aI429
aI431
aI432
aI434
aI438
aI785
aI836
aI837
aI838
aI839
aI840
aI841
aI842
aI843
aI844
aI845
aI846
aI847
aI848
aI863
aI864
aI865
aI866
aI867
aI868
aI869
aI870
aI872
aI873
aI874
aI878
aI879
aI983
aI985
aI1024
aI1025
aI1026
aI1027
aI1028
aI1029
aI1072
aI1074
aI1219
aI1220
aI1225
aI1265
aI1266
aI1281
aI1286
asI224
(lp219
I284
aI293
aI308
aI320
aI323
aI421
aI431
aI432
aI434
aI435
aI439
aI440
aI599
aI600
aI602
aI644
aI673
aI678
aI680
aI782
aI785
aI872
aI873
aI874
aI879
aI983
aI985
aI1037
aI1038
aI1039
aI1063
aI1064
aI1065
aI1219
aI1220
aI1225
aI1265
aI1266
aI1286
asI225
(lp220
I9
aI10
aI11
aI12
aI16
aI17
aI18
aI64
aI67
aI68
aI71
aI80
aI138
aI139
aI141
aI157
aI172
aI196
aI198
aI200
aI218
aI231
aI232
aI242
aI247
aI248
aI279
aI291
aI293
aI320
aI323
aI359
aI490
aI505
aI534
aI537
aI541
aI542
aI545
aI700
aI741
aI746
aI817
aI822
aI824
aI825
aI872
aI873
aI874
aI879
aI886
aI887
aI888
aI891
aI929
aI930
aI983
aI985
aI988
aI990
aI1046
aI1047
aI1058
aI1059
aI1060
aI1061
aI1164
aI1165
aI1190
aI1191
aI1199
aI1200
aI1219
aI1220
aI1245
aI1246
aI1253
aI1254
aI1275
aI1280
aI1286
asI227
(lp221
I423
aI429
aI431
aI432
aI434
aI437
aI661
aI873
aI876
aI1019
aI1020
aI1021
aI1022
aI1267
aI1285
asI228
(lp222
I1219
aI1220
asI229
(lp223
I157
aI172
aI173
aI174
aI284
aI291
aI293
aI297
aI320
aI323
aI331
aI350
aI366
aI600
aI601
aI604
aI605
aI679
aI681
aI724
aI983
aI985
aI1266
aI1281
aI1284
asI230
(lp224
I290
aI293
aI320
aI323
aI421
aI431
aI432
aI434
aI435
aI782
aI785
aI872
aI873
aI874
aI879
aI983
aI985
aI1085
aI1087
aI1088
aI1219
aI1220
aI1225
aI1265
aI1266
aI1286
asI231
(lp225
I17
aI18
aI32
aI35
aI36
aI37
aI38
aI42
aI56
aI57
aI59
aI64
aI80
aI91
aI93
aI122
aI124
aI129
aI131
aI147
aI157
aI172
aI219
aI221
aI222
aI223
aI225
aI232
aI233
aI242
aI243
aI247
aI289
aI291
aI293
aI301
aI302
aI323
aI355
aI356
aI389
aI391
aI392
aI404
aI406
aI407
aI408
aI411
aI415
aI416
aI442
aI443
aI444
aI447
aI448
aI449
aI450
aI451
aI453
aI454
aI455
aI456
aI457
aI458
aI459
aI460
aI461
aI462
aI463
aI490
aI496
aI499
aI503
aI504
aI505
aI509
aI510
aI513
aI527
aI532
aI534
aI541
aI646
aI648
aI649
aI650
aI651
aI653
aI654
aI655
aI656
aI684
aI685
aI686
aI700
aI738
aI740
aI741
aI744
aI746
aI768
aI769
aI771
aI772
aI773
aI774
aI775
aI777
aI789
aI790
aI791
aI792
aI794
aI797
aI821
aI825
aI865
aI866
aI869
aI870
aI871
aI872
aI873
aI874
aI879
aI886
aI887
aI888
aI891
aI920
aI921
aI922
aI923
aI924
aI925
aI926
aI929
aI930
aI991
aI1046
aI1047
aI1050
aI1051
aI1052
aI1053
aI1077
aI1078
aI1080
aI1099
aI1127
aI1128
aI1155
aI1156
aI1186
aI1199
aI1200
aI1207
aI1208
aI1219
aI1220
aI1233
aI1234
aI1236
aI1237
aI1245
aI1246
aI1272
aI1277
aI1286
asI232
(lp226
I1011
aI1012
aI1090
aI1091
aI1092
asI233
(lp227
I573
aI574
aI889
aI940
aI941
aI943
aI1279
asI234
(lp228
I252
asI235
(lp229
I293
aI320
aI323
aI421
aI431
aI432
aI434
aI435
aI439
aI440
aI644
aI779
aI782
aI785
aI787
aI872
aI873
aI874
aI879
aI983
aI985
aI1038
aI1039
aI1063
aI1219
aI1220
aI1225
aI1265
aI1266
aI1272
aI1286
asI236
(lp230
I644
asI237
(lp231
I290
aI293
aI320
aI323
aI421
aI431
aI432
aI434
aI435
aI439
aI440
aI644
aI779
aI782
aI785
aI787
aI872
aI873
aI874
aI879
aI983
aI985
aI1085
aI1087
aI1088
aI1219
aI1220
aI1225
aI1265
aI1266
aI1272
aI1286
asI238
(lp232
I157
aI172
aI291
aI293
aI320
aI323
aI423
aI431
aI432
aI434
aI437
aI600
aI601
aI679
aI681
aI724
aI785
aI873
aI875
aI876
aI878
aI879
aI880
aI983
aI985
aI1019
aI1020
aI1021
aI1022
aI1225
aI1251
aI1252
aI1265
aI1266
aI1284
aI1285
asI239
(lp233
I293
aI320
aI323
aI428
aI429
aI431
aI432
aI434
aI785
aI836
aI837
aI839
aI847
aI848
aI863
aI865
aI866
aI867
aI872
aI873
aI874
aI879
aI983
aI985
aI1024
aI1025
aI1026
aI1027
aI1028
aI1029
aI1072
aI1074
aI1219
aI1220
aI1225
aI1265
aI1266
aI1286
asI240
(lp234
I644
aI1090
aI1091
aI1092
aI1182
asI241
(lp235
I17
aI18
aI36
aI37
aI38
aI42
aI64
aI80
aI138
aI139
aI141
aI146
aI148
aI157
aI172
aI195
aI196
aI198
aI221
aI222
aI223
aI225
aI242
aI243
aI248
aI279
aI291
aI293
aI323
aI490
aI505
aI534
aI537
aI541
aI542
aI545
aI684
aI685
aI686
aI700
aI741
aI746
aI819
aI824
aI825
aI872
aI873
aI874
aI879
aI886
aI887
aI888
aI929
aI930
aI1046
aI1047
aI1122
aI1124
aI1190
aI1191
aI1197
aI1198
aI1199
aI1200
aI1219
aI1220
aI1245
aI1246
aI1286
asI242
(lp236
I644
asI243
(lp237
I428
aI429
aI431
aI432
aI434
aI785
aI799
aI800
aI802
aI807
aI836
aI837
aI839
aI863
aI865
aI866
aI867
aI872
aI873
aI874
aI878
aI879
aI1024
aI1025
aI1026
aI1027
aI1028
aI1029
aI1219
aI1220
aI1225
aI1265
aI1286
asI244
(lp238
I993
aI994
asI245
(lp239
I17
aI18
aI46
aI50
aI52
aI80
aI86
aI87
aI293
aI320
aI322
aI323
aI329
aI330
aI339
aI340
aI353
aI354
aI355
aI376
aI493
aI504
aI514
aI516
aI517
aI518
aI519
aI520
aI521
aI522
aI523
aI527
aI528
aI529
aI531
aI695
aI698
aI700
aI741
aI788
aI789
aI790
aI791
aI792
aI794
aI795
aI797
aI864
aI865
aI866
aI869
aI870
aI871
aI872
aI873
aI874
aI879
aI880
aI886
aI887
aI888
aI891
aI929
aI930
aI983
aI985
aI1046
aI1047
aI1186
aI1199
aI1200
aI1215
aI1216
aI1219
aI1220
aI1231
aI1245
aI1246
aI1249
aI1250
aI1272
aI1280
aI1286
asI246
(lp240
I1059
aI1060
aI1061
asI247
(lp241
I154
aI157
aI172
aI185
aI186
aI284
aI291
aI293
aI320
aI323
aI421
aI431
aI432
aI434
aI435
aI579
aI580
aI582
aI585
aI599
aI600
aI601
aI602
aI631
aI632
aI633
aI634
aI636
aI637
aI678
aI679
aI680
aI681
aI720
aI721
aI723
aI724
aI725
aI758
aI759
aI767
aI782
aI785
aI872
aI873
aI874
aI879
aI983
aI985
aI1059
aI1060
aI1061
aI1101
aI1145
aI1146
aI1170
aI1171
aI1213
aI1214
aI1219
aI1220
aI1225
aI1265
aI1266
aI1284
aI1286
asI248
(lp242
I644
asI249
(lp243
I17
aI18
aI36
aI37
aI38
aI64
aI80
aI138
aI139
aI141
aI157
aI172
aI195
aI196
aI198
aI221
aI222
aI223
aI226
aI242
aI243
aI248
aI279
aI291
aI293
aI323
aI490
aI505
aI534
aI537
aI541
aI542
aI545
aI684
aI685
aI686
aI691
aI693
aI700
aI741
aI746
aI819
aI824
aI825
aI872
aI873
aI874
aI879
aI886
aI887
aI888
aI929
aI930
aI1002
aI1003
aI1004
aI1005
aI1006
aI1007
aI1008
aI1009
aI1019
aI1020
aI1021
aI1022
aI1046
aI1047
aI1067
aI1092
aI1122
aI1124
aI1182
aI1190
aI1191
aI1199
aI1200
aI1219
aI1220
aI1231
aI1245
aI1246
aI1286
asI250
(lp244
I644
asI251
(lp245
I644
aI1092
asI252
(lp246
I587
aI588
aI589
aI590
asI253
(lp247
I940
aI942
aI944
asI254
(lp248
I1153
aI1272
asI255
(lp249
I1069
aI1070
asI256
(lp250
I9
aI13
aI64
aI291
aI293
aI323
aI700
aI746
aI825
aI1200
asI257
(lp251
I429
aI661
aI666
aI1142
aI1143
aI1267
asI258
(lp252
I290
aI293
aI315
aI320
aI323
aI337
aI421
aI431
aI432
aI434
aI435
aI437
aI593
aI781
aI783
aI785
aI872
aI873
aI874
aI876
aI879
aI983
aI985
aI1007
aI1008
aI1009
aI1019
aI1020
aI1021
aI1022
aI1085
aI1087
aI1088
aI1219
aI1220
aI1225
aI1265
aI1266
aI1272
aI1285
aI1286
asI259
(lp253
I318
aI321
aI327
aI355
aI362
aI363
aI364
aI376
aI421
aI431
aI432
aI434
aI594
aI630
aI631
aI632
aI633
aI634
aI635
aI636
aI637
aI782
aI785
aI872
aI873
aI874
aI879
aI880
aI898
aI899
aI900
aI901
aI902
aI903
aI905
aI1059
aI1060
aI1061
aI1090
aI1091
aI1093
aI1094
aI1095
aI1101
aI1166
aI1167
aI1187
aI1213
aI1214
aI1219
aI1220
aI1225
aI1238
aI1255
aI1265
aI1272
aI1286
asI260
(lp254
I293
aI320
aI323
aI428
aI429
aI431
aI432
aI434
aI785
aI836
aI837
aI839
aI847
aI848
aI863
aI865
aI866
aI867
aI872
aI873
aI874
aI879
aI983
aI985
aI1024
aI1025
aI1026
aI1027
aI1028
aI1029
aI1104
aI1106
aI1219
aI1220
aI1225
aI1265
aI1266
aI1286
asI261
(lp255
I1089
aI1092
aI1181
aI1182
asI262
(lp256
I1025
aI1027
aI1028
asI263
(lp257
I17
aI18
aI27
aI29
aI64
aI80
aI157
aI172
aI291
aI293
aI323
aI505
aI700
aI741
aI746
aI818
aI825
aI872
aI873
aI874
aI875
aI876
aI878
aI879
aI880
aI886
aI887
aI888
aI929
aI930
aI932
aI1005
aI1006
aI1007
aI1008
aI1009
aI1019
aI1020
aI1021
aI1022
aI1046
aI1047
aI1067
aI1199
aI1200
aI1219
aI1220
aI1229
aI1230
aI1245
aI1246
aI1275
aI1285
aI1286
asI264
(lp258
I1213
aI1214
asI265
(lp259
I573
aI889
aI940
aI941
aI942
aI944
asI266
(lp260
I64
aI129
aI291
aI323
aI700
aI746
aI825
asI267
(lp261
I49
aI50
aI51
aI80
aI107
aI108
aI315
aI316
aI362
aI363
aI381
aI382
aI385
aI386
aI387
aI694
aI695
aI696
aI872
aI873
aI874
aI879
aI880
aI886
aI887
aI888
aI891
aI892
aI893
aI894
aI895
aI897
aI929
aI930
aI1046
aI1047
aI1101
aI1168
aI1195
aI1196
aI1199
aI1200
aI1213
aI1214
aI1219
aI1220
aI1231
aI1249
aI1250
aI1272
aI1286
asI268
(lp262
I291
aI320
aI323
aI418
aI423
aI431
aI432
aI434
aI437
aI600
aI601
aI679
aI681
aI724
aI785
aI875
aI877
aI878
aI880
aI983
aI985
aI1170
aI1171
aI1225
aI1265
aI1266
aI1284
asI269
(lp263
I545
aI552
aI993
aI994
asI270
(lp264
I17
aI18
aI36
aI37
aI38
aI64
aI80
aI138
aI139
aI141
aI157
aI172
aI196
aI198
aI200
aI221
aI242
aI243
aI248
aI279
aI291
aI293
aI323
aI490
aI505
aI534
aI537
aI541
aI542
aI545
aI685
aI689
aI700
aI741
aI746
aI819
aI824
aI825
aI872
aI873
aI874
aI879
aI886
aI887
aI888
aI929
aI930
aI988
aI990
aI1005
aI1006
aI1007
aI1008
aI1009
aI1019
aI1020
aI1021
aI1022
aI1046
aI1047
aI1067
aI1190
aI1191
aI1199
aI1200
aI1219
aI1220
aI1245
aI1246
aI1286
asI271
(lp265
I1161
aI1272
asI272
(lp266
I181
aI184
aI191
aI291
aI293
aI320
aI323
aI326
aI336
aI421
aI428
aI429
aI431
aI432
aI434
aI600
aI601
aI679
aI681
aI724
aI782
aI784
aI785
aI836
aI837
aI839
aI847
aI848
aI849
aI850
aI851
aI852
aI854
aI863
aI865
aI866
aI867
aI872
aI873
aI874
aI878
aI879
aI983
aI985
aI1024
aI1025
aI1026
aI1027
aI1028
aI1029
aI1092
aI1104
aI1105
aI1106
aI1107
aI1219
aI1220
aI1225
aI1265
aI1266
aI1272
aI1284
aI1286
asI273
(lp267
I17
aI18
aI64
aI80
aI157
aI196
aI197
aI201
aI279
aI291
aI293
aI323
aI700
aI741
aI746
aI825
aI872
aI873
aI874
aI879
aI886
aI887
aI888
aI929
aI930
aI1046
aI1047
aI1199
aI1200
aI1219
aI1220
aI1245
aI1246
aI1286
asI274
(lp268
I421
aI431
aI432
aI434
aI435
aI439
aI440
aI644
aI779
aI782
aI785
aI787
aI872
aI873
aI874
aI879
aI880
aI1059
aI1060
aI1061
aI1151
aI1152
aI1168
aI1219
aI1220
aI1225
aI1265
aI1272
aI1286
asI275
(lp269
I49
aI50
aI65
aI66
aI80
aI105
aI106
aI324
aI345
aI346
aI362
aI363
aI365
aI695
aI697
aI872
aI873
aI874
aI879
aI880
aI886
aI887
aI888
aI890
aI891
aI893
aI929
aI930
aI1046
aI1047
aI1059
aI1060
aI1061
aI1101
aI1168
aI1192
aI1193
aI1199
aI1200
aI1213
aI1214
aI1219
aI1220
aI1231
aI1249
aI1250
aI1272
aI1286
asI276
(lp270
I1089
aI1092
aI1181
aI1182
asI277
(lp271
I1124
asI278
(lp272
I7
aI17
aI18
aI32
aI34
aI36
aI37
aI38
aI42
aI64
aI80
aI138
aI139
aI141
aI157
aI172
aI196
aI198
aI200
aI221
aI222
aI223
aI225
aI242
aI243
aI248
aI291
aI293
aI323
aI490
aI505
aI534
aI537
aI541
aI542
aI545
aI684
aI685
aI686
aI700
aI741
aI746
aI824
aI825
aI872
aI873
aI874
aI879
aI886
aI887
aI888
aI929
aI930
aI988
aI990
aI1046
aI1047
aI1190
aI1191
aI1199
aI1200
aI1219
aI1220
aI1245
aI1246
aI1286
asI279
(lp273
I280
aI284
aI293
aI320
aI323
aI381
aI382
aI385
aI386
aI387
aI418
aI419
aI421
aI431
aI432
aI434
aI435
aI439
aI440
aI599
aI600
aI602
aI644
aI671
aI678
aI680
aI782
aI785
aI872
aI873
aI874
aI879
aI983
aI985
aI1101
aI1129
aI1130
aI1131
aI1140
aI1213
aI1214
aI1219
aI1220
aI1225
aI1265
aI1266
aI1272
aI1286
asI280
(lp274
I573
aI574
aI889
aI940
aI941
aI943
aI1279
asI281
(lp275
I290
aI293
aI315
aI320
aI323
aI337
aI423
aI431
aI432
aI434
aI437
aI593
aI781
aI785
aI873
aI876
aI983
aI985
aI1007
aI1008
aI1009
aI1019
aI1020
aI1021
aI1022
aI1085
aI1087
aI1225
aI1265
aI1266
aI1272
aI1285
asI282
(lp276
I1002
aI1003
aI1004
aI1007
aI1008
aI1009
aI1019
aI1020
aI1021
aI1022
aI1090
aI1091
aI1092
asI283
(lp277
I4
aI5
aI49
aI50
aI55
aI80
aI81
aI121
aI125
aI126
aI129
aI130
aI136
aI137
aI355
aI376
aI464
aI465
aI468
aI469
aI471
aI472
aI474
aI475
aI478
aI479
aI480
aI695
aI699
aI827
aI828
aI829
aI830
aI831
aI832
aI833
aI872
aI873
aI874
aI879
aI880
aI886
aI887
aI888
aI891
aI929
aI930
aI996
aI997
aI998
aI999
aI1046
aI1047
aI1058
aI1059
aI1060
aI1061
aI1081
aI1082
aI1084
aI1092
aI1108
aI1109
aI1126
aI1199
aI1200
aI1219
aI1220
aI1231
aI1241
aI1242
aI1249
aI1250
aI1271
aI1286
asI284
(lp278
I293
aI320
aI323
aI428
aI429
aI431
aI432
aI434
aI439
aI440
aI644
aI779
aI785
aI787
aI836
aI837
aI839
aI847
aI848
aI863
aI865
aI866
aI867
aI872
aI873
aI874
aI879
aI983
aI985
aI1024
aI1025
aI1026
aI1027
aI1028
aI1029
aI1104
aI1106
aI1219
aI1220
aI1225
aI1265
aI1266
aI1272
aI1286
asI285
(lp279
I425
aI429
aI431
aI432
aI434
aI661
aI1267
asI286
(lp280
I644
asI287
(lp281
I17
aI18
aI56
aI57
aI59
aI80
aI102
aI104
aI122
aI124
aI280
aI293
aI323
aI362
aI363
aI365
aI381
aI382
aI383
aI384
aI394
aI398
aI401
aI402
aI403
aI410
aI413
aI442
aI443
aI444
aI498
aI499
aI500
aI511
aI512
aI513
aI700
aI738
aI739
aI740
aI741
aI872
aI873
aI874
aI879
aI886
aI887
aI888
aI891
aI892
aI893
aI894
aI895
aI897
aI929
aI930
aI1046
aI1047
aI1101
aI1127
aI1128
aI1140
aI1188
aI1189
aI1199
aI1200
aI1207
aI1208
aI1213
aI1214
aI1219
aI1220
aI1245
aI1246
aI1272
aI1283
aI1286
asI288
(lp282
I254
aI255
aI256
aI257
aI258
aI259
aI261
aI262
aI264
aI265
aI266
aI267
aI268
aI269
aI270
aI271
aI272
aI273
aI274
aI275
aI276
aI277
asI289
(lp283
I418
aI423
aI431
aI432
aI434
aI437
aI785
aI875
aI877
aI878
aI880
aI1114
aI1115
aI1225
aI1265
asI290
(lp284
I640
aI641
aI642
aI643
aI1062
aI1066
asI291
(lp285
I320
aI323
aI338
aI355
aI376
aI421
aI428
aI429
aI431
aI432
aI434
aI524
aI526
aI527
aI530
aI532
aI594
aI597
aI630
aI631
aI632
aI633
aI634
aI637
aI782
aI785
aI799
aI800
aI801
aI802
aI803
aI807
aI836
aI837
aI839
aI863
aI865
aI866
aI867
aI869
aI870
aI871
aI872
aI873
aI874
aI879
aI880
aI898
aI899
aI901
aI905
aI983
aI985
aI1024
aI1025
aI1026
aI1027
aI1028
aI1029
aI1058
aI1059
aI1060
aI1061
aI1090
aI1091
aI1094
aI1166
aI1185
aI1186
aI1187
aI1219
aI1220
aI1225
aI1265
aI1266
aI1272
aI1286
asI292
(lp286
I17
aI18
aI64
aI67
aI68
aI71
aI80
aI138
aI139
aI141
aI157
aI160
aI166
aI172
aI173
aI196
aI197
aI198
aI202
aI234
aI237
aI238
aI242
aI247
aI248
aI279
aI291
aI293
aI294
aI323
aI355
aI356
aI366
aI490
aI505
aI534
aI537
aI541
aI542
aI543
aI545
aI546
aI547
aI550
aI551
aI552
aI577
aI700
aI741
aI746
aI822
aI824
aI825
aI858
aI860
aI862
aI872
aI873
aI874
aI879
aI886
aI887
aI888
aI891
aI929
aI930
aI988
aI989
aI990
aI1046
aI1047
aI1058
aI1059
aI1060
aI1061
aI1122
aI1124
aI1149
aI1164
aI1165
aI1190
aI1191
aI1199
aI1200
aI1219
aI1220
aI1245
aI1246
aI1272
aI1275
aI1286
asI293
(lp287
I293
aI320
aI323
aI418
aI423
aI431
aI432
aI434
aI437
aI785
aI873
aI875
aI876
aI878
aI879
aI880
aI983
aI985
aI1019
aI1020
aI1021
aI1022
aI1130
aI1131
aI1225
aI1265
aI1266
aI1285
asI294
(lp288
I425
aI429
aI431
aI432
aI434
aI661
aI1067
aI1267
asI295
(lp289
I418
aI419
aI421
aI431
aI432
aI434
aI435
aI439
aI440
aI644
aI782
aI785
aI872
aI873
aI874
aI879
aI880
aI1113
aI1114
aI1115
aI1168
aI1213
aI1214
aI1219
aI1220
aI1225
aI1265
aI1272
aI1286
asI296
(lp290
I1119
aI1120
aI1121
asI297
(lp291
I421
aI431
aI432
aI434
aI439
aI440
aI644
aI872
aI873
aI874
aI879
aI880
aI906
aI907
aI908
aI909
aI910
aI911
aI912
aI952
aI953
aI957
aI1058
aI1059
aI1060
aI1061
aI1219
aI1220
aI1243
aI1244
aI1272
aI1282
aI1286
aI1287
asI298
(lp292
I17
aI18
aI56
aI74
aI75
aI80
aI122
aI124
aI133
aI284
aI293
aI323
aI328
aI395
aI442
aI443
aI444
aI513
aI700
aI701
aI740
aI741
aI872
aI873
aI874
aI879
aI886
aI887
aI888
aI929
aI930
aI1046
aI1047
aI1199
aI1200
aI1207
aI1208
aI1219
aI1220
aI1245
aI1246
aI1286
asI299
(lp293
I17
aI18
aI56
aI64
aI80
aI88
aI90
aI209
aI217
aI291
aI293
aI323
aI507
aI508
aI700
aI741
aI746
aI790
aI797
aI825
aI863
aI864
aI865
aI866
aI872
aI873
aI874
aI879
aI886
aI887
aI888
aI929
aI930
aI1046
aI1047
aI1199
aI1200
aI1219
aI1220
aI1245
aI1246
aI1286
asI300
(lp294
I17
aI18
aI32
aI35
aI36
aI37
aI38
aI42
aI56
aI57
aI59
aI64
aI80
aI91
aI93
aI122
aI124
aI129
aI131
aI147
aI157
aI172
aI219
aI221
aI222
aI223
aI225
aI232
aI233
aI242
aI243
aI247
aI289
aI291
aI293
aI301
aI302
aI323
aI355
aI356
aI389
aI404
aI406
aI407
aI408
aI415
aI442
aI443
aI444
aI447
aI448
aI450
aI453
aI454
aI455
aI456
aI457
aI458
aI459
aI460
aI461
aI462
aI463
aI490
aI496
aI499
aI503
aI504
aI505
aI509
aI510
aI513
aI527
aI532
aI534
aI537
aI541
aI542
aI645
aI646
aI648
aI649
aI651
aI653
aI654
aI655
aI656
aI657
aI658
aI684
aI685
aI686
aI700
aI738
aI740
aI741
aI744
aI746
aI768
aI771
aI772
aI773
aI774
aI775
aI777
aI789
aI790
aI791
aI792
aI794
aI797
aI821
aI825
aI865
aI866
aI869
aI870
aI871
aI872
aI873
aI874
aI879
aI886
aI887
aI888
aI891
aI920
aI926
aI929
aI930
aI991
aI1046
aI1047
aI1049
aI1050
aI1051
aI1052
aI1053
aI1077
aI1078
aI1080
aI1099
aI1127
aI1128
aI1155
aI1156
aI1186
aI1199
aI1200
aI1207
aI1208
aI1219
aI1220
aI1233
aI1234
aI1236
aI1237
aI1245
aI1246
aI1272
aI1277
aI1286
asI301
(lp295
I157
aI172
aI291
aI293
aI320
aI323
aI425
aI431
aI432
aI434
aI439
aI534
aI535
aI536
aI539
aI540
aI541
aI542
aI600
aI601
aI679
aI681
aI706
aI708
aI724
aI785
aI983
aI985
aI1123
aI1225
aI1265
aI1266
aI1284
asI302
(lp296
I536
aI549
asI303
(lp297
I17
aI18
aI46
aI47
aI48
aI49
aI50
aI52
aI53
aI54
aI64
aI80
aI138
aI139
aI141
aI157
aI172
aI196
aI198
aI200
aI230
aI242
aI248
aI291
aI293
aI318
aI319
aI320
aI321
aI323
aI327
aI355
aI376
aI490
aI492
aI493
aI494
aI495
aI505
aI534
aI537
aI541
aI542
aI545
aI695
aI700
aI741
aI746
aI824
aI825
aI872
aI873
aI874
aI879
aI880
aI886
aI887
aI888
aI891
aI929
aI930
aI983
aI985
aI988
aI990
aI1046
aI1047
aI1093
aI1094
aI1095
aI1190
aI1191
aI1199
aI1200
aI1219
aI1220
aI1231
aI1245
aI1246
aI1249
aI1250
aI1272
aI1275
aI1280
aI1286
asI304
(lp298
I17
aI18
aI64
aI80
aI110
aI116
aI172
aI291
aI293
aI323
aI505
aI700
aI741
aI746
aI825
aI872
aI873
aI874
aI879
aI886
aI887
aI888
aI929
aI930
aI1046
aI1047
aI1199
aI1200
aI1219
aI1220
aI1245
aI1246
aI1286
asI305
(lp299
I17
aI18
aI49
aI50
aI55
aI64
aI67
aI68
aI70
aI71
aI76
aI77
aI78
aI79
aI80
aI81
aI109
aI110
aI111
aI112
aI113
aI114
aI117
aI120
aI121
aI125
aI126
aI129
aI130
aI136
aI137
aI138
aI139
aI141
aI157
aI172
aI185
aI187
aI196
aI198
aI200
aI234
aI242
aI244
aI248
aI279
aI291
aI293
aI320
aI323
aI355
aI357
aI358
aI360
aI361
aI376
aI467
aI468
aI469
aI471
aI474
aI475
aI478
aI479
aI486
aI487
aI490
aI505
aI534
aI537
aI541
aI542
aI545
aI575
aI579
aI580
aI582
aI585
aI695
aI699
aI700
aI741
aI746
aI822
aI823
aI824
aI825
aI827
aI828
aI829
aI830
aI831
aI832
aI833
aI872
aI873
aI874
aI875
aI876
aI878
aI879
aI880
aI886
aI887
aI888
aI891
aI893
aI929
aI930
aI932
aI983
aI985
aI988
aI990
aI995
aI996
aI998
aI1007
aI1008
aI1009
aI1019
aI1020
aI1021
aI1022
aI1046
aI1047
aI1058
aI1059
aI1060
aI1061
aI1092
aI1101
aI1126
aI1164
aI1165
aI1174
aI1175
aI1183
aI1184
aI1190
aI1191
aI1199
aI1200
aI1219
aI1220
aI1231
aI1241
aI1242
aI1245
aI1246
aI1249
aI1250
aI1275
aI1280
aI1285
aI1286
asI306
(lp300
I17
aI18
aI36
aI37
aI38
aI42
aI64
aI80
aI138
aI139
aI141
aI148
aI157
aI172
aI196
aI198
aI200
aI221
aI224
aI242
aI243
aI248
aI279
aI291
aI293
aI323
aI490
aI505
aI534
aI537
aI541
aI542
aI545
aI685
aI690
aI700
aI741
aI746
aI819
aI824
aI825
aI872
aI873
aI874
aI878
aI879
aI886
aI887
aI888
aI929
aI930
aI946
aI988
aI990
aI1046
aI1047
aI1158
aI1159
aI1160
aI1190
aI1191
aI1197
aI1198
aI1199
aI1200
aI1219
aI1220
aI1245
aI1246
aI1286
asI307
(lp301
I155
aI158
aI160
aI165
aI167
aI181
aI184
aI191
aI192
aI193
aI291
aI293
aI320
aI323
aI421
aI428
aI429
aI431
aI432
aI434
aI556
aI561
aI566
aI567
aI576
aI577
aI581
aI587
aI588
aI600
aI601
aI679
aI681
aI724
aI782
aI785
aI836
aI837
aI839
aI847
aI848
aI849
aI850
aI851
aI852
aI853
aI854
aI863
aI865
aI866
aI867
aI872
aI873
aI874
aI878
aI879
aI983
aI985
aI1024
aI1025
aI1026
aI1027
aI1028
aI1029
aI1072
aI1073
aI1074
aI1075
aI1076
aI1089
aI1092
aI1112
aI1219
aI1220
aI1225
aI1265
aI1266
aI1272
aI1284
aI1286
asI308
(lp302
I320
aI323
aI423
aI431
aI432
aI434
aI437
aI785
aI808
aI816
aI875
aI877
aI878
aI880
aI983
aI985
aI1060
aI1061
aI1225
aI1265
aI1266
asI309
(lp303
I17
aI18
aI26
aI27
aI30
aI31
aI56
aI57
aI59
aI64
aI80
aI91
aI93
aI138
aI139
aI141
aI157
aI172
aI196
aI198
aI200
aI219
aI232
aI233
aI242
aI247
aI248
aI289
aI291
aI293
aI301
aI302
aI323
aI355
aI356
aI490
aI496
aI499
aI503
aI505
aI509
aI510
aI527
aI528
aI532
aI534
aI537
aI541
aI542
aI545
aI700
aI738
aI741
aI744
aI746
aI789
aI790
aI791
aI792
aI797
aI818
aI824
aI825
aI865
aI866
aI869
aI870
aI871
aI872
aI873
aI874
aI878
aI879
aI886
aI887
aI888
aI891
aI929
aI930
aI988
aI990
aI1046
aI1047
aI1127
aI1128
aI1186
aI1190
aI1191
aI1199
aI1200
aI1219
aI1220
aI1229
aI1230
aI1233
aI1234
aI1245
aI1246
aI1272
aI1275
aI1286
asI310
(lp304
I145
aI154
aI157
aI172
aI284
aI291
aI293
aI320
aI323
aI381
aI382
aI418
aI419
aI421
aI431
aI432
aI434
aI435
aI439
aI440
aI579
aI580
aI582
aI599
aI600
aI601
aI602
aI644
aI678
aI679
aI680
aI681
aI721
aI723
aI724
aI725
aI782
aI785
aI872
aI873
aI874
aI879
aI983
aI985
aI1101
aI1146
aI1169
aI1170
aI1171
aI1213
aI1214
aI1219
aI1220
aI1225
aI1265
aI1266
aI1272
aI1284
aI1286
asI311
(lp305
I284
aI285
aI287
aI288
aI293
aI298
aI300
aI320
aI323
aI355
aI362
aI363
aI364
aI376
aI421
aI431
aI432
aI434
aI599
aI600
aI602
aI630
aI631
aI632
aI633
aI634
aI635
aI636
aI637
aI640
aI641
aI642
aI643
aI670
aI678
aI680
aI782
aI785
aI808
aI809
aI810
aI811
aI812
aI813
aI814
aI815
aI816
aI872
aI873
aI874
aI879
aI914
aI915
aI916
aI917
aI918
aI983
aI985
aI1059
aI1060
aI1061
aI1062
aI1066
aI1101
aI1116
aI1117
aI1138
aI1139
aI1161
aI1162
aI1213
aI1214
aI1219
aI1220
aI1225
aI1232
aI1235
aI1265
aI1266
aI1272
aI1286
asI312
(lp306
I157
aI172
aI173
aI291
aI293
aI297
aI320
aI323
aI366
aI421
aI431
aI432
aI434
aI435
aI439
aI440
aI600
aI601
aI644
aI679
aI681
aI724
aI782
aI785
aI872
aI873
aI874
aI879
aI983
aI985
aI1132
aI1133
aI1134
aI1219
aI1220
aI1225
aI1265
aI1266
aI1268
aI1272
aI1281
aI1284
aI1286
asI313
(lp307
I9
aI10
aI11
aI12
aI16
aI17
aI18
aI36
aI37
aI38
aI42
aI64
aI67
aI68
aI71
aI80
aI138
aI139
aI141
aI146
aI148
aI157
aI159
aI172
aI196
aI198
aI200
aI218
aI221
aI222
aI223
aI225
aI231
aI232
aI234
aI236
aI238
aI242
aI243
aI247
aI248
aI291
aI293
aI320
aI323
aI355
aI356
aI490
aI505
aI534
aI537
aI541
aI542
aI545
aI684
aI685
aI686
aI700
aI741
aI746
aI817
aI819
aI822
aI824
aI825
aI872
aI873
aI874
aI879
aI886
aI887
aI888
aI891
aI929
aI930
aI983
aI985
aI988
aI990
aI1046
aI1047
aI1058
aI1059
aI1060
aI1061
aI1164
aI1165
aI1190
aI1191
aI1197
aI1198
aI1199
aI1200
aI1219
aI1220
aI1245
aI1246
aI1253
aI1254
aI1272
aI1275
aI1280
aI1286
asI314
(lp308
I17
aI18
aI56
aI57
aI59
aI64
aI80
aI102
aI104
aI280
aI291
aI293
aI323
aI362
aI363
aI381
aI382
aI385
aI386
aI387
aI498
aI499
aI500
aI511
aI512
aI700
aI738
aI739
aI741
aI746
aI825
aI872
aI873
aI874
aI879
aI886
aI887
aI888
aI891
aI892
aI893
aI894
aI895
aI897
aI929
aI930
aI1046
aI1047
aI1101
aI1127
aI1128
aI1140
aI1188
aI1189
aI1199
aI1200
aI1213
aI1214
aI1219
aI1220
aI1245
aI1246
aI1272
aI1286
asI315
(lp309
I644
asI316
(lp310
I1033
aI1034
aI1272
asI317
(lp311
I573
aI889
aI940
aI944
asI318
(lp312
I17
aI18
aI56
aI64
aI80
aI122
aI124
aI291
aI293
aI323
aI335
aI442
aI443
aI444
aI513
aI700
aI740
aI741
aI746
aI825
aI872
aI873
aI874
aI879
aI886
aI887
aI888
aI929
aI930
aI983
aI985
aI1046
aI1047
aI1199
aI1200
aI1207
aI1208
aI1219
aI1220
aI1245
aI1246
aI1274
aI1277
aI1286
asI319
(lp313
I1007
aI1008
aI1009
aI1019
aI1020
aI1021
aI1022
aI1153
aI1154
aI1272
asI320
(lp314
I64
aI67
aI69
aI291
aI293
aI323
aI700
aI746
aI825
aI1200
asI321
(lp315
I1081
aI1083
asI322
(lp316
I49
aI50
aI55
aI80
aI81
aI121
aI125
aI126
aI129
aI130
aI136
aI137
aI323
aI355
aI376
aI468
aI469
aI471
aI474
aI475
aI478
aI479
aI486
aI695
aI699
aI827
aI828
aI829
aI830
aI831
aI832
aI833
aI872
aI873
aI874
aI879
aI880
aI886
aI887
aI888
aI891
aI929
aI930
aI982
aI984
aI995
aI996
aI998
aI1046
aI1047
aI1058
aI1059
aI1060
aI1061
aI1092
aI1126
aI1199
aI1200
aI1219
aI1220
aI1231
aI1241
aI1242
aI1249
aI1250
aI1280
aI1286
asI323
(lp317
I1082
aI1083
asI324
(lp318
I872
aI873
aI874
aI879
aI1059
aI1060
aI1061
aI1219
aI1220
aI1286
asI325
(lp319
I284
aI293
aI323
aI328
aI335
aI395
aI603
aI983
aI985
aI1269
asI326
(lp320
I0
aI2
aI17
aI18
aI80
aI289
aI293
aI320
aI323
aI354
aI355
aI356
aI372
aI373
aI375
aI700
aI738
aI741
aI872
aI873
aI874
aI875
aI876
aI878
aI879
aI880
aI881
aI883
aI886
aI887
aI888
aI929
aI930
aI932
aI983
aI985
aI1007
aI1008
aI1009
aI1019
aI1020
aI1021
aI1022
aI1044
aI1045
aI1046
aI1048
aI1128
aI1199
aI1200
aI1219
aI1220
aI1245
aI1246
aI1280
aI1285
aI1286
asI327
(lp321
I154
aI157
aI172
aI188
aI189
aI284
aI291
aI293
aI320
aI323
aI421
aI431
aI432
aI434
aI435
aI579
aI580
aI582
aI599
aI600
aI601
aI602
aI631
aI632
aI633
aI634
aI636
aI637
aI678
aI679
aI680
aI681
aI720
aI721
aI723
aI724
aI725
aI758
aI759
aI767
aI782
aI785
aI872
aI873
aI874
aI879
aI983
aI985
aI1059
aI1060
aI1061
aI1101
aI1145
aI1146
aI1170
aI1171
aI1213
aI1214
aI1219
aI1220
aI1225
aI1265
aI1266
aI1284
aI1286
asI328
(lp322
I630
aI631
aI632
aI1090
asI329
(lp323
I949
aI950
aI951
asI330
(lp324
I154
aI157
aI172
aI196
aI198
aI200
aI284
aI291
aI293
aI320
aI323
aI421
aI431
aI432
aI434
aI435
aI439
aI534
aI535
aI536
aI537
aI540
aI541
aI542
aI545
aI599
aI600
aI601
aI602
aI678
aI679
aI680
aI681
aI705
aI706
aI707
aI708
aI714
aI722
aI723
aI724
aI725
aI782
aI785
aI872
aI873
aI874
aI879
aI983
aI985
aI988
aI990
aI1219
aI1220
aI1224
aI1225
aI1265
aI1266
aI1284
aI1286
asI331
(lp325
I1067
aI1068
aI1071
asI332
(lp326
I644
asI333
(lp327
I836
aI837
aI838
aI840
aI841
aI842
aI843
aI844
aI845
aI1024
aI1025
aI1026
aI1027
aI1028
aI1029
aI1281
asI334
(lp328
I940
aI942
aI944
asI335
(lp329
I17
aI18
aI36
aI37
aI38
aI42
aI64
aI80
aI138
aI139
aI141
aI146
aI148
aI157
aI172
aI196
aI198
aI200
aI221
aI222
aI223
aI225
aI242
aI243
aI248
aI279
aI291
aI293
aI323
aI490
aI505
aI534
aI537
aI541
aI542
aI545
aI684
aI685
aI686
aI700
aI741
aI746
aI819
aI824
aI825
aI872
aI873
aI874
aI879
aI886
aI887
aI888
aI929
aI930
aI988
aI990
aI1046
aI1047
aI1190
aI1191
aI1197
aI1198
aI1199
aI1200
aI1219
aI1220
aI1245
aI1246
aI1286
asI336
(lp330
I284
aI288
aI289
aI291
aI292
aI293
aI301
aI302
aI320
aI323
aI355
aI356
aI421
aI428
aI429
aI431
aI432
aI434
aI524
aI526
aI527
aI530
aI532
aI599
aI600
aI601
aI602
aI630
aI631
aI632
aI633
aI634
aI637
aI638
aI641
aI670
aI677
aI678
aI679
aI680
aI681
aI724
aI782
aI785
aI808
aI809
aI811
aI816
aI836
aI837
aI839
aI847
aI848
aI849
aI863
aI865
aI866
aI867
aI869
aI870
aI871
aI872
aI873
aI874
aI879
aI915
aI983
aI985
aI1024
aI1025
aI1026
aI1027
aI1028
aI1029
aI1058
aI1059
aI1060
aI1061
aI1104
aI1105
aI1106
aI1107
aI1138
aI1185
aI1186
aI1219
aI1220
aI1225
aI1235
aI1265
aI1266
aI1272
aI1284
aI1286
asI337
(lp331
I17
aI18
aI64
aI67
aI68
aI70
aI71
aI80
aI138
aI139
aI141
aI157
aI172
aI196
aI198
aI200
aI242
aI248
aI279
aI291
aI293
aI323
aI354
aI355
aI357
aI358
aI359
aI361
aI376
aI490
aI505
aI534
aI537
aI541
aI542
aI545
aI700
aI741
aI746
aI822
aI824
aI825
aI872
aI873
aI874
aI875
aI876
aI878
aI879
aI880
aI886
aI887
aI888
aI891
aI929
aI930
aI932
aI988
aI990
aI1007
aI1008
aI1009
aI1019
aI1020
aI1021
aI1022
aI1046
aI1047
aI1058
aI1059
aI1060
aI1061
aI1164
aI1165
aI1190
aI1191
aI1199
aI1200
aI1219
aI1220
aI1245
aI1246
aI1285
aI1286
asI338
(lp332
I49
aI50
aI55
aI80
aI81
aI121
aI125
aI126
aI129
aI130
aI136
aI137
aI333
aI334
aI342
aI344
aI345
aI347
aI349
aI351
aI353
aI354
aI355
aI376
aI468
aI469
aI471
aI474
aI475
aI478
aI479
aI486
aI695
aI699
aI827
aI828
aI829
aI830
aI831
aI832
aI833
aI872
aI873
aI874
aI879
aI880
aI886
aI887
aI888
aI891
aI929
aI930
aI973
aI974
aI995
aI996
aI998
aI1046
aI1047
aI1058
aI1059
aI1060
aI1061
aI1092
aI1126
aI1199
aI1200
aI1219
aI1220
aI1231
aI1241
aI1242
aI1249
aI1250
aI1286
asI339
(lp333
I157
aI172
aI291
aI293
aI320
aI323
aI421
aI431
aI432
aI434
aI435
aI439
aI440
aI600
aI601
aI644
aI679
aI681
aI724
aI779
aI782
aI785
aI787
aI872
aI873
aI874
aI879
aI983
aI985
aI1219
aI1220
aI1225
aI1251
aI1252
aI1265
aI1266
aI1272
aI1284
aI1286
asI340
(lp334
I573
aI940
aI945
aI1006
aI1007
aI1008
aI1009
aI1019
aI1020
aI1021
aI1022
aI1067
asI341
(lp335
I17
aI18
aI37
aI40
aI64
aI80
aI172
aI291
aI293
aI323
aI505
aI700
aI741
aI746
aI825
aI872
aI873
aI874
aI879
aI886
aI887
aI888
aI929
aI930
aI1046
aI1047
aI1199
aI1200
aI1219
aI1220
aI1245
aI1246
aI1286
asI342
(lp336
I544
aI552
asI343
(lp337
I17
aI18
aI56
aI57
aI59
aI64
aI80
aI102
aI104
aI122
aI124
aI172
aI280
aI291
aI293
aI323
aI362
aI363
aI365
aI381
aI382
aI383
aI384
aI394
aI396
aI398
aI399
aI400
aI410
aI412
aI442
aI443
aI444
aI498
aI499
aI500
aI511
aI512
aI513
aI700
aI738
aI739
aI740
aI741
aI746
aI825
aI872
aI873
aI874
aI879
aI886
aI887
aI888
aI891
aI892
aI893
aI894
aI895
aI897
aI929
aI930
aI1046
aI1047
aI1101
aI1127
aI1128
aI1140
aI1188
aI1189
aI1199
aI1200
aI1207
aI1208
aI1213
aI1214
aI1219
aI1220
aI1245
aI1246
aI1272
aI1277
aI1283
aI1286
asI344
(lp338
I17
aI18
aI36
aI37
aI38
aI41
aI56
aI64
aI80
aI94
aI95
aI96
aI97
aI98
aI99
aI100
aI101
aI138
aI139
aI141
aI146
aI148
aI157
aI172
aI196
aI198
aI200
aI230
aI231
aI242
aI243
aI248
aI279
aI291
aI293
aI294
aI320
aI323
aI490
aI491
aI505
aI534
aI537
aI541
aI542
aI545
aI551
aI700
aI741
aI746
aI819
aI824
aI825
aI872
aI873
aI874
aI879
aI886
aI887
aI888
aI929
aI930
aI983
aI985
aI988
aI990
aI1031
aI1033
aI1034
aI1046
aI1047
aI1190
aI1191
aI1197
aI1198
aI1199
aI1200
aI1219
aI1220
aI1245
aI1246
aI1272
aI1275
aI1280
aI1286
asI345
(lp339
I17
aI18
aI80
aI281
aI282
aI283
aI293
aI320
aI323
aI700
aI741
aI872
aI873
aI874
aI879
aI886
aI887
aI888
aI929
aI930
aI983
aI985
aI1046
aI1047
aI1199
aI1200
aI1219
aI1220
aI1245
aI1246
aI1280
aI1286
asI346
(lp340
I17
aI18
aI56
aI57
aI59
aI64
aI74
aI75
aI80
aI122
aI124
aI138
aI139
aI141
aI157
aI172
aI173
aI175
aI176
aI177
aI196
aI242
aI248
aI279
aI284
aI291
aI293
aI297
aI300
aI309
aI320
aI323
aI332
aI349
aI351
aI352
aI366
aI490
aI499
aI501
aI505
aI506
aI513
aI534
aI537
aI541
aI542
aI545
aI700
aI703
aI738
aI740
aI741
aI746
aI824
aI825
aI872
aI873
aI874
aI879
aI886
aI887
aI888
aI891
aI918
aI929
aI930
aI983
aI985
aI988
aI990
aI1046
aI1047
aI1066
aI1127
aI1128
aI1190
aI1191
aI1199
aI1200
aI1207
aI1208
aI1219
aI1220
aI1245
aI1246
aI1275
aI1280
aI1281
aI1286
asI347
(lp341
I644
asI348
(lp342
I827
aI828
aI829
aI830
aI831
aI832
aI833
asI349
(lp343
I154
aI157
aI161
aI162
aI163
aI164
aI172
aI284
aI291
aI293
aI320
aI323
aI355
aI376
aI421
aI431
aI432
aI434
aI580
aI599
aI600
aI601
aI602
aI631
aI632
aI633
aI634
aI636
aI637
aI678
aI679
aI680
aI681
aI720
aI723
aI724
aI725
aI758
aI759
aI767
aI782
aI785
aI872
aI873
aI874
aI879
aI960
aI961
aI983
aI985
aI1059
aI1060
aI1061
aI1144
aI1219
aI1220
aI1225
aI1265
aI1266
aI1284
aI1286
asI350
(lp344
I64
aI82
aI84
aI121
aI127
aI128
aI291
aI323
aI700
aI746
aI825
asI351
(lp345
I1089
aI1090
aI1091
aI1092
aI1181
aI1182
asI352
(lp346
I17
aI18
aI26
aI27
aI30
aI31
aI56
aI57
aI59
aI64
aI80
aI91
aI93
aI122
aI124
aI129
aI131
aI157
aI172
aI191
aI219
aI220
aI232
aI233
aI242
aI247
aI289
aI291
aI293
aI301
aI302
aI323
aI355
aI356
aI389
aI390
aI391
aI392
aI405
aI411
aI416
aI442
aI443
aI444
aI446
aI447
aI448
aI449
aI450
aI451
aI452
aI453
aI454
aI455
aI456
aI457
aI458
aI459
aI460
aI461
aI462
aI463
aI490
aI496
aI499
aI503
aI504
aI505
aI509
aI510
aI513
aI527
aI528
aI532
aI534
aI537
aI541
aI542
aI645
aI646
aI647
aI648
aI649
aI650
aI653
aI654
aI655
aI656
aI657
aI658
aI700
aI738
aI740
aI741
aI744
aI746
aI768
aI769
aI789
aI790
aI791
aI792
aI794
aI796
aI797
aI818
aI825
aI865
aI866
aI869
aI870
aI871
aI872
aI873
aI874
aI878
aI879
aI886
aI887
aI888
aI891
aI920
aI921
aI923
aI925
aI926
aI929
aI930
aI991
aI1046
aI1047
aI1049
aI1050
aI1051
aI1052
aI1053
aI1077
aI1078
aI1079
aI1097
aI1099
aI1127
aI1128
aI1155
aI1156
aI1186
aI1199
aI1200
aI1207
aI1208
aI1219
aI1220
aI1229
aI1230
aI1233
aI1234
aI1245
aI1246
aI1272
aI1277
aI1286
asI353
(lp347
I284
aI291
aI293
aI317
aI320
aI323
aI324
aI363
aI421
aI431
aI432
aI434
aI594
aI599
aI600
aI601
aI608
aI631
aI632
aI633
aI634
aI635
aI636
aI637
aI678
aI679
aI681
aI682
aI724
aI726
aI748
aI749
aI750
aI752
aI782
aI785
aI872
aI873
aI874
aI879
aI880
aI898
aI899
aI900
aI905
aI940
aI941
aI943
aI977
aI978
aI980
aI981
aI983
aI985
aI1058
aI1059
aI1060
aI1061
aI1090
aI1091
aI1101
aI1119
aI1120
aI1121
aI1166
aI1167
aI1213
aI1214
aI1219
aI1220
aI1225
aI1265
aI1266
aI1272
aI1279
aI1284
aI1286
asI354
(lp348
I17
aI18
aI64
aI67
aI68
aI71
aI77
aI79
aI80
aI109
aI110
aI112
aI117
aI138
aI139
aI141
aI157
aI160
aI172
aI182
aI183
aI196
aI198
aI200
aI234
aI242
aI244
aI248
aI279
aI291
aI293
aI323
aI376
aI490
aI505
aI534
aI537
aI541
aI542
aI545
aI575
aI577
aI579
aI580
aI582
aI585
aI700
aI741
aI746
aI822
aI823
aI824
aI825
aI872
aI873
aI874
aI879
aI886
aI887
aI888
aI891
aI893
aI929
aI930
aI988
aI990
aI1046
aI1047
aI1058
aI1059
aI1060
aI1061
aI1101
aI1164
aI1165
aI1183
aI1184
aI1190
aI1191
aI1199
aI1200
aI1219
aI1220
aI1245
aI1246
aI1257
aI1272
aI1286
asI355
(lp349
I17
aI18
aI64
aI67
aI68
aI71
aI80
aI138
aI139
aI141
aI157
aI160
aI165
aI166
aI172
aI196
aI198
aI234
aI237
aI238
aI246
aI247
aI248
aI279
aI291
aI293
aI323
aI354
aI355
aI356
aI372
aI373
aI375
aI490
aI505
aI534
aI537
aI541
aI542
aI545
aI546
aI547
aI550
aI577
aI581
aI700
aI741
aI746
aI822
aI824
aI825
aI872
aI873
aI874
aI879
aI886
aI887
aI888
aI891
aI929
aI930
aI988
aI990
aI1046
aI1047
aI1058
aI1059
aI1060
aI1061
aI1164
aI1165
aI1190
aI1191
aI1199
aI1200
aI1219
aI1220
aI1245
aI1246
aI1272
aI1275
aI1286
asI356
(lp350
I644
asI357
(lp351
I56
aI64
aI122
aI123
aI291
aI323
aI700
aI746
aI825
aI1200
asI358
(lp352
I429
aI661
aI906
aI908
aI966
aI967
aI968
aI969
aI970
aI972
aI1142
aI1143
aI1205
aI1206
aI1267
aI1272
aI1276
aI1278
aI1282
aI1287
asI359
(lp353
I1213
aI1214
asI360
(lp354
I17
aI18
aI56
aI57
aI59
aI64
aI80
aI102
aI104
aI122
aI124
aI172
aI280
aI291
aI293
aI323
aI362
aI363
aI365
aI381
aI382
aI383
aI384
aI394
aI397
aI398
aI399
aI400
aI410
aI414
aI442
aI443
aI444
aI498
aI499
aI500
aI511
aI512
aI513
aI700
aI738
aI739
aI740
aI741
aI746
aI825
aI872
aI873
aI874
aI879
aI886
aI887
aI888
aI891
aI892
aI893
aI894
aI895
aI897
aI929
aI930
aI1046
aI1047
aI1101
aI1127
aI1128
aI1140
aI1188
aI1189
aI1199
aI1200
aI1207
aI1208
aI1213
aI1214
aI1219
aI1220
aI1245
aI1246
aI1272
aI1277
aI1283
aI1286
asI361
(lp355
I156
aI291
aI320
aI323
aI555
aI556
aI558
aI559
aI561
aI600
aI601
aI679
aI681
aI724
aI983
aI985
aI1266
aI1284
asI362
(lp356
I1272
asI363
(lp357
I949
aI950
aI951
asI364
(lp358
I157
aI172
aI291
aI293
aI320
aI323
aI431
aI432
aI434
aI439
aI440
aI600
aI601
aI610
aI611
aI615
aI617
aI619
aI620
aI621
aI622
aI623
aI638
aI641
aI644
aI679
aI681
aI683
aI684
aI685
aI686
aI687
aI689
aI690
aI691
aI693
aI724
aI785
aI872
aI873
aI874
aI879
aI947
aI948
aI949
aI950
aI951
aI983
aI985
aI1000
aI1089
aI1090
aI1091
aI1092
aI1178
aI1181
aI1182
aI1219
aI1220
aI1225
aI1265
aI1266
aI1272
aI1284
aI1286
asI365
(lp359
I1006
aI1007
aI1008
aI1009
aI1019
aI1020
aI1021
aI1022
aI1067
aI1137
asI366
(lp360
I421
aI431
aI432
aI434
aI435
aI439
aI440
aI644
aI782
aI785
aI872
aI873
aI874
aI879
aI880
aI1059
aI1060
aI1061
aI1150
aI1151
aI1152
aI1168
aI1213
aI1214
aI1219
aI1220
aI1225
aI1265
aI1272
aI1286
asI367
(lp361
I154
aI157
aI172
aI183
aI284
aI291
aI293
aI320
aI323
aI418
aI419
aI421
aI431
aI432
aI434
aI435
aI439
aI440
aI575
aI578
aI579
aI582
aI585
aI586
aI599
aI600
aI601
aI602
aI631
aI632
aI633
aI634
aI636
aI637
aI644
aI678
aI679
aI680
aI681
aI720
aI721
aI723
aI724
aI725
aI758
aI759
aI767
aI782
aI785
aI872
aI873
aI874
aI879
aI963
aI983
aI985
aI1059
aI1060
aI1061
aI1092
aI1101
aI1145
aI1146
aI1169
aI1170
aI1171
aI1213
aI1214
aI1219
aI1220
aI1225
aI1257
aI1265
aI1266
aI1272
aI1284
aI1286
asI368
(lp362
I638
aI641
aI643
aI1062
aI1066
asI369
(lp363
I644
asI371
(lp364
I644
asI372
(lp365
I537
aI1122
asI373
(lp366
I990
asI374
(lp367
I873
aI875
aI876
aI878
aI879
aI880
aI1007
aI1008
aI1009
aI1019
aI1020
aI1021
aI1022
aI1060
aI1061
aI1285
asI375
(lp368
I203
aI291
aI320
aI323
aI363
aI421
aI431
aI432
aI434
aI594
aI599
aI600
aI601
aI631
aI632
aI633
aI634
aI637
aI678
aI679
aI681
aI724
aI751
aI753
aI756
aI782
aI785
aI872
aI873
aI874
aI879
aI880
aI898
aI899
aI905
aI940
aI941
aI943
aI983
aI985
aI1058
aI1059
aI1060
aI1061
aI1090
aI1091
aI1101
aI1167
aI1213
aI1214
aI1219
aI1220
aI1225
aI1265
aI1266
aI1272
aI1279
aI1284
aI1286
asI376
(lp369
I157
aI172
aI291
aI293
aI320
aI323
aI421
aI431
aI432
aI434
aI576
aI577
aI580
aI581
aI587
aI588
aI591
aI592
aI600
aI601
aI630
aI631
aI632
aI633
aI634
aI635
aI636
aI637
aI679
aI681
aI724
aI758
aI759
aI760
aI761
aI762
aI763
aI764
aI765
aI766
aI767
aI782
aI785
aI872
aI873
aI874
aI879
aI959
aI960
aI962
aI964
aI965
aI983
aI985
aI1030
aI1058
aI1059
aI1060
aI1061
aI1089
aI1090
aI1091
aI1092
aI1102
aI1103
aI1111
aI1112
aI1144
aI1145
aI1201
aI1213
aI1214
aI1219
aI1220
aI1223
aI1225
aI1256
aI1265
aI1266
aI1272
aI1284
aI1286
asI377
(lp370
I966
aI967
aI968
aI971
aI1194
asI378
(lp371
I17
aI18
aI64
aI80
aI172
aI291
aI293
aI294
aI323
aI700
aI741
aI746
aI825
aI872
aI873
aI874
aI879
aI886
aI887
aI888
aI929
aI930
aI1046
aI1047
aI1199
aI1200
aI1219
aI1220
aI1245
aI1246
aI1275
aI1286
asI379
(lp372
I17
aI18
aI26
aI27
aI30
aI32
aI35
aI36
aI37
aI38
aI42
aI64
aI80
aI138
aI139
aI141
aI146
aI147
aI148
aI157
aI172
aI194
aI196
aI198
aI200
aI221
aI222
aI223
aI225
aI242
aI243
aI248
aI279
aI291
aI293
aI323
aI490
aI505
aI534
aI537
aI541
aI542
aI545
aI684
aI685
aI686
aI700
aI741
aI746
aI818
aI819
aI821
aI824
aI825
aI872
aI873
aI874
aI879
aI886
aI887
aI888
aI929
aI930
aI988
aI990
aI991
aI1046
aI1047
aI1190
aI1191
aI1197
aI1198
aI1199
aI1200
aI1219
aI1220
aI1229
aI1230
aI1236
aI1237
aI1245
aI1246
aI1286
asI380
(lp373
I157
aI172
aI291
aI293
aI320
aI323
aI421
aI431
aI432
aI434
aI435
aI439
aI440
aI534
aI535
aI536
aI539
aI540
aI541
aI542
aI600
aI601
aI644
aI679
aI681
aI706
aI707
aI708
aI724
aI779
aI782
aI785
aI787
aI872
aI873
aI874
aI879
aI983
aI985
aI1123
aI1219
aI1220
aI1225
aI1265
aI1266
aI1272
aI1284
aI1286
asI381
(lp374
I882
aI883
aI884
aI885
aI886
aI887
aI888
aI1044
aI1045
aI1046
aI1048
asI382
(lp375
I573
aI889
aI940
aI941
aI943
asI383
(lp376
I284
aI291
aI293
aI317
aI320
aI323
aI324
aI363
aI421
aI431
aI432
aI434
aI594
aI599
aI600
aI601
aI608
aI631
aI632
aI633
aI634
aI635
aI636
aI637
aI678
aI679
aI681
aI682
aI724
aI726
aI748
aI749
aI750
aI752
aI782
aI785
aI872
aI873
aI874
aI879
aI880
aI898
aI899
aI900
aI905
aI940
aI941
aI943
aI977
aI978
aI980
aI981
aI983
aI985
aI1058
aI1059
aI1060
aI1061
aI1090
aI1091
aI1101
aI1119
aI1120
aI1121
aI1166
aI1167
aI1213
aI1214
aI1219
aI1220
aI1225
aI1265
aI1266
aI1272
aI1279
aI1284
aI1286
asI384
(lp377
I284
aI293
aI320
aI323
aI421
aI431
aI432
aI434
aI435
aI439
aI440
aI599
aI600
aI602
aI644
aI672
aI678
aI680
aI782
aI785
aI872
aI873
aI874
aI879
aI983
aI985
aI1035
aI1036
aI1038
aI1039
aI1116
aI1118
aI1161
aI1163
aI1219
aI1220
aI1225
aI1265
aI1266
aI1272
aI1286
asI385
(lp378
I423
aI431
aI432
aI434
aI437
aI785
aI799
aI807
aI836
aI837
aI839
aI863
aI865
aI866
aI867
aI875
aI877
aI878
aI880
aI1024
aI1025
aI1026
aI1027
aI1028
aI1029
aI1225
aI1265
asI386
(lp379
I320
aI323
aI341
aI983
aI985
aI986
aI1280
asI387
(lp380
I293
aI320
aI323
aI423
aI431
aI432
aI434
aI437
aI785
aI808
aI816
aI873
aI875
aI876
aI878
aI879
aI880
aI983
aI985
aI1019
aI1020
aI1021
aI1022
aI1060
aI1061
aI1225
aI1265
aI1266
aI1285
asI388
(lp381
I157
aI172
aI291
aI293
aI320
aI323
aI423
aI431
aI432
aI434
aI437
aI439
aI534
aI535
aI536
aI540
aI541
aI542
aI600
aI601
aI679
aI681
aI706
aI707
aI708
aI724
aI785
aI873
aI875
aI876
aI878
aI879
aI880
aI983
aI985
aI988
aI1007
aI1008
aI1009
aI1019
aI1020
aI1021
aI1022
aI1224
aI1225
aI1265
aI1266
aI1284
aI1285
asI389
(lp382
I644
asI390
(lp383
I17
aI18
aI32
aI35
aI36
aI37
aI38
aI42
aI56
aI57
aI59
aI64
aI80
aI91
aI93
aI122
aI124
aI129
aI131
aI147
aI157
aI165
aI172
aI191
aI219
aI220
aI221
aI222
aI223
aI225
aI232
aI233
aI242
aI243
aI246
aI247
aI289
aI291
aI293
aI301
aI302
aI323
aI355
aI356
aI389
aI390
aI391
aI392
aI404
aI406
aI407
aI408
aI415
aI416
aI417
aI442
aI443
aI444
aI447
aI448
aI450
aI453
aI454
aI455
aI456
aI457
aI458
aI459
aI460
aI461
aI462
aI463
aI490
aI496
aI499
aI503
aI504
aI505
aI509
aI510
aI513
aI527
aI532
aI534
aI537
aI541
aI542
aI581
aI645
aI646
aI647
aI648
aI649
aI651
aI653
aI654
aI655
aI656
aI657
aI658
aI684
aI685
aI686
aI700
aI738
aI740
aI741
aI744
aI746
aI768
aI769
aI770
aI771
aI772
aI773
aI774
aI775
aI776
aI777
aI778
aI789
aI790
aI791
aI792
aI794
aI797
aI821
aI825
aI865
aI866
aI869
aI870
aI871
aI872
aI873
aI874
aI879
aI886
aI887
aI888
aI891
aI920
aI921
aI923
aI925
aI926
aI929
aI930
aI991
aI1046
aI1047
aI1049
aI1050
aI1051
aI1052
aI1053
aI1077
aI1078
aI1080
aI1098
aI1099
aI1127
aI1128
aI1155
aI1156
aI1186
aI1199
aI1200
aI1207
aI1208
aI1219
aI1220
aI1233
aI1234
aI1236
aI1237
aI1245
aI1246
aI1272
aI1277
aI1286
asI391
(lp384
I873
aI875
aI876
aI878
aI880
aI1018
aI1019
aI1023
aI1060
aI1061
aI1285
asI392
(lp385
I747
asI393
(lp386
I147
aI154
aI157
aI172
aI284
aI291
aI293
aI320
aI323
aI421
aI431
aI432
aI434
aI439
aI599
aI600
aI601
aI602
aI611
aI615
aI616
aI617
aI619
aI620
aI638
aI641
aI678
aI679
aI680
aI681
aI683
aI684
aI685
aI686
aI719
aI723
aI724
aI725
aI782
aI785
aI872
aI873
aI874
aI879
aI983
aI985
aI1176
aI1177
aI1219
aI1220
aI1225
aI1265
aI1266
aI1284
aI1286
asI394
(lp387
I421
aI429
aI431
aI432
aI434
aI661
aI662
aI664
aI665
aI667
aI668
aI669
aI872
aI873
aI874
aI879
aI880
aI1058
aI1059
aI1060
aI1061
aI1137
aI1142
aI1143
aI1219
aI1220
aI1267
aI1286
asI395
(lp388
I644
asI396
(lp389
I157
aI172
aI291
aI293
aI320
aI323
aI439
aI600
aI601
aI611
aI620
aI679
aI681
aI683
aI684
aI685
aI686
aI724
aI785
aI983
aI985
aI1225
aI1265
aI1266
aI1284
asI397
(lp390
I17
aI18
aI56
aI57
aI59
aI64
aI80
aI138
aI139
aI141
aI157
aI172
aI196
aI198
aI200
aI230
aI242
aI248
aI285
aI286
aI288
aI291
aI293
aI323
aI355
aI356
aI490
aI496
aI497
aI498
aI499
aI502
aI503
aI505
aI534
aI537
aI541
aI542
aI545
aI700
aI738
aI741
aI746
aI824
aI825
aI872
aI873
aI874
aI879
aI886
aI887
aI888
aI891
aI914
aI915
aI929
aI930
aI988
aI990
aI1046
aI1047
aI1127
aI1128
aI1190
aI1191
aI1199
aI1200
aI1219
aI1220
aI1245
aI1246
aI1272
aI1275
aI1286
asI398
(lp391
I644
asI399
(lp392
I320
aI323
aI342
aI343
aI982
aI984
aI1280
asI401
(lp393
I74
aI75
aI328
aI701
asI402
(lp394
I291
aI323
aI335
aI600
aI601
aI679
aI681
aI724
aI983
aI985
aI1269
aI1273
asI403
(lp395
I1044
aI1045
aI1046
aI1048
asI404
(lp396
I157
aI172
aI291
aI293
aI320
aI323
aI431
aI432
aI434
aI439
aI440
aI600
aI601
aI611
aI615
aI617
aI619
aI620
aI638
aI641
aI644
aI679
aI681
aI683
aI684
aI685
aI686
aI724
aI779
aI785
aI787
aI872
aI873
aI874
aI879
aI983
aI985
aI1219
aI1220
aI1225
aI1265
aI1266
aI1272
aI1284
aI1286
asI405
(lp397
I293
aI320
aI323
aI428
aI429
aI431
aI432
aI434
aI438
aI785
aI836
aI837
aI838
aI839
aI840
aI841
aI842
aI843
aI844
aI845
aI846
aI847
aI848
aI863
aI864
aI865
aI866
aI867
aI869
aI870
aI872
aI873
aI874
aI878
aI879
aI983
aI985
aI1024
aI1025
aI1026
aI1027
aI1028
aI1029
aI1104
aI1106
aI1219
aI1220
aI1225
aI1265
aI1266
aI1281
aI1286
asI406
(lp398
I17
aI18
aI26
aI27
aI30
aI31
aI56
aI57
aI59
aI64
aI80
aI91
aI93
aI122
aI124
aI129
aI131
aI138
aI139
aI141
aI157
aI172
aI196
aI198
aI219
aI232
aI233
aI242
aI247
aI248
aI289
aI291
aI293
aI301
aI302
aI323
aI355
aI356
aI389
aI390
aI391
aI392
aI405
aI406
aI407
aI408
aI415
aI416
aI442
aI443
aI444
aI447
aI448
aI450
aI453
aI454
aI455
aI456
aI457
aI458
aI459
aI460
aI461
aI462
aI463
aI490
aI496
aI499
aI503
aI504
aI505
aI509
aI510
aI513
aI527
aI528
aI532
aI534
aI537
aI541
aI542
aI545
aI550
aI645
aI646
aI647
aI648
aI649
aI653
aI654
aI656
aI700
aI738
aI740
aI741
aI744
aI746
aI768
aI769
aI789
aI790
aI791
aI792
aI794
aI796
aI797
aI818
aI824
aI825
aI865
aI866
aI869
aI870
aI871
aI872
aI873
aI874
aI878
aI879
aI886
aI887
aI888
aI891
aI920
aI921
aI923
aI925
aI926
aI929
aI930
aI991
aI993
aI994
aI1046
aI1047
aI1049
aI1050
aI1051
aI1052
aI1053
aI1078
aI1097
aI1099
aI1100
aI1127
aI1128
aI1155
aI1156
aI1157
aI1186
aI1190
aI1191
aI1199
aI1200
aI1207
aI1208
aI1219
aI1220
aI1229
aI1230
aI1233
aI1234
aI1245
aI1246
aI1272
aI1277
aI1286
asI407
(lp399
I157
aI172
aI291
aI293
aI320
aI323
aI418
aI423
aI431
aI432
aI434
aI437
aI600
aI601
aI679
aI681
aI724
aI785
aI873
aI875
aI876
aI878
aI879
aI880
aI983
aI985
aI1007
aI1008
aI1009
aI1019
aI1020
aI1021
aI1022
aI1170
aI1171
aI1225
aI1265
aI1266
aI1284
aI1285
asI408
(lp400
I562
aI563
aI564
aI565
aI568
asI409
(lp401
I64
aI65
aI66
aI105
aI106
aI291
aI323
aI700
aI746
aI825
aI890
aI1168
aI1200
aI1213
aI1214
aI1272
asI410
(lp402
I332
aI606
aI607
asI411
(lp403
I644
asI412
(lp404
I157
aI172
aI291
aI293
aI320
aI323
aI421
aI431
aI432
aI434
aI435
aI600
aI601
aI679
aI681
aI724
aI782
aI785
aI872
aI873
aI874
aI879
aI983
aI985
aI1219
aI1220
aI1225
aI1251
aI1252
aI1265
aI1266
aI1284
aI1286
asI413
(lp405
I242
aI504
aI505
aI729
aI730
aI731
aI732
aI733
aI734
aI735
aI736
aI737
asI414
(lp406
I644
aI1090
aI1091
aI1092
asI415
(lp407
I64
aI109
aI115
aI291
aI293
aI323
aI700
aI746
aI825
aI1200
asI416
(lp408
I157
aI172
aI291
aI293
aI320
aI323
aI431
aI432
aI434
aI437
aI600
aI601
aI630
aI631
aI632
aI633
aI634
aI636
aI637
aI679
aI681
aI724
aI758
aI767
aI785
aI983
aI985
aI1067
aI1090
aI1213
aI1214
aI1225
aI1265
aI1266
aI1284
asI417
(lp409
I154
aI157
aI172
aI195
aI196
aI198
aI284
aI291
aI293
aI320
aI323
aI421
aI431
aI432
aI434
aI435
aI439
aI534
aI535
aI536
aI537
aI539
aI540
aI541
aI542
aI545
aI599
aI600
aI601
aI602
aI678
aI679
aI680
aI681
aI705
aI706
aI707
aI708
aI714
aI722
aI723
aI724
aI725
aI782
aI785
aI872
aI873
aI874
aI879
aI983
aI985
aI1122
aI1123
aI1124
aI1219
aI1220
aI1225
aI1265
aI1266
aI1284
aI1286
asI418
(lp410
I17
aI18
aI56
aI57
aI59
aI64
aI67
aI68
aI71
aI80
aI91
aI93
aI138
aI139
aI141
aI157
aI158
aI172
aI173
aI195
aI196
aI197
aI198
aI201
aI202
aI219
aI232
aI233
aI234
aI236
aI242
aI247
aI248
aI279
aI289
aI291
aI293
aI294
aI301
aI302
aI313
aI314
aI323
aI355
aI356
aI359
aI366
aI490
aI496
aI499
aI503
aI505
aI509
aI510
aI527
aI532
aI534
aI537
aI541
aI542
aI543
aI545
aI547
aI551
aI552
aI576
aI700
aI738
aI741
aI744
aI746
aI789
aI790
aI791
aI792
aI794
aI797
aI822
aI824
aI825
aI855
aI856
aI857
aI858
aI859
aI860
aI861
aI862
aI865
aI866
aI869
aI870
aI871
aI872
aI873
aI874
aI879
aI886
aI887
aI888
aI891
aI929
aI930
aI988
aI989
aI990
aI1046
aI1047
aI1058
aI1059
aI1060
aI1061
aI1122
aI1124
aI1127
aI1128
aI1148
aI1149
aI1164
aI1165
aI1186
aI1190
aI1191
aI1199
aI1200
aI1219
aI1220
aI1233
aI1234
aI1245
aI1246
aI1272
aI1275
aI1286
asI419
(lp411
I293
aI320
aI321
aI322
aI323
aI325
aI329
aI330
aI339
aI355
aI376
aI421
aI428
aI429
aI431
aI432
aI434
aI514
aI515
aI516
aI517
aI518
aI520
aI521
aI522
aI523
aI524
aI525
aI526
aI527
aI528
aI529
aI530
aI531
aI594
aI597
aI630
aI631
aI632
aI633
aI634
aI637
aI782
aI785
aI799
aI800
aI801
aI802
aI803
aI807
aI836
aI837
aI839
aI863
aI865
aI866
aI867
aI869
aI870
aI871
aI872
aI873
aI874
aI879
aI880
aI898
aI899
aI901
aI905
aI983
aI985
aI1024
aI1025
aI1026
aI1027
aI1028
aI1029
aI1058
aI1059
aI1060
aI1061
aI1090
aI1091
aI1094
aI1166
aI1185
aI1186
aI1187
aI1219
aI1220
aI1225
aI1265
aI1266
aI1272
aI1286
asI420
(lp412
I17
aI18
aI56
aI57
aI59
aI80
aI122
aI124
aI293
aI323
aI362
aI363
aI365
aI394
aI396
aI398
aI399
aI400
aI442
aI443
aI444
aI498
aI499
aI513
aI700
aI738
aI740
aI741
aI872
aI873
aI874
aI879
aI886
aI887
aI888
aI891
aI893
aI929
aI930
aI1046
aI1047
aI1101
aI1127
aI1128
aI1199
aI1200
aI1207
aI1208
aI1213
aI1219
aI1220
aI1245
aI1246
aI1286
asI421
(lp413
I326
aI336
asI422
(lp414
I442
aI445
asI423
(lp415
I1281
asI424
(lp416
I556
aI560
aI566
asI425
(lp417
I64
aI65
aI66
aI291
aI323
aI700
aI746
aI825
aI890
asI426
(lp418
I17
aI18
aI32
aI35
aI36
aI37
aI38
aI42
aI64
aI80
aI138
aI139
aI141
aI147
aI157
aI172
aI196
aI198
aI200
aI221
aI222
aI223
aI225
aI242
aI243
aI248
aI279
aI291
aI293
aI323
aI490
aI505
aI534
aI537
aI541
aI542
aI545
aI684
aI685
aI686
aI700
aI741
aI746
aI821
aI824
aI825
aI872
aI873
aI874
aI879
aI886
aI887
aI888
aI929
aI930
aI988
aI990
aI1046
aI1047
aI1190
aI1191
aI1199
aI1200
aI1219
aI1220
aI1236
aI1237
aI1245
aI1246
aI1286
asI427
(lp419
I322
aI353
aI354
aI355
aI368
aI369
aI376
aI421
aI431
aI432
aI434
aI594
aI630
aI631
aI632
aI633
aI634
aI637
aI782
aI785
aI872
aI873
aI874
aI879
aI880
aI898
aI899
aI901
aI905
aI1059
aI1060
aI1061
aI1090
aI1091
aI1187
aI1213
aI1214
aI1219
aI1220
aI1225
aI1265
aI1272
aI1286
asI428
(lp420
I56
aI64
aI91
aI92
aI291
aI293
aI323
aI700
aI746
aI825
aI1200
asI429
(lp421
I644
asI430
(lp422
I17
aI18
aI56
aI57
aI59
aI64
aI80
aI91
aI93
aI138
aI139
aI141
aI157
aI172
aI196
aI198
aI200
aI219
aI232
aI233
aI242
aI247
aI248
aI289
aI291
aI293
aI295
aI296
aI302
aI303
aI323
aI355
aI356
aI490
aI499
aI503
aI505
aI509
aI510
aI514
aI518
aI519
aI534
aI537
aI541
aI542
aI545
aI700
aI738
aI741
aI744
aI746
aI789
aI790
aI791
aI792
aI794
aI795
aI797
aI824
aI825
aI865
aI866
aI869
aI870
aI871
aI872
aI873
aI874
aI879
aI886
aI887
aI888
aI891
aI929
aI930
aI988
aI990
aI1046
aI1047
aI1127
aI1128
aI1186
aI1190
aI1191
aI1199
aI1200
aI1219
aI1220
aI1233
aI1234
aI1245
aI1246
aI1272
aI1275
aI1286
asI431
(lp423
I17
aI18
aI64
aI67
aI68
aI71
aI80
aI138
aI139
aI141
aI157
aI158
aI159
aI160
aI165
aI172
aI196
aI198
aI200
aI234
aI236
aI237
aI238
aI242
aI246
aI247
aI248
aI279
aI291
aI293
aI323
aI354
aI355
aI356
aI372
aI373
aI375
aI490
aI505
aI534
aI537
aI541
aI542
aI545
aI576
aI577
aI581
aI700
aI741
aI746
aI822
aI824
aI825
aI872
aI873
aI874
aI879
aI886
aI887
aI888
aI891
aI929
aI930
aI988
aI990
aI1046
aI1047
aI1058
aI1059
aI1060
aI1061
aI1164
aI1165
aI1190
aI1191
aI1199
aI1200
aI1219
aI1220
aI1245
aI1246
aI1272
aI1286
asI432
(lp424
I324
aI345
aI362
aI363
aI365
aI421
aI431
aI432
aI434
aI435
aI439
aI440
aI594
aI596
aI631
aI632
aI633
aI635
aI637
aI644
aI782
aI785
aI872
aI873
aI874
aI879
aI880
aI898
aI899
aI905
aI1058
aI1059
aI1060
aI1061
aI1090
aI1091
aI1101
aI1150
aI1151
aI1152
aI1166
aI1167
aI1168
aI1213
aI1214
aI1219
aI1220
aI1225
aI1265
aI1272
aI1286
asI433
(lp425
I421
aI428
aI429
aI431
aI432
aI434
aI661
aI663
aI665
aI872
aI873
aI874
aI879
aI880
aI1058
aI1059
aI1060
aI1061
aI1219
aI1220
aI1267
aI1286
asI434
(lp426
I355
aI374
aI421
aI428
aI429
aI431
aI432
aI434
aI464
aI465
aI468
aI473
aI474
aI475
aI478
aI479
aI594
aI598
aI606
aI607
aI609
aI624
aI626
aI630
aI631
aI632
aI633
aI634
aI636
aI637
aI660
aI661
aI662
aI663
aI664
aI665
aI666
aI667
aI668
aI669
aI782
aI785
aI827
aI828
aI829
aI830
aI831
aI832
aI833
aI872
aI873
aI874
aI879
aI880
aI898
aI899
aI904
aI905
aI940
aI941
aI943
aI966
aI967
aI968
aI972
aI1040
aI1041
aI1042
aI1043
aI1058
aI1059
aI1060
aI1061
aI1090
aI1091
aI1092
aI1125
aI1126
aI1137
aI1142
aI1143
aI1213
aI1214
aI1219
aI1220
aI1225
aI1231
aI1265
aI1267
aI1286
asI435
(lp427
I952
aI953
aI954
aI955
aI956
aI957
aI958
asI436
(lp428
I7
aI8
aI32
aI33
aI36
aI39
aI64
aI291
aI293
aI323
aI700
aI746
aI825
aI1199
aI1200
asI437
(lp429
I17
aI18
aI36
aI37
aI38
aI42
aI64
aI80
aI138
aI139
aI141
aI148
aI157
aI172
aI196
aI198
aI200
aI221
aI224
aI242
aI243
aI248
aI279
aI291
aI293
aI323
aI490
aI505
aI534
aI537
aI541
aI542
aI545
aI685
aI690
aI700
aI741
aI746
aI819
aI824
aI825
aI872
aI873
aI874
aI878
aI879
aI886
aI887
aI888
aI929
aI930
aI946
aI988
aI990
aI1046
aI1047
aI1190
aI1191
aI1197
aI1198
aI1199
aI1200
aI1217
aI1218
aI1219
aI1220
aI1245
aI1246
aI1286
asI438
(lp430
I421
aI431
aI432
aI434
aI439
aI440
aI644
aI872
aI873
aI874
aI879
aI880
aI906
aI907
aI908
aI909
aI910
aI911
aI912
aI952
aI953
aI957
aI1058
aI1059
aI1060
aI1061
aI1219
aI1220
aI1258
aI1259
aI1272
aI1276
aI1278
aI1286
asI439
(lp431
I157
aI172
aI291
aI293
aI320
aI323
aI421
aI431
aI432
aI434
aI439
aI600
aI601
aI611
aI614
aI616
aI617
aI619
aI620
aI638
aI641
aI679
aI681
aI683
aI684
aI685
aI686
aI724
aI782
aI785
aI872
aI873
aI874
aI879
aI983
aI985
aI1017
aI1172
aI1173
aI1219
aI1220
aI1225
aI1265
aI1266
aI1284
aI1286
asI440
(lp432
I49
aI50
aI55
aI80
aI81
aI121
aI125
aI126
aI129
aI130
aI136
aI137
aI323
aI333
aI334
aI342
aI344
aI345
aI347
aI349
aI351
aI353
aI354
aI355
aI376
aI468
aI469
aI471
aI474
aI475
aI478
aI479
aI486
aI695
aI699
aI827
aI828
aI829
aI830
aI831
aI832
aI833
aI872
aI873
aI874
aI879
aI880
aI886
aI887
aI888
aI891
aI929
aI930
aI973
aI974
aI982
aI983
aI987
aI995
aI996
aI998
aI1046
aI1047
aI1058
aI1059
aI1060
aI1061
aI1092
aI1126
aI1199
aI1200
aI1219
aI1220
aI1231
aI1241
aI1242
aI1249
aI1250
aI1286
asI441
(lp433
I49
aI50
aI55
aI60
aI62
aI80
aI81
aI121
aI125
aI126
aI129
aI130
aI136
aI137
aI323
aI333
aI334
aI342
aI344
aI345
aI347
aI349
aI351
aI353
aI354
aI355
aI376
aI468
aI469
aI471
aI474
aI475
aI478
aI479
aI486
aI487
aI695
aI699
aI704
aI827
aI828
aI829
aI830
aI831
aI832
aI833
aI872
aI873
aI874
aI879
aI880
aI886
aI887
aI888
aI891
aI929
aI930
aI973
aI974
aI995
aI996
aI998
aI1046
aI1047
aI1058
aI1059
aI1060
aI1061
aI1092
aI1126
aI1199
aI1200
aI1219
aI1220
aI1231
aI1241
aI1242
aI1249
aI1250
aI1286
asI442
(lp434
I9
aI10
aI11
aI12
aI17
aI18
aI56
aI57
aI59
aI64
aI67
aI68
aI70
aI71
aI80
aI138
aI139
aI141
aI157
aI172
aI196
aI198
aI200
aI231
aI232
aI242
aI247
aI248
aI291
aI293
aI323
aI355
aI357
aI358
aI359
aI361
aI376
aI490
aI498
aI505
aI534
aI537
aI541
aI542
aI545
aI700
aI738
aI741
aI746
aI822
aI824
aI825
aI872
aI873
aI874
aI875
aI876
aI878
aI879
aI880
aI886
aI887
aI888
aI891
aI929
aI930
aI932
aI988
aI990
aI1007
aI1008
aI1009
aI1019
aI1020
aI1021
aI1022
aI1046
aI1047
aI1058
aI1059
aI1060
aI1061
aI1127
aI1128
aI1164
aI1165
aI1190
aI1191
aI1199
aI1200
aI1219
aI1220
aI1245
aI1246
aI1285
aI1286
asI443
(lp435
I284
aI293
aI309
aI320
aI323
aI421
aI431
aI432
aI434
aI435
aI439
aI440
aI599
aI600
aI602
aI644
aI673
aI678
aI680
aI782
aI785
aI872
aI873
aI874
aI879
aI983
aI985
aI1037
aI1038
aI1039
aI1063
aI1064
aI1065
aI1219
aI1220
aI1225
aI1265
aI1266
aI1286
asI444
(lp436
I630
aI632
asI445
(lp437
I686
aI691
aI692
aI1092
aI1182
asI446
(lp438
I145
aI154
aI157
aI172
aI284
aI291
aI293
aI320
aI323
aI380
aI381
aI382
aI383
aI384
aI418
aI419
aI421
aI431
aI432
aI434
aI435
aI439
aI440
aI579
aI580
aI582
aI599
aI600
aI601
aI602
aI644
aI678
aI679
aI680
aI681
aI721
aI723
aI724
aI725
aI782
aI785
aI872
aI873
aI874
aI879
aI983
aI985
aI1101
aI1146
aI1169
aI1170
aI1171
aI1213
aI1214
aI1219
aI1220
aI1225
aI1265
aI1266
aI1272
aI1284
aI1286
asI447
(lp439
I17
aI18
aI56
aI57
aI59
aI80
aI122
aI124
aI293
aI300
aI309
aI323
aI335
aI388
aI442
aI443
aI444
aI498
aI499
aI501
aI506
aI513
aI700
aI738
aI740
aI741
aI872
aI873
aI874
aI879
aI886
aI887
aI888
aI891
aI918
aI929
aI930
aI983
aI985
aI1046
aI1047
aI1066
aI1127
aI1128
aI1199
aI1200
aI1207
aI1208
aI1219
aI1220
aI1245
aI1246
aI1274
aI1286
asI448
(lp440
I291
aI320
aI323
aI600
aI601
aI679
aI681
aI724
aI983
aI985
aI1266
aI1284
asI449
(lp441
I421
aI429
aI431
aI432
aI434
aI660
aI661
aI662
aI663
aI665
aI667
aI669
aI872
aI873
aI874
aI879
aI880
aI1058
aI1059
aI1060
aI1061
aI1143
aI1219
aI1220
aI1267
aI1286
asI450
(lp442
I428
aI429
aI431
aI432
aI434
aI438
aI785
aI798
aI799
aI800
aI802
aI807
aI836
aI837
aI838
aI839
aI840
aI841
aI842
aI843
aI844
aI845
aI863
aI864
aI865
aI866
aI867
aI868
aI869
aI870
aI871
aI872
aI873
aI874
aI878
aI879
aI1024
aI1025
aI1026
aI1027
aI1028
aI1029
aI1219
aI1220
aI1225
aI1265
aI1281
aI1286
asI451
(lp443
I1213
aI1214
asI452
(lp444
I146
aI148
aI154
aI157
aI172
aI284
aI291
aI293
aI320
aI323
aI421
aI431
aI432
aI434
aI439
aI599
aI600
aI601
aI602
aI611
aI615
aI616
aI617
aI619
aI620
aI638
aI641
aI678
aI679
aI680
aI681
aI683
aI684
aI685
aI686
aI717
aI723
aI724
aI725
aI782
aI785
aI872
aI873
aI874
aI879
aI983
aI985
aI1219
aI1220
aI1221
aI1222
aI1225
aI1265
aI1266
aI1284
aI1286
asI453
(lp445
I573
aI1006
aI1007
aI1008
aI1009
aI1019
aI1020
aI1021
aI1022
aI1067
asI454
(lp446
I284
aI291
aI320
aI324
aI363
aI594
aI599
aI600
aI601
aI631
aI632
aI633
aI634
aI635
aI636
aI637
aI678
aI679
aI681
aI724
aI749
aI751
aI756
aI785
aI872
aI873
aI874
aI879
aI880
aI898
aI899
aI900
aI905
aI940
aI941
aI943
aI983
aI985
aI1058
aI1059
aI1060
aI1061
aI1090
aI1091
aI1101
aI1120
aI1166
aI1167
aI1213
aI1214
aI1219
aI1220
aI1225
aI1265
aI1266
aI1272
aI1279
aI1284
aI1286
asI455
(lp447
I1025
aI1026
aI1027
aI1028
asI456
(lp448
I155
aI291
aI320
aI323
aI600
aI601
aI679
aI681
aI724
aI983
aI985
aI1266
aI1284
asI457
(lp449
I316
aI381
aI382
aI385
aI386
aI387
aI418
aI419
aI421
aI431
aI432
aI434
aI435
aI439
aI440
aI595
aI644
aI782
aI785
aI872
aI873
aI874
aI879
aI880
aI1101
aI1113
aI1114
aI1115
aI1168
aI1213
aI1214
aI1219
aI1220
aI1225
aI1265
aI1272
aI1286
asI458
(lp450
I644
aI1090
aI1091
aI1092
asI459
(lp451
I293
aI320
aI323
aI428
aI429
aI431
aI432
aI434
aI785
aI836
aI837
aI839
aI847
aI848
aI863
aI865
aI866
aI867
aI872
aI873
aI874
aI878
aI879
aI983
aI985
aI1024
aI1025
aI1026
aI1027
aI1028
aI1029
aI1072
aI1074
aI1219
aI1220
aI1225
aI1265
aI1266
aI1286
asI460
(lp452
I155
aI181
aI184
aI191
aI291
aI293
aI320
aI323
aI326
aI336
aI421
aI428
aI429
aI431
aI432
aI434
aI600
aI601
aI679
aI681
aI724
aI782
aI784
aI785
aI836
aI837
aI839
aI847
aI848
aI849
aI850
aI851
aI852
aI854
aI863
aI865
aI866
aI867
aI872
aI873
aI874
aI878
aI879
aI983
aI985
aI1024
aI1025
aI1026
aI1027
aI1028
aI1029
aI1072
aI1073
aI1074
aI1075
aI1076
aI1092
aI1219
aI1220
aI1225
aI1265
aI1266
aI1272
aI1284
aI1286
asI461
(lp453
I17
aI18
aI56
aI57
aI59
aI64
aI72
aI73
aI80
aI138
aI139
aI141
aI157
aI172
aI173
aI174
aI176
aI177
aI196
aI242
aI248
aI279
aI284
aI291
aI293
aI297
aI300
aI320
aI323
aI331
aI349
aI350
aI351
aI366
aI490
aI499
aI505
aI506
aI534
aI537
aI541
aI542
aI545
aI700
aI702
aI738
aI741
aI746
aI824
aI825
aI872
aI873
aI874
aI879
aI886
aI887
aI888
aI891
aI918
aI929
aI930
aI983
aI985
aI988
aI990
aI1046
aI1047
aI1066
aI1127
aI1128
aI1190
aI1191
aI1199
aI1200
aI1219
aI1220
aI1245
aI1246
aI1275
aI1280
aI1281
aI1286
asI462
(lp454
I49
aI50
aI126
aI355
aI376
aI377
aI378
aI695
aI886
aI887
aI891
aI927
aI928
aI931
aI1046
aI1231
aI1249
aI1250
asI463
(lp455
I49
aI50
aI55
aI80
aI81
aI121
aI125
aI126
aI129
aI130
aI136
aI137
aI251
aI253
aI468
aI469
aI471
aI474
aI475
aI478
aI479
aI486
aI695
aI699
aI827
aI828
aI829
aI830
aI831
aI832
aI833
aI872
aI873
aI874
aI879
aI880
aI886
aI887
aI888
aI891
aI929
aI930
aI995
aI996
aI998
aI1046
aI1047
aI1058
aI1059
aI1060
aI1061
aI1092
aI1126
aI1199
aI1200
aI1219
aI1220
aI1231
aI1241
aI1242
aI1249
aI1250
aI1286
asI464
(lp456
I1077
aI1078
asI465
(lp457
I573
aI889
aI940
aI941
aI943
aI1279
asI466
(lp458
I644
asI467
(lp459
I145
aI154
aI157
aI172
aI284
aI291
aI293
aI320
aI323
aI381
aI382
aI383
aI384
aI418
aI419
aI421
aI431
aI432
aI434
aI435
aI439
aI440
aI579
aI580
aI582
aI599
aI600
aI601
aI602
aI644
aI678
aI679
aI680
aI681
aI721
aI723
aI724
aI725
aI782
aI785
aI872
aI873
aI874
aI879
aI983
aI985
aI1101
aI1146
aI1169
aI1170
aI1171
aI1213
aI1214
aI1219
aI1220
aI1225
aI1265
aI1266
aI1272
aI1284
aI1286
asI470
(lp460
I158
aI160
aI165
aI167
aI181
aI184
aI191
aI192
aI193
aI291
aI293
aI320
aI323
aI421
aI428
aI429
aI431
aI432
aI434
aI576
aI577
aI581
aI587
aI588
aI600
aI601
aI679
aI681
aI724
aI782
aI785
aI836
aI837
aI839
aI847
aI848
aI849
aI850
aI851
aI852
aI853
aI854
aI863
aI865
aI866
aI867
aI872
aI873
aI874
aI878
aI879
aI983
aI985
aI1024
aI1025
aI1026
aI1027
aI1028
aI1029
aI1089
aI1092
aI1104
aI1105
aI1106
aI1107
aI1112
aI1219
aI1220
aI1225
aI1265
aI1266
aI1272
aI1284
aI1286
asI471
(lp461
I644
asI472
(lp462
I323
aI982
asI473
(lp463
I355
aI374
aI421
aI428
aI429
aI431
aI432
aI434
aI464
aI465
aI468
aI473
aI474
aI475
aI594
aI606
aI607
aI609
aI624
aI625
aI626
aI630
aI631
aI632
aI633
aI634
aI636
aI637
aI660
aI661
aI662
aI663
aI665
aI667
aI782
aI785
aI872
aI873
aI874
aI879
aI880
aI898
aI899
aI904
aI905
aI940
aI941
aI942
aI944
aI966
aI967
aI968
aI972
aI1058
aI1059
aI1060
aI1061
aI1090
aI1091
aI1092
aI1125
aI1126
aI1213
aI1214
aI1219
aI1220
aI1225
aI1231
aI1265
aI1267
aI1286
asI474
(lp464
I989
asI475
(lp465
I556
aI560
aI567
aI568
asI476
(lp466
I291
aI320
aI323
aI423
aI431
aI432
aI434
aI437
aI439
aI534
aI535
aI536
aI540
aI541
aI542
aI600
aI601
aI679
aI681
aI706
aI707
aI708
aI724
aI785
aI875
aI877
aI878
aI880
aI983
aI985
aI988
aI1224
aI1225
aI1265
aI1266
aI1284
asI477
(lp467
I121
aI125
aI126
aI129
aI130
aI137
aI469
aI471
aI478
aI479
asI478
(lp468
I322
aI353
aI354
aI355
aI376
aI377
aI378
aI421
aI431
aI432
aI434
aI594
aI630
aI631
aI632
aI633
aI634
aI637
aI782
aI785
aI872
aI873
aI874
aI879
aI880
aI898
aI899
aI901
aI905
aI1058
aI1059
aI1060
aI1061
aI1090
aI1091
aI1187
aI1213
aI1214
aI1219
aI1220
aI1225
aI1265
aI1272
aI1286
asI479
(lp469
I418
aI421
aI431
aI432
aI434
aI435
aI439
aI440
aI644
aI779
aI782
aI785
aI787
aI872
aI873
aI874
aI879
aI880
aI1114
aI1115
aI1219
aI1220
aI1225
aI1265
aI1272
aI1286
asI480
(lp470
I320
aI323
aI423
aI431
aI432
aI434
aI437
aI785
aI836
aI837
aI839
aI847
aI848
aI863
aI865
aI866
aI867
aI875
aI877
aI878
aI880
aI983
aI985
aI1225
aI1265
aI1266
asI481
(lp471
I644
asI482
(lp472
I975
aI976
aI977
aI978
aI979
aI980
aI981
asI483
(lp473
I640
aI643
aI1062
aI1066
asI485
(lp474
I17
aI18
aI64
aI74
aI75
aI80
aI157
aI172
aI173
aI175
aI279
aI284
aI291
aI293
aI297
aI320
aI323
aI332
aI352
aI366
aI700
aI703
aI741
aI746
aI825
aI872
aI873
aI874
aI879
aI886
aI887
aI888
aI929
aI930
aI983
aI985
aI1046
aI1047
aI1199
aI1200
aI1219
aI1220
aI1245
aI1246
aI1275
aI1280
aI1281
aI1286
asI486
(lp475
I684
aI687
aI688
aI1272
asI487
(lp476
I644
asI488
(lp477
I827
aI829
aI831
asI489
(lp478
I17
aI18
aI49
aI50
aI55
aI60
aI61
aI63
aI64
aI67
aI68
aI71
aI76
aI77
aI78
aI80
aI81
aI82
aI84
aI109
aI110
aI113
aI114
aI117
aI119
aI121
aI125
aI126
aI129
aI130
aI136
aI137
aI138
aI139
aI141
aI157
aI161
aI162
aI172
aI188
aI189
aI190
aI196
aI198
aI200
aI234
aI240
aI242
aI244
aI248
aI279
aI291
aI293
aI320
aI323
aI355
aI376
aI467
aI468
aI469
aI471
aI474
aI475
aI478
aI479
aI486
aI487
aI490
aI505
aI534
aI537
aI541
aI542
aI545
aI575
aI579
aI580
aI582
aI584
aI695
aI699
aI700
aI736
aI741
aI746
aI822
aI823
aI824
aI825
aI827
aI828
aI829
aI830
aI831
aI832
aI833
aI872
aI873
aI874
aI879
aI880
aI886
aI887
aI888
aI891
aI892
aI893
aI929
aI930
aI963
aI965
aI983
aI985
aI988
aI990
aI995
aI996
aI998
aI1046
aI1047
aI1058
aI1059
aI1060
aI1061
aI1092
aI1101
aI1126
aI1164
aI1165
aI1183
aI1184
aI1190
aI1191
aI1199
aI1200
aI1219
aI1220
aI1231
aI1241
aI1242
aI1245
aI1246
aI1249
aI1250
aI1275
aI1280
aI1286
asI490
(lp479
I154
aI157
aI172
aI284
aI291
aI293
aI320
aI323
aI421
aI431
aI432
aI434
aI435
aI599
aI600
aI601
aI602
aI678
aI679
aI680
aI681
aI716
aI723
aI724
aI725
aI782
aI785
aI872
aI873
aI874
aI879
aI983
aI985
aI1219
aI1220
aI1225
aI1251
aI1252
aI1265
aI1266
aI1284
aI1286
asI491
(lp480
I1007
aI1008
aI1009
aI1019
aI1020
aI1021
aI1022
aI1179
aI1180
aI1272
asI492
(lp481
I157
aI172
aI291
aI293
aI320
aI323
aI418
aI419
aI421
aI431
aI432
aI434
aI435
aI439
aI440
aI600
aI601
aI644
aI679
aI681
aI724
aI782
aI785
aI872
aI873
aI874
aI879
aI983
aI985
aI1146
aI1169
aI1170
aI1171
aI1213
aI1214
aI1219
aI1220
aI1225
aI1265
aI1266
aI1272
aI1284
aI1286
asI493
(lp482
I64
aI72
aI73
aI132
aI291
aI323
aI700
aI746
aI825
asI494
(lp483
I293
aI320
aI323
aI423
aI431
aI432
aI434
aI437
aI785
aI873
aI875
aI876
aI878
aI879
aI880
aI983
aI985
aI1019
aI1020
aI1021
aI1022
aI1225
aI1260
aI1261
aI1265
aI1266
aI1285
asI495
(lp484
I291
aI320
aI323
aI600
aI601
aI679
aI681
aI724
aI983
aI985
aI1231
aI1266
asI496
(lp485
I17
aI18
aI36
aI37
aI38
aI42
aI64
aI80
aI138
aI139
aI141
aI148
aI157
aI172
aI195
aI196
aI198
aI221
aI222
aI225
aI242
aI243
aI248
aI279
aI291
aI293
aI323
aI490
aI505
aI534
aI537
aI541
aI542
aI545
aI684
aI685
aI693
aI700
aI741
aI746
aI819
aI824
aI825
aI872
aI873
aI874
aI879
aI886
aI887
aI888
aI929
aI930
aI1001
aI1003
aI1046
aI1047
aI1122
aI1124
aI1190
aI1191
aI1197
aI1198
aI1199
aI1200
aI1219
aI1220
aI1231
aI1245
aI1246
aI1286
asI497
(lp486
I157
aI172
aI291
aI293
aI320
aI323
aI423
aI431
aI432
aI434
aI437
aI439
aI534
aI535
aI536
aI540
aI541
aI542
aI600
aI601
aI679
aI681
aI706
aI707
aI708
aI724
aI785
aI873
aI875
aI876
aI878
aI879
aI880
aI983
aI985
aI988
aI1007
aI1008
aI1009
aI1019
aI1020
aI1021
aI1022
aI1224
aI1225
aI1265
aI1266
aI1284
aI1285
asI498
(lp487
I157
aI172
aI291
aI293
aI320
aI323
aI421
aI431
aI432
aI434
aI439
aI600
aI601
aI611
aI615
aI616
aI617
aI619
aI620
aI638
aI641
aI679
aI681
aI683
aI684
aI685
aI686
aI724
aI782
aI785
aI872
aI873
aI874
aI879
aI983
aI985
aI1219
aI1220
aI1222
aI1225
aI1265
aI1266
aI1284
aI1286
asI499
(lp488
I1059
aI1061
asI500
(lp489
I17
aI18
aI56
aI64
aI80
aI91
aI93
aI138
aI139
aI141
aI157
aI172
aI196
aI198
aI200
aI232
aI233
aI242
aI247
aI248
aI291
aI293
aI302
aI323
aI490
aI505
aI509
aI510
aI534
aI537
aI541
aI542
aI545
aI700
aI741
aI744
aI746
aI790
aI792
aI794
aI795
aI797
aI824
aI825
aI866
aI869
aI870
aI871
aI872
aI873
aI874
aI879
aI886
aI887
aI888
aI929
aI930
aI988
aI990
aI1046
aI1047
aI1190
aI1191
aI1199
aI1200
aI1219
aI1220
aI1233
aI1234
aI1245
aI1246
aI1275
aI1286
asI501
(lp490
I17
aI18
aI56
aI57
aI59
aI64
aI80
aI88
aI90
aI138
aI139
aI141
aI142
aI144
aI157
aI172
aI196
aI198
aI200
aI205
aI208
aI209
aI211
aI213
aI216
aI217
aI219
aI232
aI233
aI242
aI247
aI248
aI289
aI291
aI293
aI305
aI307
aI323
aI355
aI356
aI490
aI496
aI499
aI503
aI505
aI508
aI527
aI532
aI534
aI537
aI541
aI542
aI545
aI557
aI700
aI738
aI741
aI743
aI745
aI746
aI789
aI790
aI791
aI793
aI794
aI797
aI824
aI825
aI863
aI865
aI868
aI869
aI870
aI871
aI872
aI873
aI874
aI879
aI886
aI887
aI888
aI891
aI929
aI930
aI988
aI990
aI1046
aI1047
aI1127
aI1128
aI1190
aI1191
aI1199
aI1200
aI1211
aI1212
aI1219
aI1220
aI1245
aI1246
aI1263
aI1272
aI1275
aI1286
asI502
(lp491
I0
aI2
aI64
aI80
aI291
aI323
aI700
aI746
aI825
aI881
aI883
aI886
aI887
aI888
aI1044
aI1045
aI1046
aI1048
asI503
(lp492
I17
aI18
aI64
aI67
aI68
aI71
aI77
aI79
aI80
aI109
aI110
aI112
aI113
aI117
aI138
aI139
aI141
aI145
aI157
aI172
aI196
aI198
aI200
aI234
aI235
aI242
aI244
aI245
aI248
aI279
aI291
aI293
aI323
aI362
aI363
aI365
aI381
aI382
aI383
aI384
aI490
aI505
aI534
aI537
aI541
aI542
aI545
aI575
aI579
aI580
aI582
aI700
aI741
aI746
aI822
aI823
aI824
aI825
aI872
aI873
aI874
aI879
aI886
aI887
aI888
aI891
aI892
aI893
aI894
aI895
aI897
aI929
aI930
aI988
aI990
aI1046
aI1047
aI1058
aI1059
aI1060
aI1061
aI1101
aI1146
aI1164
aI1165
aI1183
aI1184
aI1190
aI1191
aI1199
aI1200
aI1213
aI1214
aI1219
aI1220
aI1245
aI1246
aI1272
aI1286
asI504
(lp493
I856
aI857
aI858
aI859
aI860
aI861
aI1054
aI1055
aI1056
aI1057
asI505
(lp494
I3
aI17
aI18
aI80
aI289
aI293
aI320
aI323
aI354
aI355
aI356
aI372
aI373
aI375
aI700
aI738
aI741
aI872
aI873
aI874
aI875
aI876
aI878
aI879
aI880
aI884
aI885
aI886
aI887
aI888
aI929
aI930
aI932
aI983
aI985
aI1007
aI1008
aI1009
aI1019
aI1020
aI1021
aI1022
aI1046
aI1047
aI1048
aI1128
aI1199
aI1200
aI1219
aI1220
aI1245
aI1246
aI1280
aI1285
aI1286
asI506
(lp495
I575
aI579
aI580
aI582
aI583
aI584
aI585
aI586
aI1101
aI1213
aI1214
aI1272
asI507
(lp496
I291
aI320
aI323
aI439
aI600
aI601
aI679
aI681
aI706
aI724
aI785
aI983
aI985
aI1225
aI1265
aI1266
aI1284
asI508
(lp497
I644
aI1092
asI509
(lp498
I573
aI889
aI940
aI941
aI943
aI1279
asI510
(lp499
I293
aI320
aI323
aI421
aI431
aI432
aI434
aI435
aI782
aI785
aI872
aI873
aI874
aI879
aI983
aI985
aI1219
aI1220
aI1225
aI1260
aI1261
aI1265
aI1266
aI1286
asI511
(lp500
I644
asI512
(lp501
I227
aI228
aI229
asI513
(lp502
I310
aI312
aI320
aI323
aI326
aI336
aI421
aI428
aI429
aI431
aI432
aI434
aI782
aI784
aI785
aI799
aI800
aI801
aI802
aI803
aI804
aI805
aI806
aI807
aI836
aI837
aI839
aI863
aI865
aI866
aI867
aI872
aI873
aI874
aI878
aI879
aI983
aI985
aI1024
aI1025
aI1026
aI1027
aI1028
aI1029
aI1219
aI1220
aI1225
aI1265
aI1266
aI1272
aI1286
asI514
(lp503
I906
aI913
aI1276
aI1278
asI515
(lp504
I638
aI641
aI643
aI1062
aI1066
asI516
(lp505
I36
aI39
aI64
aI291
aI293
aI323
aI700
aI746
aI825
aI1200
asI517
(lp506
I17
aI18
aI80
aI86
aI87
aI293
aI320
aI323
aI339
aI493
aI504
aI698
aI700
aI741
aI788
aI790
aI792
aI794
aI795
aI797
aI864
aI866
aI869
aI870
aI871
aI872
aI873
aI874
aI879
aI886
aI887
aI888
aI929
aI930
aI983
aI985
aI1046
aI1047
aI1199
aI1200
aI1215
aI1216
aI1219
aI1220
aI1245
aI1246
aI1280
aI1286
asI518
(lp507
I154
aI157
aI172
aI185
aI186
aI187
aI284
aI291
aI293
aI320
aI323
aI418
aI419
aI421
aI431
aI432
aI434
aI435
aI439
aI440
aI575
aI579
aI580
aI582
aI585
aI599
aI600
aI601
aI602
aI631
aI632
aI633
aI634
aI636
aI637
aI644
aI678
aI679
aI680
aI681
aI720
aI721
aI723
aI724
aI725
aI758
aI759
aI767
aI782
aI785
aI872
aI873
aI874
aI879
aI983
aI985
aI1059
aI1060
aI1061
aI1101
aI1145
aI1146
aI1169
aI1170
aI1171
aI1174
aI1175
aI1213
aI1214
aI1219
aI1220
aI1225
aI1265
aI1266
aI1284
aI1286
asI519
(lp508
I17
aI18
aI36
aI37
aI38
aI42
aI64
aI80
aI138
aI139
aI141
aI148
aI157
aI172
aI196
aI198
aI200
aI221
aI224
aI242
aI243
aI248
aI279
aI291
aI293
aI323
aI490
aI505
aI534
aI537
aI541
aI542
aI545
aI685
aI690
aI700
aI741
aI746
aI819
aI824
aI825
aI872
aI873
aI874
aI878
aI879
aI886
aI887
aI888
aI929
aI930
aI946
aI988
aI990
aI1046
aI1047
aI1190
aI1191
aI1197
aI1198
aI1199
aI1200
aI1219
aI1220
aI1227
aI1228
aI1245
aI1246
aI1286
asI520
(lp509
I293
aI320
aI323
aI418
aI421
aI431
aI432
aI434
aI435
aI439
aI440
aI644
aI779
aI782
aI785
aI787
aI872
aI873
aI874
aI879
aI983
aI985
aI1130
aI1131
aI1219
aI1220
aI1225
aI1265
aI1266
aI1272
aI1286
asI522
(lp510
I64
aI85
aI135
aI291
aI323
aI700
aI746
aI825
asI523
(lp511
I142
aI144
aI151
aI152
aI153
aI157
aI172
aI178
aI278
aI291
aI293
aI320
aI323
aI600
aI601
aI679
aI681
aI724
aI983
aI985
aI1266
aI1284
asI524
(lp512
I49
aI50
aI55
aI80
aI81
aI121
aI125
aI126
aI129
aI130
aI136
aI137
aI323
aI333
aI334
aI342
aI344
aI345
aI347
aI349
aI351
aI353
aI354
aI355
aI376
aI468
aI469
aI471
aI474
aI475
aI478
aI479
aI486
aI695
aI699
aI827
aI828
aI829
aI830
aI831
aI832
aI833
aI872
aI873
aI874
aI879
aI880
aI886
aI887
aI888
aI891
aI929
aI930
aI973
aI974
aI982
aI983
aI986
aI987
aI995
aI996
aI998
aI1046
aI1047
aI1058
aI1059
aI1060
aI1061
aI1092
aI1126
aI1199
aI1200
aI1219
aI1220
aI1231
aI1241
aI1242
aI1249
aI1250
aI1286
asI525
(lp513
I157
aI172
aI291
aI293
aI320
aI323
aI421
aI431
aI432
aI434
aI435
aI439
aI534
aI535
aI536
aI540
aI541
aI542
aI600
aI601
aI679
aI681
aI706
aI707
aI708
aI724
aI782
aI785
aI872
aI873
aI874
aI879
aI983
aI985
aI988
aI1219
aI1220
aI1224
aI1225
aI1265
aI1266
aI1284
aI1286
asI526
(lp514
I157
aI172
aI173
aI175
aI284
aI291
aI293
aI297
aI320
aI323
aI332
aI366
aI600
aI601
aI606
aI607
aI679
aI681
aI724
aI983
aI985
aI1266
aI1281
aI1284
asI527
(lp515
I17
aI18
aI64
aI67
aI68
aI71
aI77
aI79
aI80
aI109
aI110
aI112
aI113
aI117
aI138
aI139
aI141
aI145
aI157
aI172
aI196
aI198
aI200
aI234
aI235
aI242
aI244
aI245
aI248
aI279
aI291
aI293
aI323
aI362
aI363
aI365
aI381
aI382
aI383
aI384
aI490
aI505
aI534
aI537
aI541
aI542
aI545
aI575
aI579
aI580
aI582
aI700
aI741
aI746
aI822
aI823
aI824
aI825
aI872
aI873
aI874
aI879
aI886
aI887
aI888
aI891
aI892
aI893
aI894
aI895
aI897
aI929
aI930
aI988
aI990
aI1046
aI1047
aI1058
aI1059
aI1060
aI1061
aI1101
aI1146
aI1164
aI1165
aI1183
aI1184
aI1190
aI1191
aI1199
aI1200
aI1213
aI1214
aI1219
aI1220
aI1245
aI1246
aI1272
aI1286
asI528
(lp516
I1089
aI1092
aI1181
aI1182
asI530
(lp517
I168
aI192
aI193
aI291
aI320
aI323
aI354
aI367
aI370
aI371
aI373
aI375
aI589
aI590
aI600
aI601
aI679
aI681
aI724
aI983
aI985
aI1092
aI1266
as.