(dp0
I1
(lp1
I320
aI321
asI2
(lp2
I288
aI290
aI291
aI292
aI293
aI294
aI295
aI296
aI301
aI302
aI408
aI445
aI446
aI447
aI448
asI3
(lp3
I341
aI342
aI343
aI344
aI345
aI425
aI426
asI4
(lp4
I24
aI25
aI26
aI27
aI132
aI133
aI136
aI137
aI138
aI140
aI141
aI142
aI144
aI145
aI146
aI147
aI148
aI151
aI152
aI153
aI154
aI155
aI158
aI330
aI331
aI332
aI333
aI334
aI335
aI336
aI337
asI5
(lp5
I185
asI6
(lp6
I347
aI348
aI349
aI350
aI351
aI352
aI353
aI354
aI355
aI356
aI357
aI358
aI359
aI360
aI361
aI362
aI363
aI364
aI365
aI366
aI367
aI368
aI369
aI370
aI371
aI372
aI373
asI7
(lp7
I247
aI259
aI266
aI306
aI307
aI308
aI309
aI310
aI311
aI312
aI313
aI314
aI315
aI316
aI317
aI318
aI319
asI8
(lp8
I236
aI237
aI238
aI239
aI240
aI241
aI242
aI243
aI244
asI9
(lp9
I132
aI137
aI138
aI140
aI141
aI148
aI152
aI154
aI155
aI245
aI246
aI247
aI248
aI249
aI250
aI251
aI252
aI253
aI254
aI255
aI256
aI257
aI258
aI259
aI260
aI261
aI262
aI263
aI264
aI265
aI266
aI267
aI268
aI269
aI270
aI271
aI272
aI273
aI274
aI275
aI276
asI10
(lp10
I49
aI51
aI72
aI73
aI74
aI82
aI90
aI94
aI100
aI104
aI487
asI11
(lp11
I247
aI255
aI259
aI263
aI266
aI269
aI306
aI307
aI308
aI309
aI310
aI311
aI312
aI313
aI314
aI315
aI316
aI317
aI318
aI382
aI384
aI385
asI12
(lp12
I284
aI475
aI476
aI477
aI478
aI479
aI480
aI481
aI484
aI490
aI560
asI13
(lp13
I24
aI25
aI26
aI27
asI14
(lp14
I288
aI289
aI290
aI291
aI292
aI293
aI294
aI295
aI296
aI301
aI302
aI408
aI505
aI506
aI507
aI508
aI509
aI510
aI511
aI512
aI513
asI15
(lp15
I34
aI35
aI36
aI38
aI39
aI40
aI41
aI42
aI107
aI108
aI109
aI110
aI111
aI112
aI113
asI16
(lp16
I248
aI249
aI252
aI264
aI270
aI273
aI274
aI275
aI283
aI285
aI303
aI305
aI386
aI387
aI545
aI546
aI547
aI548
aI549
aI550
aI551
aI552
aI553
aI554
asI17
(lp17
I374
aI375
aI376
aI379
aI468
aI473
aI474
asI18
(lp18
I393
aI394
aI395
aI396
aI397
aI398
aI399
aI400
aI401
aI402
aI556
asI19
(lp19
I1
aI2
aI3
aI6
aI12
aI14
aI22
aI30
aI31
aI33
aI116
aI117
aI118
aI119
aI120
aI121
aI122
aI123
aI124
aI125
aI126
aI127
aI128
aI129
aI130
aI286
asI21
(lp20
I159
aI389
aI390
aI391
asI22
(lp21
I24
aI25
aI26
aI27
aI131
aI132
aI133
aI135
aI136
aI137
aI138
aI139
aI140
aI141
aI142
aI144
aI145
aI146
aI147
aI148
aI149
aI151
aI152
aI153
aI154
aI155
aI157
aI158
aI330
aI331
aI332
aI333
aI335
aI336
aI337
aI388
asI23
(lp22
I270
aI274
aI275
aI386
aI387
asI24
(lp23
I34
aI35
aI36
aI38
aI39
aI40
aI41
aI42
aI107
aI108
aI109
aI110
aI111
aI112
aI113
asI25
(lp24
I0
aI1
aI2
aI3
aI4
aI5
aI6
aI7
aI8
aI9
aI10
aI11
aI12
aI13
aI14
aI15
aI16
aI17
aI18
aI19
aI20
aI21
aI22
aI23
asI26
(lp25
I430
aI431
aI432
aI433
aI434
aI435
aI436
aI437
aI438
aI439
aI440
aI441
asI27
(lp26
I34
aI35
aI36
aI38
aI40
aI41
aI107
aI108
aI110
aI112
aI113
aI493
aI494
aI495
aI496
aI497
aI498
aI499
aI500
aI501
aI502
aI503
asI28
(lp27
I34
aI35
aI36
aI38
aI40
aI41
aI42
aI558
aI559
asI29
(lp28
I28
asI30
(lp29
I320
aI374
aI376
aI377
aI465
aI466
aI467
aI468
aI469
aI470
aI471
aI472
asI31
(lp30
I343
aI429
asI32
(lp31
I24
aI25
aI26
aI27
aI131
aI132
aI133
aI134
aI135
aI136
aI137
aI138
aI139
aI140
aI141
aI142
aI144
aI145
aI146
aI147
aI148
aI149
aI150
aI151
aI152
aI153
aI154
aI155
aI156
aI157
aI158
aI330
aI331
aI332
aI333
aI335
aI336
aI337
aI392
asI33
(lp32
I374
aI375
aI376
aI377
aI378
aI379
asI34
(lp33
I43
aI44
aI45
aI47
aI48
aI49
aI50
aI52
aI53
aI54
aI57
aI58
aI59
aI60
aI61
aI62
aI63
aI64
aI65
aI66
aI67
aI68
aI69
aI70
aI75
aI76
aI77
aI78
aI79
aI80
aI81
aI83
aI84
aI85
aI86
aI87
aI88
aI89
aI91
aI92
aI93
aI94
aI95
aI96
aI97
aI98
aI99
aI100
aI101
aI102
aI103
aI104
aI105
aI106
aI404
aI405
aI406
aI421
aI422
aI423
asI35
(lp34
I161
aI162
aI442
aI443
asI36
(lp35
I43
aI44
aI45
aI47
aI48
aI49
aI50
aI52
aI53
aI54
aI57
aI58
aI59
aI60
aI61
aI62
aI63
aI64
aI65
aI66
aI67
aI68
aI69
aI70
aI75
aI76
aI77
aI78
aI79
aI80
aI81
aI83
aI84
aI85
aI86
aI87
aI88
aI89
aI91
aI92
aI93
aI94
aI95
aI96
aI97
aI98
aI99
aI100
aI101
aI102
aI103
aI104
aI105
aI106
aI528
aI531
aI532
aI533
aI534
aI535
aI536
aI537
asI37
(lp36
I407
aI408
asI38
(lp37
I374
aI375
aI376
aI379
aI469
aI557
asI39
(lp38
I430
aI431
aI432
aI433
aI434
aI435
aI436
aI437
aI438
aI439
aI440
aI441
asI40
(lp39
I247
aI259
aI266
aI306
aI307
aI308
aI309
aI310
aI311
aI312
aI313
aI314
aI315
aI316
aI317
aI318
aI384
asI41
(lp40
I43
aI44
aI45
aI47
aI48
aI49
aI50
aI52
aI53
aI54
aI57
aI58
aI59
aI60
aI61
aI62
aI63
aI64
aI65
aI66
aI67
aI68
aI69
aI70
aI75
aI76
aI77
aI78
aI79
aI80
aI81
aI83
aI84
aI85
aI86
aI87
aI88
aI89
aI91
aI92
aI93
aI94
aI95
aI96
aI97
aI98
aI99
aI100
aI101
aI102
aI103
aI104
aI105
aI106
aI528
aI529
aI530
aI531
aI532
aI533
aI534
aI535
aI536
aI537
asI42
(lp41
I341
aI342
aI343
aI344
aI345
aI346
asI43
(lp42
I34
aI35
aI36
aI38
aI39
aI40
aI41
aI42
aI527
asI44
(lp43
I279
aI280
aI281
aI282
aI284
aI303
aI304
aI305
asI45
(lp44
I526
asI46
(lp45
I34
aI35
aI36
aI38
aI39
aI40
aI41
aI42
aI449
aI450
asI47
(lp46
I343
aI504
asI48
(lp47
I0
aI1
aI2
aI3
aI5
aI6
aI7
aI9
aI10
aI11
aI12
aI13
aI14
aI15
aI17
aI18
aI21
aI22
aI23
aI117
aI120
aI121
aI123
aI125
aI169
aI170
aI180
aI181
aI182
aI184
aI322
aI323
aI324
aI325
aI326
aI327
aI464
asI49
(lp48
I0
aI1
aI2
aI3
aI5
aI6
aI7
aI8
aI9
aI10
aI11
aI13
aI14
aI15
aI18
aI21
aI22
aI23
aI117
aI120
aI121
aI123
aI125
aI163
aI164
aI165
aI166
aI167
aI168
aI169
aI170
aI171
aI172
aI173
aI174
aI175
aI176
aI177
aI178
aI179
aI180
aI181
aI182
aI183
aI184
asI50
(lp49
I289
aI555
asI51
(lp50
I1
aI2
aI3
aI6
aI12
aI14
aI22
aI30
aI31
aI33
aI116
aI117
aI118
aI119
aI120
aI121
aI122
aI123
aI124
aI125
aI126
aI127
aI128
aI129
aI130
asI52
(lp51
I347
aI348
aI349
aI350
aI351
aI353
aI354
aI355
aI356
aI357
aI358
aI359
aI360
aI361
aI362
aI363
aI364
aI365
aI366
aI367
aI368
aI369
aI370
aI371
aI372
aI373
asI53
(lp52
I279
aI284
aI475
aI476
aI477
aI478
aI479
aI480
aI481
aI484
aI488
aI489
aI490
asI54
(lp53
I43
aI44
aI45
aI47
aI48
aI49
aI50
aI52
aI53
aI54
aI57
aI58
aI59
aI60
aI61
aI62
aI63
aI64
aI65
aI66
aI67
aI68
aI69
aI70
aI75
aI76
aI77
aI78
aI79
aI80
aI81
aI83
aI84
aI85
aI86
aI87
aI88
aI89
aI91
aI92
aI93
aI94
aI95
aI96
aI97
aI98
aI99
aI100
aI101
aI102
aI103
aI104
aI105
aI106
aI403
aI404
aI405
aI406
asI55
(lp54
I430
aI431
aI432
aI433
aI434
aI435
aI436
aI437
aI438
aI439
aI440
aI441
asI56
(lp55
I30
aI31
aI32
aI33
aI491
aI492
asI57
(lp56
I393
aI394
aI395
aI396
aI397
aI398
aI399
aI400
aI401
aI402
asI58
(lp57
I44
aI45
aI67
aI81
aI98
aI102
aI214
aI215
aI216
aI217
aI218
aI219
aI220
aI221
aI222
aI223
aI224
aI225
aI226
aI227
aI228
aI229
aI230
aI231
aI232
aI233
aI234
aI235
asI59
(lp58
I29
aI30
aI31
aI32
aI33
asI60
(lp59
I247
aI255
aI259
aI263
aI266
aI306
aI307
aI308
aI309
aI310
aI311
aI312
aI313
aI314
aI315
aI316
aI317
aI318
asI61
(lp60
I347
aI350
aI351
aI352
aI353
aI354
aI355
aI356
aI357
aI358
aI359
aI360
aI361
aI362
aI363
aI364
aI366
aI367
aI368
aI369
aI370
aI372
aI373
aI451
aI452
aI453
aI454
aI455
aI456
aI457
aI458
aI459
aI460
aI461
aI462
aI463
asI62
(lp61
I28
aI328
aI329
asI63
(lp62
I380
asI64
(lp63
I247
aI255
aI259
aI263
aI266
aI269
aI306
aI307
aI308
aI309
aI310
aI311
aI312
aI313
aI314
aI315
aI316
aI317
aI318
aI382
aI383
aI384
aI385
asI65
(lp64
I28
asI66
(lp65
I279
aI282
aI284
aI303
aI305
aI417
aI418
aI444
asI67
(lp66
I393
aI394
aI395
aI396
aI397
aI398
aI399
aI400
aI401
aI402
asI68
(lp67
I279
aI282
aI284
aI381
aI409
aI410
aI411
aI412
aI413
aI414
asI70
(lp68
I34
aI35
aI36
aI37
aI38
aI39
aI40
aI41
aI42
asI71
(lp69
I247
aI259
aI266
aI306
aI307
aI308
aI309
aI311
aI312
aI313
aI314
aI315
aI316
aI317
aI318
aI415
aI416
asI72
(lp70
I114
aI115
asI73
(lp71
I486
asI74
(lp72
I279
aI282
aI284
aI381
asI75
(lp73
I131
aI132
aI133
aI134
aI135
aI136
aI137
aI138
aI139
aI140
aI141
aI142
aI143
aI144
aI145
aI146
aI147
aI148
aI149
aI150
aI151
aI152
aI153
aI154
aI155
aI156
aI157
aI158
asI76
(lp74
I43
aI44
aI45
aI47
aI48
aI49
aI50
aI52
aI53
aI54
aI57
aI58
aI59
aI60
aI61
aI62
aI63
aI64
aI65
aI66
aI67
aI68
aI69
aI70
aI75
aI76
aI77
aI78
aI79
aI80
aI81
aI83
aI84
aI86
aI87
aI88
aI89
aI91
aI92
aI93
aI94
aI95
aI96
aI97
aI98
aI99
aI100
aI101
aI102
aI103
aI104
aI105
aI106
asI77
(lp75
I30
aI31
aI33
aI424
asI78
(lp76
I514
aI515
aI516
aI517
aI518
asI79
(lp77
I49
aI51
aI72
aI73
aI74
aI82
aI90
aI94
aI100
aI104
asI80
(lp78
I159
aI160
asI81
(lp79
I132
aI137
aI138
aI140
aI141
aI144
aI148
aI152
aI153
aI154
aI155
aI245
aI246
aI247
aI248
aI249
aI250
aI251
aI252
aI254
aI255
aI256
aI257
aI258
aI259
aI260
aI261
aI262
aI263
aI264
aI265
aI266
aI267
aI268
aI269
aI270
aI273
aI274
aI275
aI276
aI333
aI335
aI338
aI339
aI340
asI82
(lp80
I30
aI31
aI33
aI286
aI287
asI83
(lp81
I523
asI84
(lp82
I247
aI255
aI259
aI263
aI266
aI269
aI306
aI307
aI308
aI309
aI310
aI311
aI312
aI313
aI314
aI315
aI316
aI317
aI318
aI382
aI385
asI85
(lp83
I279
aI282
aI283
aI284
aI285
aI417
aI418
aI419
aI420
asI86
(lp84
I399
aI524
aI525
asI87
(lp85
I43
aI44
aI45
aI47
aI48
aI49
aI50
aI52
aI53
aI54
aI57
aI58
aI59
aI60
aI61
aI62
aI63
aI64
aI65
aI66
aI67
aI68
aI69
aI70
aI75
aI76
aI77
aI78
aI79
aI80
aI81
aI83
aI84
aI86
aI87
aI88
aI89
aI91
aI92
aI93
aI94
aI95
aI96
aI97
aI98
aI99
aI100
aI101
aI102
aI103
aI104
aI105
aI106
asI88
(lp86
I161
aI162
asI89
(lp87
I43
aI44
aI45
aI46
aI47
aI48
aI49
aI50
aI51
aI52
aI53
aI54
aI55
aI56
aI57
aI58
aI59
aI60
aI61
aI62
aI63
aI64
aI65
aI66
aI67
aI68
aI69
aI70
aI71
aI72
aI73
aI74
aI75
aI76
aI77
aI78
aI79
aI80
aI81
aI82
aI83
aI84
aI85
aI86
aI87
aI88
aI89
aI90
aI91
aI92
aI93
aI94
aI95
aI96
aI97
aI98
aI99
aI100
aI101
aI102
aI103
aI104
aI105
aI106
asI90
(lp88
I186
aI187
aI188
aI189
aI190
aI191
aI192
aI193
aI194
aI195
aI196
aI197
aI198
aI199
aI200
aI201
aI202
aI203
aI204
aI205
aI206
aI207
aI208
aI209
aI210
aI211
aI212
aI213
asI91
(lp89
I279
aI284
aI475
aI476
aI477
aI478
aI479
aI480
aI481
aI482
aI483
aI484
aI485
asI92
(lp90
I277
aI278
aI279
aI280
aI281
aI282
aI283
aI284
aI285
asI93
(lp91
I38
aI39
aI41
aI107
aI109
aI110
aI111
aI113
aI427
aI428
asI94
(lp92
I247
aI255
aI259
aI263
aI266
aI269
aI306
aI307
aI308
aI309
aI310
aI311
aI312
aI313
aI314
aI315
aI316
aI317
aI318
aI382
aI383
aI385
asI95
(lp93
I43
aI44
aI45
aI47
aI48
aI49
aI50
aI52
aI53
aI54
aI57
aI58
aI59
aI60
aI61
aI62
aI63
aI64
aI65
aI66
aI67
aI68
aI69
aI70
aI75
aI76
aI77
aI78
aI79
aI80
aI81
aI83
aI84
aI85
aI86
aI87
aI88
aI89
aI91
aI92
aI93
aI94
aI95
aI96
aI97
aI98
aI99
aI100
aI101
aI102
aI103
aI104
aI105
aI106
aI538
aI539
aI540
aI541
aI542
aI543
aI544
asI96
(lp94
I44
aI45
aI67
aI81
aI98
aI102
aI214
aI215
aI216
aI217
aI218
aI219
aI220
aI221
aI222
aI223
aI226
aI227
aI228
aI229
aI230
aI231
aI232
aI233
aI234
aI235
aI519
aI520
aI521
aI522
asI97
(lp95
I28
aI328
aI329
asI98
(lp96
I247
aI255
aI259
aI263
aI266
aI269
aI306
aI307
aI308
aI309
aI310
aI311
aI312
aI313
aI314
aI315
aI316
aI317
aI318
aI382
aI383
aI385
asI99
(lp97
I0
aI1
aI2
aI3
aI5
aI6
aI7
aI9
aI10
aI11
aI12
aI13
aI14
aI15
aI17
aI18
aI21
aI22
aI23
aI117
aI120
aI121
aI123
aI125
aI169
aI170
aI180
aI181
aI182
aI184
aI322
aI323
aI324
aI325
aI326
aI327
asI100
(lp98
I132
aI137
aI140
aI141
aI144
aI147
aI148
aI153
aI154
aI155
asI101
(lp99
I247
aI255
aI259
aI263
aI266
aI269
aI306
aI307
aI308
aI309
aI310
aI311
aI312
aI313
aI314
aI315
aI316
aI317
aI318
aI382
aI384
aI385
asI102
(lp100
I288
aI289
aI290
aI291
aI292
aI293
aI294
aI295
aI296
aI297
aI298
aI299
aI300
aI301
aI302
as.