(dp0
I1
(lp1
I214
aI215
aI216
aI217
aI218
aI219
aI220
aI221
aI223
aI224
aI225
aI226
aI227
aI228
aI229
aI230
aI231
aI232
aI233
aI234
aI235
aI236
aI237
aI238
aI239
aI240
aI241
aI242
aI243
aI244
aI245
aI246
aI247
aI248
aI249
aI250
aI251
aI252
aI253
aI254
aI255
aI256
aI257
aI258
aI259
aI260
aI261
aI262
aI263
aI264
aI265
aI266
asI2
(lp2
I294
aI295
aI296
aI297
aI298
aI299
aI300
aI301
aI302
aI303
aI304
aI305
aI306
aI307
asI3
(lp3
I58
aI59
aI60
aI61
aI62
aI63
aI64
aI65
aI119
asI4
(lp4
I58
aI59
aI60
aI61
aI62
aI63
aI64
aI65
aI119
aI137
aI138
aI139
aI140
asI5
(lp5
I119
aI134
asI6
(lp6
I141
aI142
aI143
aI144
aI145
aI146
aI147
aI148
aI149
aI150
aI151
aI152
aI195
aI196
aI197
aI198
aI199
aI200
aI201
aI202
aI203
aI204
aI205
aI214
aI215
aI216
aI217
aI220
aI221
aI225
aI226
aI227
aI228
aI229
aI230
aI231
aI232
aI233
aI234
aI235
aI236
aI237
aI238
aI239
aI240
aI241
aI242
aI243
aI244
aI245
aI246
aI247
aI248
aI249
aI250
aI251
aI252
aI253
aI254
aI255
aI256
aI257
aI258
aI259
aI260
aI261
aI262
aI263
aI264
aI265
aI266
asI7
(lp7
I141
aI142
aI143
aI144
aI145
aI146
aI166
aI167
aI168
aI169
aI170
aI171
aI172
aI214
aI215
aI216
aI217
aI220
aI221
aI225
aI226
aI227
aI228
aI229
aI230
aI231
aI232
aI233
aI234
aI235
aI236
aI237
aI238
aI239
aI240
aI241
aI242
aI243
aI244
aI245
aI246
aI247
aI248
aI249
aI250
aI251
aI252
aI253
aI254
aI255
aI256
aI257
aI258
aI259
aI260
aI261
aI262
aI263
aI264
aI265
aI266
asI8
(lp8
I214
aI215
aI216
aI217
aI218
aI219
aI220
aI221
aI223
aI224
aI225
aI226
aI227
aI228
aI229
aI230
aI231
aI232
aI233
aI234
aI235
aI236
aI237
aI238
aI239
aI240
aI241
aI242
aI243
aI244
aI245
aI246
aI247
aI248
aI249
aI250
aI251
aI252
aI253
aI254
aI255
aI256
aI257
aI258
aI259
aI260
aI261
aI262
aI263
aI264
aI265
aI266
asI9
(lp9
I0
aI1
aI2
aI3
aI4
aI5
aI7
aI8
aI9
aI10
aI13
aI14
aI15
aI16
aI17
aI18
aI19
aI20
aI21
aI22
aI23
aI24
aI25
aI26
aI27
aI28
aI29
aI30
aI31
aI32
aI33
aI34
aI35
aI36
aI37
aI38
aI39
aI40
aI41
aI42
aI43
aI44
aI45
aI46
aI47
aI48
aI49
aI50
aI51
aI52
aI53
aI54
aI55
aI56
aI57
aI66
aI67
aI68
aI120
aI121
aI122
aI123
aI124
aI125
aI127
aI128
aI129
aI130
aI131
aI132
aI133
aI135
asI10
(lp10
I71
aI72
aI101
aI102
aI103
aI104
aI105
aI106
aI107
aI108
aI109
aI110
aI112
aI113
aI114
aI115
aI116
aI117
aI118
asI11
(lp11
I67
aI68
aI74
aI75
aI76
aI77
aI78
aI79
aI88
aI119
asI12
(lp12
I0
aI2
aI3
aI5
aI13
aI14
aI15
aI16
aI17
aI18
aI20
aI21
aI22
aI23
aI24
aI25
aI26
aI27
aI28
aI29
aI30
aI34
aI35
aI36
aI37
aI39
aI40
aI41
aI42
aI43
aI44
aI45
aI46
aI47
aI48
aI49
aI50
aI51
aI54
aI55
aI56
aI57
aI101
aI102
aI103
aI104
aI105
aI106
aI107
aI108
aI109
aI110
aI111
aI112
aI113
aI114
aI115
aI116
aI117
aI118
asI13
(lp13
I0
aI1
aI2
aI3
aI4
aI5
aI7
aI8
aI9
aI10
aI13
aI14
aI15
aI16
aI17
aI18
aI19
aI20
aI21
aI22
aI23
aI24
aI25
aI26
aI27
aI28
aI29
aI30
aI31
aI32
aI33
aI34
aI35
aI36
aI37
aI38
aI39
aI40
aI41
aI42
aI43
aI44
aI45
aI46
aI47
aI48
aI49
aI50
aI51
aI52
aI53
aI54
aI55
aI56
aI57
aI66
aI67
aI68
aI120
aI121
aI122
aI123
aI124
aI125
aI127
aI128
aI129
aI130
aI131
aI132
aI133
asI14
(lp14
I119
asI15
(lp15
I293
aI294
aI296
aI297
aI298
aI299
aI300
aI301
aI302
aI303
aI304
aI305
aI306
aI307
aI308
aI309
aI311
aI313
asI16
(lp16
I294
aI296
aI297
aI298
aI299
aI300
aI301
aI302
aI303
asI17
(lp17
I141
aI142
aI144
aI146
aI147
aI148
aI150
aI151
aI152
aI153
aI154
aI155
aI157
aI158
aI159
aI160
aI161
aI162
aI163
aI164
aI165
aI167
aI168
aI170
aI171
aI179
aI180
aI181
aI182
aI183
aI184
aI185
aI186
aI187
aI188
aI189
aI190
aI206
aI207
aI208
aI211
aI267
aI328
aI329
aI330
aI331
aI332
aI334
aI335
aI345
asI18
(lp18
I58
aI59
aI60
aI61
aI62
aI63
aI64
aI65
aI119
aI136
asI19
(lp19
I141
aI142
aI144
aI146
aI147
aI150
aI151
aI152
aI153
aI154
aI155
aI157
aI158
aI159
aI160
aI161
aI162
aI163
aI164
aI165
aI167
aI168
aI170
aI171
aI179
aI180
aI181
aI182
aI183
aI184
aI185
aI186
aI187
aI188
aI189
aI190
aI206
aI207
aI208
aI213
aI267
aI330
aI331
aI332
aI333
aI334
aI335
aI345
asI20
(lp20
I58
aI59
aI60
aI61
aI62
aI63
aI64
aI65
aI119
asI21
(lp21
I214
aI215
aI217
aI218
aI221
aI223
aI227
aI228
aI229
aI230
aI231
aI232
aI233
aI236
aI237
aI238
aI239
aI240
aI241
aI245
aI246
aI247
aI248
aI249
aI250
aI251
aI252
aI253
aI254
aI255
aI256
aI259
aI260
aI261
aI262
aI265
aI266
aI293
aI294
aI296
aI297
aI298
aI299
aI300
aI301
aI302
aI303
aI304
aI305
aI306
aI307
aI308
aI309
aI310
aI311
aI312
aI313
aI345
asI22
(lp22
I147
aI148
aI150
aI151
aI152
aI154
aI158
aI162
aI164
aI165
aI186
aI189
aI267
asI23
(lp23
I58
aI59
aI64
aI67
aI68
aI92
aI93
aI94
aI95
aI96
aI125
aI127
asI24
(lp24
I271
aI273
aI274
aI275
aI276
aI277
aI278
aI279
aI280
aI281
aI282
aI283
aI284
aI285
aI286
aI287
asI25
(lp25
I147
aI148
aI150
aI151
aI152
aI153
aI154
aI155
aI156
aI157
aI158
aI159
aI160
aI161
aI162
aI163
aI164
aI165
aI185
aI186
aI187
aI188
aI189
aI190
aI267
asI26
(lp26
I58
aI59
aI60
aI62
aI64
aI69
aI70
aI80
aI81
aI82
aI83
aI105
aI106
aI109
aI111
aI113
aI114
aI116
aI117
aI118
aI141
aI142
aI143
aI144
aI145
aI146
aI154
aI160
aI161
aI163
aI164
aI166
aI167
aI168
aI169
aI170
aI171
aI185
aI186
aI189
aI190
aI191
aI192
aI193
aI206
aI207
aI208
aI209
aI280
aI281
aI282
aI283
aI284
aI285
aI286
aI287
aI314
aI315
aI317
aI318
aI319
aI320
aI321
aI322
aI323
aI324
aI325
aI326
aI327
aI338
aI339
aI340
aI341
aI342
aI343
aI345
asI27
(lp27
I141
aI168
asI28
(lp28
I271
aI272
aI287
asI29
(lp29
I0
aI2
aI3
aI5
aI6
aI7
aI8
aI10
aI11
aI12
aI13
aI14
aI15
aI16
aI18
aI20
aI23
aI24
aI27
aI31
aI32
aI33
aI35
aI37
aI39
aI40
aI41
aI42
aI43
aI44
aI45
aI46
aI47
aI48
aI49
aI52
aI53
aI54
aI55
aI56
aI57
aI71
aI72
aI101
aI102
aI103
aI104
aI105
aI106
aI108
aI109
aI110
aI112
aI114
aI117
aI118
aI141
aI142
aI143
aI144
aI145
aI146
aI153
aI154
aI155
aI156
aI157
aI158
aI159
aI160
aI161
aI162
aI163
aI164
aI165
aI166
aI167
aI168
aI169
aI170
aI171
aI172
aI185
aI186
aI187
aI188
aI189
aI190
aI191
aI192
aI193
aI194
aI206
aI207
aI208
aI209
aI280
aI282
aI283
aI284
aI285
aI286
aI287
aI314
aI315
aI316
aI317
aI318
aI319
aI320
aI321
aI322
aI323
aI324
aI325
aI326
aI327
aI338
aI339
aI341
aI342
aI343
aI345
asI30
(lp30
I71
aI72
aI100
aI101
aI102
aI103
aI104
aI105
aI106
aI107
aI108
aI109
aI110
aI112
aI113
aI114
aI115
aI116
aI117
aI118
asI31
(lp31
I141
aI142
aI144
aI146
aI167
aI168
aI170
aI171
aI173
aI174
aI175
aI176
aI177
aI178
aI206
aI207
aI208
aI212
aI288
aI289
aI290
aI291
aI292
aI336
aI337
aI344
aI345
asI32
(lp32
I147
aI148
aI150
aI151
aI152
aI154
aI158
aI162
aI186
aI267
asI33
(lp33
I58
aI59
aI62
aI63
aI64
aI84
aI85
aI86
aI87
aI88
aI89
aI90
aI91
asI34
(lp34
I147
aI148
aI150
aI151
aI152
aI154
aI155
aI158
aI159
aI162
aI163
aI164
aI165
aI186
aI189
aI190
aI214
aI215
aI221
aI228
aI229
aI231
aI237
aI249
aI250
aI252
aI253
aI254
aI259
aI260
aI266
aI267
aI269
aI270
asI35
(lp35
I58
aI59
aI61
aI62
aI63
aI64
aI65
aI67
aI68
aI70
aI80
aI82
aI83
aI84
aI87
aI88
aI91
aI97
aI98
aI99
aI125
aI127
asI36
(lp36
I178
aI288
aI289
aI290
aI291
aI336
aI337
aI344
asI37
(lp37
I58
aI59
aI61
aI63
aI64
aI65
aI71
aI72
aI81
aI82
aI101
aI102
aI103
aI104
aI105
aI106
aI107
aI112
aI113
aI117
aI118
asI38
(lp38
I141
aI147
aI148
aI149
aI150
aI151
aI152
aI153
aI154
aI155
aI156
aI157
aI158
aI159
aI160
aI161
aI162
aI163
aI164
aI165
aI168
aI185
aI186
aI187
aI188
aI189
aI190
aI267
aI268
asI39
(lp39
I141
aI142
aI143
aI144
aI145
aI146
aI166
aI167
aI168
aI169
aI170
aI171
aI172
aI214
aI215
aI216
aI217
aI220
aI221
aI225
aI226
aI227
aI228
aI229
aI230
aI231
aI232
aI233
aI234
aI235
aI236
aI237
aI238
aI239
aI240
aI241
aI242
aI243
aI244
aI245
aI246
aI247
aI248
aI249
aI250
aI251
aI252
aI253
aI254
aI255
aI256
aI257
aI258
aI259
aI260
aI261
aI262
aI263
aI264
aI265
aI266
asI40
(lp40
I58
aI59
aI60
aI61
aI62
aI63
aI64
aI65
aI66
aI67
aI68
aI120
aI121
aI122
aI123
aI124
aI125
aI126
aI127
aI128
aI129
aI130
aI131
aI132
aI133
asI41
(lp41
I0
aI2
aI3
aI5
aI13
aI14
aI15
aI16
aI18
aI37
aI39
aI40
aI41
aI42
aI43
aI46
aI48
aI49
aI50
aI51
aI54
aI55
aI56
aI57
aI73
aI85
aI86
aI87
aI91
asI42
(lp42
I0
aI2
aI3
aI5
aI13
aI14
aI15
aI16
aI17
aI18
aI20
aI21
aI22
aI23
aI24
aI25
aI26
aI27
aI28
aI29
aI30
aI34
aI35
aI36
aI37
aI39
aI40
aI41
aI42
aI43
aI44
aI45
aI46
aI47
aI48
aI49
aI50
aI51
aI54
aI55
aI56
aI57
aI101
aI102
aI103
aI104
aI105
aI106
aI107
aI108
aI109
aI110
aI112
aI113
aI114
aI115
aI116
aI117
aI118
asI43
(lp43
I141
aI142
aI143
aI144
aI145
aI146
aI147
aI148
aI149
aI150
aI151
aI152
aI195
aI196
aI197
aI198
aI199
aI200
aI201
aI202
aI203
aI204
aI205
aI214
aI215
aI216
aI217
aI220
aI221
aI225
aI226
aI227
aI228
aI229
aI230
aI231
aI232
aI233
aI234
aI235
aI236
aI237
aI238
aI239
aI240
aI241
aI242
aI243
aI244
aI245
aI246
aI247
aI248
aI249
aI250
aI251
aI252
aI253
aI254
aI255
aI256
aI257
aI258
aI259
aI260
aI261
aI262
aI263
aI264
aI265
aI266
asI44
(lp44
I141
aI142
aI143
aI144
aI145
aI146
aI147
aI148
aI150
aI151
aI152
aI153
aI154
aI155
aI156
aI157
aI158
aI159
aI160
aI161
aI162
aI163
aI164
aI165
aI166
aI167
aI168
aI169
aI170
aI171
aI172
aI185
aI186
aI187
aI188
aI189
aI190
aI206
aI207
aI208
aI209
aI210
aI211
aI212
aI214
aI215
aI216
aI222
aI223
aI227
aI228
aI229
aI230
aI231
aI232
aI233
aI236
aI237
aI238
aI239
aI240
aI241
aI245
aI246
aI247
aI248
aI249
aI250
aI251
aI252
aI253
aI254
aI255
aI256
aI259
aI260
aI261
aI262
aI265
aI266
aI267
asI45
(lp45
I141
aI168
as.